
build/main:     file format elf64-littleriscv


Disassembly of section .text:

0000000050201000 <_start>:
    50201000:	10401073          	csrw	sie,zero
    50201004:	14401073          	csrw	sip,zero
    50201008:	00001297          	auipc	t0,0x1
    5020100c:	87828293          	addi	t0,t0,-1928 # 50201880 <tasknum>
    50201010:	00001317          	auipc	t1,0x1
    50201014:	ab030313          	addi	t1,t1,-1360 # 50201ac0 <__BSS_END__>

0000000050201018 <clear_bss>:
    50201018:	0002a023          	sw	zero,0(t0)
    5020101c:	0291                	addi	t0,t0,4
    5020101e:	fe62cde3          	blt	t0,t1,50201018 <clear_bss>

0000000050201022 <end_clear_bss>:
    50201022:	50500137          	lui	sp,0x50500
    50201026:	00c000ef          	jal	50201032 <main>

000000005020102a <loop>:
    5020102a:	10500073          	wfi
    5020102e:	bff5                	j	5020102a <loop>
    50201030:	0001                	nop

0000000050201032 <main>:
    50201032:	7175                	addi	sp,sp,-144
    50201034:	f8ca                	sd	s2,112(sp)
    50201036:	00001917          	auipc	s2,0x1
    5020103a:	85290913          	addi	s2,s2,-1966 # 50201888 <buf>
    5020103e:	e506                	sd	ra,136(sp)
    50201040:	e122                	sd	s0,128(sp)
    50201042:	fca6                	sd	s1,120(sp)
    50201044:	f4ce                	sd	s3,104(sp)
    50201046:	f0d2                	sd	s4,96(sp)
    50201048:	ecd6                	sd	s5,88(sp)
    5020104a:	e4de                	sd	s7,72(sp)
    5020104c:	87ca                	mv	a5,s2
    5020104e:	00001697          	auipc	a3,0x1
    50201052:	86c68693          	addi	a3,a3,-1940 # 502018ba <buf+0x32>
    50201056:	a019                	j	5020105c <main+0x2a>
    50201058:	2ad78863          	beq	a5,a3,50201308 <main+0x2d6>
    5020105c:	0007c703          	lbu	a4,0(a5)
    50201060:	0785                	addi	a5,a5,1
    50201062:	db7d                	beqz	a4,50201058 <main+0x26>
    50201064:	502007b7          	lui	a5,0x50200
    50201068:	1fe79583          	lh	a1,510(a5) # 502001fe <_start-0xe02>
    5020106c:	52000637          	lui	a2,0x52000
    50201070:	00000317          	auipc	t1,0x0
    50201074:	31a30313          	addi	t1,t1,794 # 5020138a <port_write>
    50201078:	00000897          	auipc	a7,0x0
    5020107c:	2fe88893          	addi	a7,a7,766 # 50201376 <port_write_ch>
    50201080:	00000817          	auipc	a6,0x0
    50201084:	31e80813          	addi	a6,a6,798 # 5020139e <port_read_ch>
    50201088:	00000517          	auipc	a0,0x0
    5020108c:	33850513          	addi	a0,a0,824 # 502013c0 <sd_read>
    50201090:	f0663023          	sd	t1,-256(a2) # 51ffff00 <__BSS_END__+0x1dfe440>
    50201094:	f1163423          	sd	a7,-248(a2)
    50201098:	f1063823          	sd	a6,-240(a2)
    5020109c:	f0a63c23          	sd	a0,-232(a2)
    502010a0:	0005879b          	sext.w	a5,a1
    502010a4:	00000717          	auipc	a4,0x0
    502010a8:	7cb72e23          	sw	a1,2012(a4) # 50201880 <tasknum>
    502010ac:	4b81                	li	s7,0
    502010ae:	2af05763          	blez	a5,5020135c <main+0x32a>
    502010b2:	50200ab7          	lui	s5,0x50200
    502010b6:	e8da                	sd	s6,80(sp)
    502010b8:	1f0a8a93          	addi	s5,s5,496 # 502001f0 <_start-0xe10>
    502010bc:	00001797          	auipc	a5,0x1
    502010c0:	80478793          	addi	a5,a5,-2044 # 502018c0 <tasks>
    502010c4:	520009b7          	lui	s3,0x52000
    502010c8:	52000b37          	lui	s6,0x52000
    502010cc:	40fa8ab3          	sub	s5,s5,a5
    502010d0:	f0898993          	addi	s3,s3,-248 # 51ffff08 <__BSS_END__+0x1dfe448>
    502010d4:	f00b0b13          	addi	s6,s6,-256 # 51ffff00 <__BSS_END__+0x1dfe440>
    502010d8:	00000497          	auipc	s1,0x0
    502010dc:	7f848493          	addi	s1,s1,2040 # 502018d0 <tasks+0x10>
    502010e0:	4a01                	li	s4,0
    502010e2:	009a87b3          	add	a5,s5,s1
    502010e6:	6390                	ld	a2,0(a5)
    502010e8:	6794                	ld	a3,8(a5)
    502010ea:	6b98                	ld	a4,16(a5)
    502010ec:	fec4b823          	sd	a2,-16(s1)
    502010f0:	fed4bc23          	sd	a3,-8(s1)
    502010f4:	e098                	sd	a4,0(s1)
    502010f6:	6f9c                	ld	a5,24(a5)
    502010f8:	ff048413          	addi	s0,s1,-16
    502010fc:	e49c                	sd	a5,8(s1)
    502010fe:	00044503          	lbu	a0,0(s0)
    50201102:	4701                	li	a4,0
    50201104:	4681                	li	a3,0
    50201106:	4601                	li	a2,0
    50201108:	4581                	li	a1,0
    5020110a:	c519                	beqz	a0,50201118 <main+0xe6>
    5020110c:	0009b783          	ld	a5,0(s3)
    50201110:	0405                	addi	s0,s0,1
    50201112:	9782                	jalr	a5
    50201114:	fe8495e3          	bne	s1,s0,502010fe <main+0xcc>
    50201118:	000b3783          	ld	a5,0(s6)
    5020111c:	4701                	li	a4,0
    5020111e:	4681                	li	a3,0
    50201120:	4601                	li	a2,0
    50201122:	4581                	li	a1,0
    50201124:	00000517          	auipc	a0,0x0
    50201128:	4e450513          	addi	a0,a0,1252 # 50201608 <strcat+0x8e>
    5020112c:	9782                	jalr	a5
    5020112e:	00000797          	auipc	a5,0x0
    50201132:	7527a783          	lw	a5,1874(a5) # 50201880 <tasknum>
    50201136:	2a05                	addiw	s4,s4,1
    50201138:	02048493          	addi	s1,s1,32
    5020113c:	fafa43e3          	blt	s4,a5,502010e2 <main+0xb0>
    50201140:	06600793          	li	a5,102
    50201144:	000b8663          	beqz	s7,50201150 <main+0x11e>
    50201148:	6b46                	ld	s6,80(sp)
    5020114a:	07400793          	li	a5,116
    5020114e:	a011                	j	50201152 <main+0x120>
    50201150:	6b46                	ld	s6,80(sp)
    50201152:	00000717          	auipc	a4,0x0
    50201156:	72a72703          	lw	a4,1834(a4) # 5020187c <version>
    5020115a:	00f10423          	sb	a5,8(sp) # 50500008 <__BSS_END__+0x2fe548>
    5020115e:	00000797          	auipc	a5,0x0
    50201162:	4b278793          	addi	a5,a5,1202 # 50201610 <strcat+0x96>
    50201166:	638c                	ld	a1,0(a5)
    50201168:	6790                	ld	a2,8(a5)
    5020116a:	6b94                	ld	a3,16(a5)
    5020116c:	00000797          	auipc	a5,0x0
    50201170:	4bc7d783          	lhu	a5,1212(a5) # 50201628 <strcat+0xae>
    50201174:	0307071b          	addiw	a4,a4,48
    50201178:	f02e                	sd	a1,32(sp)
    5020117a:	f432                	sd	a2,40(sp)
    5020117c:	f836                	sd	a3,48(sp)
    5020117e:	02f11c23          	sh	a5,56(sp)
    50201182:	00e104a3          	sb	a4,9(sp)
    50201186:	101c                	addi	a5,sp,32
    50201188:	00000617          	auipc	a2,0x0
    5020118c:	71a60613          	addi	a2,a2,1818 # 502018a2 <buf+0x1a>
    50201190:	4581                	li	a1,0
    50201192:	05f00693          	li	a3,95
    50201196:	0007c703          	lbu	a4,0(a5)
    5020119a:	0785                	addi	a5,a5,1
    5020119c:	00e90023          	sb	a4,0(s2)
    502011a0:	00d71963          	bne	a4,a3,502011b2 <main+0x180>
    502011a4:	00258733          	add	a4,a1,sp
    502011a8:	00874703          	lbu	a4,8(a4)
    502011ac:	2585                	addiw	a1,a1,1
    502011ae:	00e90023          	sb	a4,0(s2)
    502011b2:	0905                	addi	s2,s2,1
    502011b4:	fec911e3          	bne	s2,a2,50201196 <main+0x164>
    502011b8:	00000517          	auipc	a0,0x0
    502011bc:	3f050513          	addi	a0,a0,1008 # 502015a8 <strcat+0x2e>
    502011c0:	1a2000ef          	jal	50201362 <bios_putstr>
    502011c4:	00000517          	auipc	a0,0x0
    502011c8:	6c450513          	addi	a0,a0,1732 # 50201888 <buf>
    502011cc:	52000937          	lui	s2,0x52000
    502011d0:	52000a37          	lui	s4,0x52000
    502011d4:	18e000ef          	jal	50201362 <bios_putstr>
    502011d8:	f1090913          	addi	s2,s2,-240 # 51ffff10 <__BSS_END__+0x1dfe450>
    502011dc:	00010823          	sb	zero,16(sp)
    502011e0:	f00a0a13          	addi	s4,s4,-256 # 51ffff00 <__BSS_END__+0x1dfe440>
    502011e4:	4481                	li	s1,0
    502011e6:	4a81                	li	s5,0
    502011e8:	59fd                	li	s3,-1
    502011ea:	00093783          	ld	a5,0(s2)
    502011ee:	4701                	li	a4,0
    502011f0:	4681                	li	a3,0
    502011f2:	4601                	li	a2,0
    502011f4:	4581                	li	a1,0
    502011f6:	4501                	li	a0,0
    502011f8:	9782                	jalr	a5
    502011fa:	842a                	mv	s0,a0
    502011fc:	2501                	sext.w	a0,a0
    502011fe:	ff3506e3          	beq	a0,s3,502011ea <main+0x1b8>
    50201202:	ff350793          	addi	a5,a0,-13
    50201206:	c79d                	beqz	a5,50201234 <main+0x202>
    50201208:	ff650793          	addi	a5,a0,-10
    5020120c:	c785                	beqz	a5,50201234 <main+0x202>
    5020120e:	520007b7          	lui	a5,0x52000
    50201212:	f0878793          	addi	a5,a5,-248 # 51ffff08 <__BSS_END__+0x1dfe448>
    50201216:	639c                	ld	a5,0(a5)
    50201218:	4701                	li	a4,0
    5020121a:	4681                	li	a3,0
    5020121c:	4601                	li	a2,0
    5020121e:	4581                	li	a1,0
    50201220:	9782                	jalr	a5
    50201222:	47c1                	li	a5,16
    50201224:	0af48a63          	beq	s1,a5,502012d8 <main+0x2a6>
    50201228:	002487b3          	add	a5,s1,sp
    5020122c:	00878823          	sb	s0,16(a5)
    50201230:	2485                	addiw	s1,s1,1
    50201232:	bf65                	j	502011ea <main+0x1b8>
    50201234:	000a3783          	ld	a5,0(s4)
    50201238:	4701                	li	a4,0
    5020123a:	4681                	li	a3,0
    5020123c:	4601                	li	a2,0
    5020123e:	4581                	li	a1,0
    50201240:	00000517          	auipc	a0,0x0
    50201244:	3c850513          	addi	a0,a0,968 # 50201608 <strcat+0x8e>
    50201248:	9782                	jalr	a5
    5020124a:	c8bd                	beqz	s1,502012c0 <main+0x28e>
    5020124c:	00000797          	auipc	a5,0x0
    50201250:	6347a783          	lw	a5,1588(a5) # 50201880 <tasknum>
    50201254:	948a                	add	s1,s1,sp
    50201256:	00048823          	sb	zero,16(s1)
    5020125a:	4401                	li	s0,0
    5020125c:	00000497          	auipc	s1,0x0
    50201260:	66448493          	addi	s1,s1,1636 # 502018c0 <tasks>
    50201264:	00f04b63          	bgtz	a5,5020127a <main+0x248>
    50201268:	a82d                	j	502012a2 <main+0x270>
    5020126a:	00000797          	auipc	a5,0x0
    5020126e:	6167a783          	lw	a5,1558(a5) # 50201880 <tasknum>
    50201272:	02048493          	addi	s1,s1,32
    50201276:	02f45663          	bge	s0,a5,502012a2 <main+0x270>
    5020127a:	080c                	addi	a1,sp,16
    5020127c:	8526                	mv	a0,s1
    5020127e:	230000ef          	jal	502014ae <strcmp>
    50201282:	2405                	addiw	s0,s0,1
    50201284:	f17d                	bnez	a0,5020126a <main+0x238>
    50201286:	000a3783          	ld	a5,0(s4)
    5020128a:	4701                	li	a4,0
    5020128c:	4681                	li	a3,0
    5020128e:	4601                	li	a2,0
    50201290:	4581                	li	a1,0
    50201292:	00000517          	auipc	a0,0x0
    50201296:	32650513          	addi	a0,a0,806 # 502015b8 <strcat+0x3e>
    5020129a:	9782                	jalr	a5
    5020129c:	4481                	li	s1,0
    5020129e:	4a85                	li	s5,1
    502012a0:	b7a9                	j	502011ea <main+0x1b8>
    502012a2:	fe0a9de3          	bnez	s5,5020129c <main+0x26a>
    502012a6:	000a3783          	ld	a5,0(s4)
    502012aa:	4701                	li	a4,0
    502012ac:	4681                	li	a3,0
    502012ae:	4601                	li	a2,0
    502012b0:	4581                	li	a1,0
    502012b2:	00000517          	auipc	a0,0x0
    502012b6:	30e50513          	addi	a0,a0,782 # 502015c0 <strcat+0x46>
    502012ba:	9782                	jalr	a5
    502012bc:	4481                	li	s1,0
    502012be:	b735                	j	502011ea <main+0x1b8>
    502012c0:	000a3783          	ld	a5,0(s4)
    502012c4:	4701                	li	a4,0
    502012c6:	4681                	li	a3,0
    502012c8:	4601                	li	a2,0
    502012ca:	4581                	li	a1,0
    502012cc:	00000517          	auipc	a0,0x0
    502012d0:	2fc50513          	addi	a0,a0,764 # 502015c8 <strcat+0x4e>
    502012d4:	9782                	jalr	a5
    502012d6:	bf11                	j	502011ea <main+0x1b8>
    502012d8:	000a3783          	ld	a5,0(s4)
    502012dc:	4701                	li	a4,0
    502012de:	4681                	li	a3,0
    502012e0:	4601                	li	a2,0
    502012e2:	4581                	li	a1,0
    502012e4:	00000517          	auipc	a0,0x0
    502012e8:	32450513          	addi	a0,a0,804 # 50201608 <strcat+0x8e>
    502012ec:	9782                	jalr	a5
    502012ee:	000a3783          	ld	a5,0(s4)
    502012f2:	4701                	li	a4,0
    502012f4:	4681                	li	a3,0
    502012f6:	4601                	li	a2,0
    502012f8:	4581                	li	a1,0
    502012fa:	00000517          	auipc	a0,0x0
    502012fe:	2ee50513          	addi	a0,a0,750 # 502015e8 <strcat+0x6e>
    50201302:	9782                	jalr	a5
    50201304:	4481                	li	s1,0
    50201306:	b5d5                	j	502011ea <main+0x1b8>
    50201308:	502007b7          	lui	a5,0x50200
    5020130c:	1fe79583          	lh	a1,510(a5) # 502001fe <_start-0xe02>
    50201310:	52000637          	lui	a2,0x52000
    50201314:	00000317          	auipc	t1,0x0
    50201318:	07630313          	addi	t1,t1,118 # 5020138a <port_write>
    5020131c:	00000897          	auipc	a7,0x0
    50201320:	05a88893          	addi	a7,a7,90 # 50201376 <port_write_ch>
    50201324:	00000817          	auipc	a6,0x0
    50201328:	07a80813          	addi	a6,a6,122 # 5020139e <port_read_ch>
    5020132c:	00000517          	auipc	a0,0x0
    50201330:	09450513          	addi	a0,a0,148 # 502013c0 <sd_read>
    50201334:	f0663023          	sd	t1,-256(a2) # 51ffff00 <__BSS_END__+0x1dfe440>
    50201338:	f1163423          	sd	a7,-248(a2)
    5020133c:	f1063823          	sd	a6,-240(a2)
    50201340:	f0a63c23          	sd	a0,-232(a2)
    50201344:	0005879b          	sext.w	a5,a1
    50201348:	00000717          	auipc	a4,0x0
    5020134c:	52b72c23          	sw	a1,1336(a4) # 50201880 <tasknum>
    50201350:	4b85                	li	s7,1
    50201352:	d6f040e3          	bgtz	a5,502010b2 <main+0x80>
    50201356:	07400793          	li	a5,116
    5020135a:	bbe5                	j	50201152 <main+0x120>
    5020135c:	06600793          	li	a5,102
    50201360:	bbcd                	j	50201152 <main+0x120>

0000000050201362 <bios_putstr>:
    50201362:	520007b7          	lui	a5,0x52000
    50201366:	f0078793          	addi	a5,a5,-256 # 51ffff00 <__BSS_END__+0x1dfe440>
    5020136a:	639c                	ld	a5,0(a5)
    5020136c:	4701                	li	a4,0
    5020136e:	4681                	li	a3,0
    50201370:	4601                	li	a2,0
    50201372:	4581                	li	a1,0
    50201374:	8782                	jr	a5

0000000050201376 <port_write_ch>:
    50201376:	50150337          	lui	t1,0x50150
    5020137a:	4885                	li	a7,1
    5020137c:	4801                	li	a6,0
    5020137e:	4781                	li	a5,0
    50201380:	4701                	li	a4,0
    50201382:	4681                	li	a3,0
    50201384:	4601                	li	a2,0
    50201386:	4581                	li	a1,0
    50201388:	8302                	jr	t1

000000005020138a <port_write>:
    5020138a:	50150337          	lui	t1,0x50150
    5020138e:	48a5                	li	a7,9
    50201390:	4801                	li	a6,0
    50201392:	4781                	li	a5,0
    50201394:	4701                	li	a4,0
    50201396:	4681                	li	a3,0
    50201398:	4601                	li	a2,0
    5020139a:	4581                	li	a1,0
    5020139c:	8302                	jr	t1

000000005020139e <port_read_ch>:
    5020139e:	1141                	addi	sp,sp,-16
    502013a0:	e406                	sd	ra,8(sp)
    502013a2:	50150337          	lui	t1,0x50150
    502013a6:	4889                	li	a7,2
    502013a8:	4801                	li	a6,0
    502013aa:	4781                	li	a5,0
    502013ac:	4701                	li	a4,0
    502013ae:	4681                	li	a3,0
    502013b0:	4601                	li	a2,0
    502013b2:	4581                	li	a1,0
    502013b4:	4501                	li	a0,0
    502013b6:	9302                	jalr	t1
    502013b8:	60a2                	ld	ra,8(sp)
    502013ba:	2501                	sext.w	a0,a0
    502013bc:	0141                	addi	sp,sp,16
    502013be:	8082                	ret

00000000502013c0 <sd_read>:
    502013c0:	1141                	addi	sp,sp,-16
    502013c2:	1502                	slli	a0,a0,0x20
    502013c4:	1582                	slli	a1,a1,0x20
    502013c6:	1602                	slli	a2,a2,0x20
    502013c8:	e406                	sd	ra,8(sp)
    502013ca:	9101                	srli	a0,a0,0x20
    502013cc:	9181                	srli	a1,a1,0x20
    502013ce:	9201                	srli	a2,a2,0x20
    502013d0:	50150337          	lui	t1,0x50150
    502013d4:	48ad                	li	a7,11
    502013d6:	4801                	li	a6,0
    502013d8:	4781                	li	a5,0
    502013da:	4701                	li	a4,0
    502013dc:	4681                	li	a3,0
    502013de:	9302                	jalr	t1
    502013e0:	60a2                	ld	ra,8(sp)
    502013e2:	2501                	sext.w	a0,a0
    502013e4:	0141                	addi	sp,sp,16
    502013e6:	8082                	ret

00000000502013e8 <sd_write>:
    502013e8:	1141                	addi	sp,sp,-16
    502013ea:	1502                	slli	a0,a0,0x20
    502013ec:	1582                	slli	a1,a1,0x20
    502013ee:	1602                	slli	a2,a2,0x20
    502013f0:	e406                	sd	ra,8(sp)
    502013f2:	9101                	srli	a0,a0,0x20
    502013f4:	9181                	srli	a1,a1,0x20
    502013f6:	9201                	srli	a2,a2,0x20
    502013f8:	50150337          	lui	t1,0x50150
    502013fc:	48a9                	li	a7,10
    502013fe:	4801                	li	a6,0
    50201400:	4781                	li	a5,0
    50201402:	4701                	li	a4,0
    50201404:	4681                	li	a3,0
    50201406:	9302                	jalr	t1
    50201408:	60a2                	ld	ra,8(sp)
    5020140a:	2501                	sext.w	a0,a0
    5020140c:	0141                	addi	sp,sp,16
    5020140e:	8082                	ret

0000000050201410 <load_task_img>:
    50201410:	1141                	addi	sp,sp,-16
    50201412:	e022                	sd	s0,0(sp)
    50201414:	51ff07b7          	lui	a5,0x51ff0
    50201418:	01051413          	slli	s0,a0,0x10
    5020141c:	9c3d                	addw	s0,s0,a5
    5020141e:	0045161b          	slliw	a2,a0,0x4
    50201422:	520007b7          	lui	a5,0x52000
    50201426:	9e09                	subw	a2,a2,a0
    50201428:	f1878793          	addi	a5,a5,-232 # 51ffff18 <__BSS_END__+0x1dfe458>
    5020142c:	639c                	ld	a5,0(a5)
    5020142e:	2605                	addiw	a2,a2,1
    50201430:	02041513          	slli	a0,s0,0x20
    50201434:	1602                	slli	a2,a2,0x20
    50201436:	e406                	sd	ra,8(sp)
    50201438:	9101                	srli	a0,a0,0x20
    5020143a:	9201                	srli	a2,a2,0x20
    5020143c:	4701                	li	a4,0
    5020143e:	4681                	li	a3,0
    50201440:	45bd                	li	a1,15
    50201442:	9782                	jalr	a5
    50201444:	60a2                	ld	ra,8(sp)
    50201446:	8522                	mv	a0,s0
    50201448:	6402                	ld	s0,0(sp)
    5020144a:	0141                	addi	sp,sp,16
    5020144c:	8082                	ret

000000005020144e <memcpy>:
    5020144e:	ce01                	beqz	a2,50201466 <memcpy+0x18>
    50201450:	1602                	slli	a2,a2,0x20
    50201452:	9201                	srli	a2,a2,0x20
    50201454:	962a                	add	a2,a2,a0
    50201456:	0005c783          	lbu	a5,0(a1)
    5020145a:	0505                	addi	a0,a0,1
    5020145c:	0585                	addi	a1,a1,1
    5020145e:	fef50fa3          	sb	a5,-1(a0)
    50201462:	fec51ae3          	bne	a0,a2,50201456 <memcpy+0x8>
    50201466:	8082                	ret

0000000050201468 <memset>:
    50201468:	ca09                	beqz	a2,5020147a <memset+0x12>
    5020146a:	1602                	slli	a2,a2,0x20
    5020146c:	9201                	srli	a2,a2,0x20
    5020146e:	962a                	add	a2,a2,a0
    50201470:	0505                	addi	a0,a0,1
    50201472:	feb50fa3          	sb	a1,-1(a0)
    50201476:	fec51de3          	bne	a0,a2,50201470 <memset+0x8>
    5020147a:	8082                	ret

000000005020147c <bzero>:
    5020147c:	c989                	beqz	a1,5020148e <bzero+0x12>
    5020147e:	1582                	slli	a1,a1,0x20
    50201480:	9181                	srli	a1,a1,0x20
    50201482:	95aa                	add	a1,a1,a0
    50201484:	0505                	addi	a0,a0,1
    50201486:	fe050fa3          	sb	zero,-1(a0)
    5020148a:	feb51de3          	bne	a0,a1,50201484 <bzero+0x8>
    5020148e:	8082                	ret

0000000050201490 <strlen>:
    50201490:	00054783          	lbu	a5,0(a0)
    50201494:	cb99                	beqz	a5,502014aa <strlen+0x1a>
    50201496:	00150793          	addi	a5,a0,1
    5020149a:	86be                	mv	a3,a5
    5020149c:	0007c703          	lbu	a4,0(a5)
    502014a0:	0785                	addi	a5,a5,1
    502014a2:	ff65                	bnez	a4,5020149a <strlen+0xa>
    502014a4:	40a6853b          	subw	a0,a3,a0
    502014a8:	8082                	ret
    502014aa:	4501                	li	a0,0
    502014ac:	8082                	ret

00000000502014ae <strcmp>:
    502014ae:	00054703          	lbu	a4,0(a0)
    502014b2:	eb01                	bnez	a4,502014c2 <strcmp+0x14>
    502014b4:	a025                	j	502014dc <strcmp+0x2e>
    502014b6:	00e79b63          	bne	a5,a4,502014cc <strcmp+0x1e>
    502014ba:	00054703          	lbu	a4,0(a0)
    502014be:	cb11                	beqz	a4,502014d2 <strcmp+0x24>
    502014c0:	0585                	addi	a1,a1,1
    502014c2:	0005c783          	lbu	a5,0(a1)
    502014c6:	0505                	addi	a0,a0,1
    502014c8:	f7fd                	bnez	a5,502014b6 <strcmp+0x8>
    502014ca:	2701                	sext.w	a4,a4
    502014cc:	40f7053b          	subw	a0,a4,a5
    502014d0:	8082                	ret
    502014d2:	0015c783          	lbu	a5,1(a1)
    502014d6:	40f7053b          	subw	a0,a4,a5
    502014da:	8082                	ret
    502014dc:	0005c783          	lbu	a5,0(a1)
    502014e0:	b7f5                	j	502014cc <strcmp+0x1e>

00000000502014e2 <strncmp>:
    502014e2:	c21d                	beqz	a2,50201508 <strncmp+0x26>
    502014e4:	1602                	slli	a2,a2,0x20
    502014e6:	9201                	srli	a2,a2,0x20
    502014e8:	962a                	add	a2,a2,a0
    502014ea:	a031                	j	502014f6 <strncmp+0x14>
    502014ec:	0585                	addi	a1,a1,1
    502014ee:	00e79f63          	bne	a5,a4,5020150c <strncmp+0x2a>
    502014f2:	00c50b63          	beq	a0,a2,50201508 <strncmp+0x26>
    502014f6:	00054783          	lbu	a5,0(a0)
    502014fa:	0005c703          	lbu	a4,0(a1)
    502014fe:	0505                	addi	a0,a0,1
    50201500:	f7f5                	bnez	a5,502014ec <strncmp+0xa>
    50201502:	4501                	li	a0,0
    50201504:	9d19                	subw	a0,a0,a4
    50201506:	8082                	ret
    50201508:	4501                	li	a0,0
    5020150a:	8082                	ret
    5020150c:	0007851b          	sext.w	a0,a5
    50201510:	9d19                	subw	a0,a0,a4
    50201512:	8082                	ret

0000000050201514 <strcpy>:
    50201514:	0005c783          	lbu	a5,0(a1)
    50201518:	872a                	mv	a4,a0
    5020151a:	cb81                	beqz	a5,5020152a <strcpy+0x16>
    5020151c:	0585                	addi	a1,a1,1
    5020151e:	00f70023          	sb	a5,0(a4)
    50201522:	0005c783          	lbu	a5,0(a1)
    50201526:	0705                	addi	a4,a4,1
    50201528:	fbf5                	bnez	a5,5020151c <strcpy+0x8>
    5020152a:	00070023          	sb	zero,0(a4)
    5020152e:	8082                	ret

0000000050201530 <strncpy>:
    50201530:	0005c683          	lbu	a3,0(a1)
    50201534:	88b2                	mv	a7,a2
    50201536:	87aa                	mv	a5,a0
    50201538:	c685                	beqz	a3,50201560 <strncpy+0x30>
    5020153a:	fff6081b          	addiw	a6,a2,-1
    5020153e:	0105083b          	addw	a6,a0,a6
    50201542:	9e29                	addw	a2,a2,a0
    50201544:	a039                	j	50201552 <strncpy+0x22>
    50201546:	00d78023          	sb	a3,0(a5)
    5020154a:	0005c683          	lbu	a3,0(a1)
    5020154e:	0785                	addi	a5,a5,1
    50201550:	ca81                	beqz	a3,50201560 <strncpy+0x30>
    50201552:	40f6073b          	subw	a4,a2,a5
    50201556:	0585                	addi	a1,a1,1
    50201558:	40f808bb          	subw	a7,a6,a5
    5020155c:	fee045e3          	bgtz	a4,50201546 <strncpy+0x16>
    50201560:	02089713          	slli	a4,a7,0x20
    50201564:	9301                	srli	a4,a4,0x20
    50201566:	973e                	add	a4,a4,a5
    50201568:	01105863          	blez	a7,50201578 <strncpy+0x48>
    5020156c:	0785                	addi	a5,a5,1
    5020156e:	fe078fa3          	sb	zero,-1(a5)
    50201572:	fef71de3          	bne	a4,a5,5020156c <strncpy+0x3c>
    50201576:	8082                	ret
    50201578:	8082                	ret

000000005020157a <strcat>:
    5020157a:	00054783          	lbu	a5,0(a0)
    5020157e:	c39d                	beqz	a5,502015a4 <strcat+0x2a>
    50201580:	87aa                	mv	a5,a0
    50201582:	0017c703          	lbu	a4,1(a5)
    50201586:	0785                	addi	a5,a5,1
    50201588:	ff6d                	bnez	a4,50201582 <strcat+0x8>
    5020158a:	0005c703          	lbu	a4,0(a1)
    5020158e:	cb01                	beqz	a4,5020159e <strcat+0x24>
    50201590:	0785                	addi	a5,a5,1
    50201592:	0585                	addi	a1,a1,1
    50201594:	fee78fa3          	sb	a4,-1(a5)
    50201598:	0005c703          	lbu	a4,0(a1)
    5020159c:	fb75                	bnez	a4,50201590 <strcat+0x16>
    5020159e:	00078023          	sb	zero,0(a5)
    502015a2:	8082                	ret
    502015a4:	87aa                	mv	a5,a0
    502015a6:	bfcd                	j	50201598 <strcat+0x1e>
