
build/main:     file format elf64-littleriscv


Disassembly of section .text:

ffffffc050202000 <_boot>:
ffffffc050202000:	10401073          	csrw	sie,zero
ffffffc050202004:	14401073          	csrw	sip,zero
ffffffc050202008:	50202137          	lui	sp,0x50202
ffffffc05020200c:	f1402573          	csrr	a0,mhartid
ffffffc050202010:	076000ef          	jal	ffffffc050202086 <boot_kernel>

ffffffc050202014 <loop>:
ffffffc050202014:	10500073          	wfi
ffffffc050202018:	bff5                	j	ffffffc050202014 <loop>

ffffffc05020201a <map_page.constprop.0>:
ffffffc05020201a:	0566                	slli	a0,a0,0x19
ffffffc05020201c:	03755693          	srli	a3,a0,0x37
ffffffc050202020:	510007b7          	lui	a5,0x51000
ffffffc050202024:	068e                	slli	a3,a3,0x3
ffffffc050202026:	96be                	add	a3,a3,a5
ffffffc050202028:	629c                	ld	a5,0(a3)
ffffffc05020202a:	00951713          	slli	a4,a0,0x9
ffffffc05020202e:	03775513          	srli	a0,a4,0x37
ffffffc050202032:	eb9d                	bnez	a5,ffffffc050202068 <map_page.constprop.0+0x4e>
ffffffc050202034:	00005817          	auipc	a6,0x5
ffffffc050202038:	a5c83803          	ld	a6,-1444(a6) # ffffffc050206a90 <pg_base.0>
ffffffc05020203c:	6705                	lui	a4,0x1
ffffffc05020203e:	77fd                	lui	a5,0xfffff
ffffffc050202040:	983a                	add	a6,a6,a4
ffffffc050202042:	00c85613          	srli	a2,a6,0xc
ffffffc050202046:	062a                	slli	a2,a2,0xa
ffffffc050202048:	00166613          	ori	a2,a2,1
ffffffc05020204c:	00f877b3          	and	a5,a6,a5
ffffffc050202050:	00005897          	auipc	a7,0x5
ffffffc050202054:	a508b023          	sd	a6,-1472(a7) # ffffffc050206a90 <pg_base.0>
ffffffc050202058:	e290                	sd	a2,0(a3)
ffffffc05020205a:	973e                	add	a4,a4,a5
ffffffc05020205c:	0007b023          	sd	zero,0(a5) # fffffffffffff000 <__BSS_END__+0x3fafdf31f8>
ffffffc050202060:	07a1                	addi	a5,a5,8
ffffffc050202062:	fef71de3          	bne	a4,a5,ffffffc05020205c <map_page.constprop.0+0x42>
ffffffc050202066:	629c                	ld	a5,0(a3)
ffffffc050202068:	83a9                	srli	a5,a5,0xa
ffffffc05020206a:	07b2                	slli	a5,a5,0xc
ffffffc05020206c:	050e                	slli	a0,a0,0x3
ffffffc05020206e:	97aa                	add	a5,a5,a0
ffffffc050202070:	6398                	ld	a4,0(a5)
ffffffc050202072:	00c5d693          	srli	a3,a1,0xc
ffffffc050202076:	06aa                	slli	a3,a3,0xa
ffffffc050202078:	3ff77713          	andi	a4,a4,1023
ffffffc05020207c:	8f55                	or	a4,a4,a3
ffffffc05020207e:	0cf76713          	ori	a4,a4,207
ffffffc050202082:	e398                	sd	a4,0(a5)
ffffffc050202084:	8082                	ret

ffffffc050202086 <boot_kernel>:
ffffffc050202086:	7179                	addi	sp,sp,-48
ffffffc050202088:	e052                	sd	s4,0(sp)
ffffffc05020208a:	f406                	sd	ra,40(sp)
ffffffc05020208c:	8a2a                	mv	s4,a0
ffffffc05020208e:	c915                	beqz	a0,ffffffc0502020c2 <boot_kernel+0x3c>
ffffffc050202090:	57fd                	li	a5,-1
ffffffc050202092:	17ce                	slli	a5,a5,0x33
ffffffc050202094:	05178793          	addi	a5,a5,81
ffffffc050202098:	07b2                	slli	a5,a5,0xc
ffffffc05020209a:	12000073          	sfence.vma
ffffffc05020209e:	18079073          	csrw	satp,a5
ffffffc0502020a2:	12000073          	sfence.vma
ffffffc0502020a6:	577d                	li	a4,-1
ffffffc0502020a8:	171a                	slli	a4,a4,0x26
ffffffc0502020aa:	00000797          	auipc	a5,0x0
ffffffc0502020ae:	09278793          	addi	a5,a5,146 # ffffffc05020213c <_start>
ffffffc0502020b2:	8552                	mv	a0,s4
ffffffc0502020b4:	97ba                	add	a5,a5,a4
ffffffc0502020b6:	9782                	jalr	a5
ffffffc0502020b8:	70a2                	ld	ra,40(sp)
ffffffc0502020ba:	6a02                	ld	s4,0(sp)
ffffffc0502020bc:	4501                	li	a0,0
ffffffc0502020be:	6145                	addi	sp,sp,48
ffffffc0502020c0:	8082                	ret
ffffffc0502020c2:	f022                	sd	s0,32(sp)
ffffffc0502020c4:	ec26                	sd	s1,24(sp)
ffffffc0502020c6:	e84a                	sd	s2,16(sp)
ffffffc0502020c8:	e44e                	sd	s3,8(sp)
ffffffc0502020ca:	510007b7          	lui	a5,0x51000
ffffffc0502020ce:	51001737          	lui	a4,0x51001
ffffffc0502020d2:	0007b023          	sd	zero,0(a5) # 51000000 <boot_stack_top_base+0xdfe000>
ffffffc0502020d6:	07a1                	addi	a5,a5,8
ffffffc0502020d8:	fee79de3          	bne	a5,a4,ffffffc0502020d2 <boot_kernel+0x4c>
ffffffc0502020dc:	c0500413          	li	s0,-1019
ffffffc0502020e0:	4905                	li	s2,1
ffffffc0502020e2:	e0300493          	li	s1,-509
ffffffc0502020e6:	0472                	slli	s0,s0,0x1c
ffffffc0502020e8:	191a                	slli	s2,s2,0x26
ffffffc0502020ea:	04f6                	slli	s1,s1,0x1d
ffffffc0502020ec:	002009b7          	lui	s3,0x200
ffffffc0502020f0:	012405b3          	add	a1,s0,s2
ffffffc0502020f4:	8522                	mv	a0,s0
ffffffc0502020f6:	944e                	add	s0,s0,s3
ffffffc0502020f8:	f23ff0ef          	jal	ffffffc05020201a <map_page.constprop.0>
ffffffc0502020fc:	fe941ae3          	bne	s0,s1,ffffffc0502020f0 <boot_kernel+0x6a>
ffffffc050202100:	50000437          	lui	s0,0x50000
ffffffc050202104:	00200937          	lui	s2,0x200
ffffffc050202108:	510004b7          	lui	s1,0x51000
ffffffc05020210c:	85a2                	mv	a1,s0
ffffffc05020210e:	8522                	mv	a0,s0
ffffffc050202110:	944a                	add	s0,s0,s2
ffffffc050202112:	f09ff0ef          	jal	ffffffc05020201a <map_page.constprop.0>
ffffffc050202116:	fe941be3          	bne	s0,s1,ffffffc05020210c <boot_kernel+0x86>
ffffffc05020211a:	57fd                	li	a5,-1
ffffffc05020211c:	17ce                	slli	a5,a5,0x33
ffffffc05020211e:	05178793          	addi	a5,a5,81
ffffffc050202122:	07b2                	slli	a5,a5,0xc
ffffffc050202124:	12000073          	sfence.vma
ffffffc050202128:	18079073          	csrw	satp,a5
ffffffc05020212c:	12000073          	sfence.vma
ffffffc050202130:	7402                	ld	s0,32(sp)
ffffffc050202132:	64e2                	ld	s1,24(sp)
ffffffc050202134:	6942                	ld	s2,16(sp)
ffffffc050202136:	69a2                	ld	s3,8(sp)
ffffffc050202138:	b7bd                	j	ffffffc0502020a6 <boot_kernel+0x20>

Disassembly of section .text:

ffffffc05020213c <_start>:
ffffffc05020213c:	10401073          	csrw	sie,zero
ffffffc050202140:	14401073          	csrw	sip,zero
ffffffc050202144:	f1402573          	csrr	a0,mhartid
ffffffc050202148:	e90d                	bnez	a0,ffffffc05020217a <secondary_start>
ffffffc05020214a:	00005297          	auipc	t0,0x5
ffffffc05020214e:	95e28293          	addi	t0,t0,-1698 # ffffffc050206aa8 <pcb_num>
ffffffc050202152:	0000a317          	auipc	t1,0xa
ffffffc050202156:	cb630313          	addi	t1,t1,-842 # ffffffc05020be08 <__BSS_END__>

ffffffc05020215a <clear_bss>:
ffffffc05020215a:	0002a023          	sw	zero,0(t0)
ffffffc05020215e:	0291                	addi	t0,t0,4
ffffffc050202160:	fe62cde3          	blt	t0,t1,ffffffc05020215a <clear_bss>

ffffffc050202164 <end_clear_bss>:
ffffffc050202164:	00008217          	auipc	tp,0x8
ffffffc050202168:	bd420213          	addi	tp,tp,-1068 # ffffffc050209d38 <pid0_pcb>
ffffffc05020216c:	fffc0137          	lui	sp,0xfffc0
ffffffc050202170:	5051011b          	addiw	sp,sp,1285 # fffffffffffc0505 <__BSS_END__+0x3fafdb46fd>
ffffffc050202174:	0152                	slli	sp,sp,0x14
ffffffc050202176:	018000ef          	jal	ffffffc05020218e <main>

ffffffc05020217a <secondary_start>:
ffffffc05020217a:	fc050137          	lui	sp,0xfc050
ffffffc05020217e:	5011011b          	addiw	sp,sp,1281 # fffffffffc050501 <__BSS_END__+0x3fabe446f9>
ffffffc050202182:	0132                	slli	sp,sp,0xc
ffffffc050202184:	00a000ef          	jal	ffffffc05020218e <main>

ffffffc050202188 <loop>:
ffffffc050202188:	10500073          	wfi
ffffffc05020218c:	bff5                	j	ffffffc050202188 <loop>

ffffffc05020218e <main>:
ffffffc05020218e:	7175                	addi	sp,sp,-144
ffffffc050202190:	fca6                	sd	s1,120(sp)
ffffffc050202192:	e506                	sd	ra,136(sp)
ffffffc050202194:	660000ef          	jal	ffffffc0502027f4 <get_current_cpu_id>
ffffffc050202198:	0005049b          	sext.w	s1,a0
ffffffc05020219c:	4a049c63          	bnez	s1,ffffffc050202654 <main+0x4c6>
ffffffc0502021a0:	e122                	sd	s0,128(sp)
ffffffc0502021a2:	f8ca                	sd	s2,112(sp)
ffffffc0502021a4:	f4ce                	sd	s3,104(sp)
ffffffc0502021a6:	f0d2                	sd	s4,96(sp)
ffffffc0502021a8:	ecd6                	sd	s5,88(sp)
ffffffc0502021aa:	e8da                	sd	s6,80(sp)
ffffffc0502021ac:	e4de                	sd	s7,72(sp)
ffffffc0502021ae:	e0e2                	sd	s8,64(sp)
ffffffc0502021b0:	fc66                	sd	s9,56(sp)
ffffffc0502021b2:	11a010ef          	jal	ffffffc0502032cc <init_locks>
ffffffc0502021b6:	0bf020ef          	jal	ffffffc050204a74 <smp_init>
ffffffc0502021ba:	0cd020ef          	jal	ffffffc050204a86 <lock_kernel>
ffffffc0502021be:	66e000ef          	jal	ffffffc05020282c <init_jmptab>
ffffffc0502021c2:	e02817b7          	lui	a5,0xe0281
ffffffc0502021c6:	07a6                	slli	a5,a5,0x9
ffffffc0502021c8:	1fe79703          	lh	a4,510(a5) # ffffffffe02811fe <__BSS_END__+0x3f900753f6>
ffffffc0502021cc:	02800793          	li	a5,40
ffffffc0502021d0:	fe0296b7          	lui	a3,0xfe029
ffffffc0502021d4:	02f707b3          	mul	a5,a4,a5
ffffffc0502021d8:	00005617          	auipc	a2,0x5
ffffffc0502021dc:	8ce62a23          	sw	a4,-1836(a2) # ffffffc050206aac <tasknum>
ffffffc0502021e0:	e0281737          	lui	a4,0xe0281
ffffffc0502021e4:	0726                	slli	a4,a4,0x9
ffffffc0502021e6:	06b6                	slli	a3,a3,0xd
ffffffc0502021e8:	1f870713          	addi	a4,a4,504 # ffffffffe02811f8 <__BSS_END__+0x3f900753f0>
ffffffc0502021ec:	00076603          	lwu	a2,0(a4)
ffffffc0502021f0:	f186b803          	ld	a6,-232(a3) # fffffffffe028f18 <__BSS_END__+0x3fade1d110>
ffffffc0502021f4:	00005517          	auipc	a0,0x5
ffffffc0502021f8:	8e450513          	addi	a0,a0,-1820 # ffffffc050206ad8 <tasks>
ffffffc0502021fc:	1502                	slli	a0,a0,0x20
ffffffc0502021fe:	1f87f593          	andi	a1,a5,504
ffffffc050202202:	00b035b3          	snez	a1,a1
ffffffc050202206:	83a5                	srli	a5,a5,0x9
ffffffc050202208:	9dbd                	addw	a1,a1,a5
ffffffc05020220a:	1582                	slli	a1,a1,0x20
ffffffc05020220c:	4701                	li	a4,0
ffffffc05020220e:	9181                	srli	a1,a1,0x20
ffffffc050202210:	9101                	srli	a0,a0,0x20
ffffffc050202212:	4681                	li	a3,0
ffffffc050202214:	9802                	jalr	a6
ffffffc050202216:	00005797          	auipc	a5,0x5
ffffffc05020221a:	c4a78793          	addi	a5,a5,-950 # ffffffc050206e60 <buf>
ffffffc05020221e:	873e                	mv	a4,a5
ffffffc050202220:	00005617          	auipc	a2,0x5
ffffffc050202224:	c7260613          	addi	a2,a2,-910 # ffffffc050206e92 <buf+0x32>
ffffffc050202228:	a019                	j	ffffffc05020222e <main+0xa0>
ffffffc05020222a:	44c70f63          	beq	a4,a2,ffffffc050202688 <main+0x4fa>
ffffffc05020222e:	00074683          	lbu	a3,0(a4)
ffffffc050202232:	0705                	addi	a4,a4,1
ffffffc050202234:	dafd                	beqz	a3,ffffffc05020222a <main+0x9c>
ffffffc050202236:	06600713          	li	a4,102
ffffffc05020223a:	00005697          	auipc	a3,0x5
ffffffc05020223e:	85e6a683          	lw	a3,-1954(a3) # ffffffc050206a98 <version>
ffffffc050202242:	00e10023          	sb	a4,0(sp)
ffffffc050202246:	00003717          	auipc	a4,0x3
ffffffc05020224a:	0ea70713          	addi	a4,a4,234 # ffffffc050205330 <strcat+0x186>
ffffffc05020224e:	6308                	ld	a0,0(a4)
ffffffc050202250:	670c                	ld	a1,8(a4)
ffffffc050202252:	6b10                	ld	a2,16(a4)
ffffffc050202254:	00003717          	auipc	a4,0x3
ffffffc050202258:	0f475703          	lhu	a4,244(a4) # ffffffc050205348 <strcat+0x19e>
ffffffc05020225c:	0306869b          	addiw	a3,a3,48
ffffffc050202260:	e82a                	sd	a0,16(sp)
ffffffc050202262:	ec2e                	sd	a1,24(sp)
ffffffc050202264:	f032                	sd	a2,32(sp)
ffffffc050202266:	02e11423          	sh	a4,40(sp)
ffffffc05020226a:	00d100a3          	sb	a3,1(sp)
ffffffc05020226e:	0818                	addi	a4,sp,16
ffffffc050202270:	00005517          	auipc	a0,0x5
ffffffc050202274:	c0a50513          	addi	a0,a0,-1014 # ffffffc050206e7a <buf+0x1a>
ffffffc050202278:	4601                	li	a2,0
ffffffc05020227a:	05f00593          	li	a1,95
ffffffc05020227e:	00074683          	lbu	a3,0(a4)
ffffffc050202282:	0705                	addi	a4,a4,1
ffffffc050202284:	00d78023          	sb	a3,0(a5)
ffffffc050202288:	00b69963          	bne	a3,a1,ffffffc05020229a <main+0x10c>
ffffffc05020228c:	002606b3          	add	a3,a2,sp
ffffffc050202290:	0006c683          	lbu	a3,0(a3)
ffffffc050202294:	2605                	addiw	a2,a2,1
ffffffc050202296:	00d78023          	sb	a3,0(a5)
ffffffc05020229a:	0785                	addi	a5,a5,1
ffffffc05020229c:	fea791e3          	bne	a5,a0,ffffffc05020227e <main+0xf0>
ffffffc0502022a0:	00003517          	auipc	a0,0x3
ffffffc0502022a4:	fa050513          	addi	a0,a0,-96 # ffffffc050205240 <strcat+0x96>
ffffffc0502022a8:	56e000ef          	jal	ffffffc050202816 <bios_putstr>
ffffffc0502022ac:	00005517          	auipc	a0,0x5
ffffffc0502022b0:	bb450513          	addi	a0,a0,-1100 # ffffffc050206e60 <buf>
ffffffc0502022b4:	00008a97          	auipc	s5,0x8
ffffffc0502022b8:	a84a8a93          	addi	s5,s5,-1404 # ffffffc050209d38 <pid0_pcb>
ffffffc0502022bc:	fc051a37          	lui	s4,0xfc051
ffffffc0502022c0:	556000ef          	jal	ffffffc050202816 <bios_putstr>
ffffffc0502022c4:	8456                	mv	s0,s5
ffffffc0502022c6:	00004797          	auipc	a5,0x4
ffffffc0502022ca:	7e07a123          	sw	zero,2018(a5) # ffffffc050206aa8 <pcb_num>
ffffffc0502022ce:	0a32                	slli	s4,s4,0xc
ffffffc0502022d0:	00008997          	auipc	s3,0x8
ffffffc0502022d4:	c2898993          	addi	s3,s3,-984 # ffffffc050209ef8 <pid0_stack>
ffffffc0502022d8:	4c85                	li	s9,1
ffffffc0502022da:	6c05                	lui	s8,0x1
ffffffc0502022dc:	4b8d                	li	s7,3
ffffffc0502022de:	4b09                	li	s6,2
ffffffc0502022e0:	4505                	li	a0,1
ffffffc0502022e2:	1db010ef          	jal	ffffffc050203cbc <allocPage>
ffffffc0502022e6:	01850933          	add	s2,a0,s8
ffffffc0502022ea:	00003597          	auipc	a1,0x3
ffffffc0502022ee:	f6658593          	addi	a1,a1,-154 # ffffffc050205250 <strcat+0xa6>
ffffffc0502022f2:	d864                	sw	s1,116(s0)
ffffffc0502022f4:	06040513          	addi	a0,s0,96 # 50000060 <boot_stack_top_base-0x201fa0>
ffffffc0502022f8:	04042023          	sw	zero,64(s0)
ffffffc0502022fc:	05942223          	sw	s9,68(s0)
ffffffc050202300:	04043423          	sd	zero,72(s0)
ffffffc050202304:	07742823          	sw	s7,112(s0)
ffffffc050202308:	0d443823          	sd	s4,208(s0)
ffffffc05020230c:	02043c23          	sd	zero,56(s0)
ffffffc050202310:	00043423          	sd	zero,8(s0)
ffffffc050202314:	03243823          	sd	s2,48(s0)
ffffffc050202318:	01243023          	sd	s2,0(s0)
ffffffc05020231c:	629020ef          	jal	ffffffc050205144 <strcpy>
ffffffc050202320:	02040513          	addi	a0,s0,32
ffffffc050202324:	6e6020ef          	jal	ffffffc050204a0a <init_list_head>
ffffffc050202328:	640c                	ld	a1,8(s0)
ffffffc05020232a:	0129b023          	sd	s2,0(s3)
ffffffc05020232e:	86a2                	mv	a3,s0
ffffffc050202330:	00043c23          	sd	zero,24(s0)
ffffffc050202334:	00043823          	sd	zero,16(s0)
ffffffc050202338:	854a                	mv	a0,s2
ffffffc05020233a:	4601                	li	a2,0
ffffffc05020233c:	702000ef          	jal	ffffffc050202a3e <init_pcb_stack>
ffffffc050202340:	0014879b          	addiw	a5,s1,1 # 51000001 <boot_stack_top_base+0xdfe001>
ffffffc050202344:	0d840413          	addi	s0,s0,216
ffffffc050202348:	09a1                	addi	s3,s3,8
ffffffc05020234a:	4485                	li	s1,1
ffffffc05020234c:	f9679ae3          	bne	a5,s6,ffffffc0502022e0 <main+0x152>
ffffffc050202350:	00008797          	auipc	a5,0x8
ffffffc050202354:	bf878793          	addi	a5,a5,-1032 # ffffffc050209f48 <pcb+0x40>
ffffffc050202358:	00009697          	auipc	a3,0x9
ffffffc05020235c:	6f068693          	addi	a3,a3,1776 # ffffffc05020ba48 <syscall+0x40>
ffffffc050202360:	470d                	li	a4,3
ffffffc050202362:	0007a023          	sw	zero,0(a5)
ffffffc050202366:	c3d8                	sw	a4,4(a5)
ffffffc050202368:	0207bc23          	sd	zero,56(a5)
ffffffc05020236c:	db98                	sw	a4,48(a5)
ffffffc05020236e:	0d878793          	addi	a5,a5,216
ffffffc050202372:	fed798e3          	bne	a5,a3,ffffffc050202362 <main+0x1d4>
ffffffc050202376:	00008797          	auipc	a5,0x8
ffffffc05020237a:	b757b923          	sd	s5,-1166(a5) # ffffffc050209ee8 <current_running>
ffffffc05020237e:	00008797          	auipc	a5,0x8
ffffffc050202382:	a9278793          	addi	a5,a5,-1390 # ffffffc050209e10 <pid0_pcb+0xd8>
ffffffc050202386:	0030                	addi	a2,sp,8
ffffffc050202388:	4585                	li	a1,1
ffffffc05020238a:	00003517          	auipc	a0,0x3
ffffffc05020238e:	ece50513          	addi	a0,a0,-306 # ffffffc050205258 <strcat+0xae>
ffffffc050202392:	00008717          	auipc	a4,0x8
ffffffc050202396:	b4f73f23          	sd	a5,-1186(a4) # ffffffc050209ef0 <current_running+0x8>
ffffffc05020239a:	e42a                	sd	a0,8(sp)
ffffffc05020239c:	32c020ef          	jal	ffffffc0502046c8 <do_exec>
ffffffc0502023a0:	00003517          	auipc	a0,0x3
ffffffc0502023a4:	ec050513          	addi	a0,a0,-320 # ffffffc050205260 <strcat+0xb6>
ffffffc0502023a8:	453020ef          	jal	ffffffc050204ffa <printk>
ffffffc0502023ac:	fe0297b7          	lui	a5,0xfe029
ffffffc0502023b0:	07b6                	slli	a5,a5,0xd
ffffffc0502023b2:	f3878793          	addi	a5,a5,-200 # fffffffffe028f38 <__BSS_END__+0x3fade1d130>
ffffffc0502023b6:	639c                	ld	a5,0(a5)
ffffffc0502023b8:	4701                	li	a4,0
ffffffc0502023ba:	4681                	li	a3,0
ffffffc0502023bc:	4601                	li	a2,0
ffffffc0502023be:	4581                	li	a1,0
ffffffc0502023c0:	4501                	li	a0,0
ffffffc0502023c2:	9782                	jalr	a5
ffffffc0502023c4:	00004797          	auipc	a5,0x4
ffffffc0502023c8:	6ea7be23          	sd	a0,1788(a5) # ffffffc050206ac0 <time_base>
ffffffc0502023cc:	701000ef          	jal	ffffffc0502032cc <init_locks>
ffffffc0502023d0:	00003517          	auipc	a0,0x3
ffffffc0502023d4:	eb850513          	addi	a0,a0,-328 # ffffffc050205288 <strcat+0xde>
ffffffc0502023d8:	423020ef          	jal	ffffffc050204ffa <printk>
ffffffc0502023dc:	493000ef          	jal	ffffffc05020306e <init_exception>
ffffffc0502023e0:	00003517          	auipc	a0,0x3
ffffffc0502023e4:	ee050513          	addi	a0,a0,-288 # ffffffc0502052c0 <strcat+0x116>
ffffffc0502023e8:	413020ef          	jal	ffffffc050204ffa <printk>
ffffffc0502023ec:	00002617          	auipc	a2,0x2
ffffffc0502023f0:	cc460613          	addi	a2,a2,-828 # ffffffc0502040b0 <do_sleep>
ffffffc0502023f4:	00002697          	auipc	a3,0x2
ffffffc0502023f8:	bb268693          	addi	a3,a3,-1102 # ffffffc050203fa6 <do_scheduler>
ffffffc0502023fc:	00001717          	auipc	a4,0x1
ffffffc050202400:	98c70713          	addi	a4,a4,-1652 # ffffffc050202d88 <screen_write>
ffffffc050202404:	00000797          	auipc	a5,0x0
ffffffc050202408:	7a878793          	addi	a5,a5,1960 # ffffffc050202bac <screen_move_cursor>
ffffffc05020240c:	00009397          	auipc	t2,0x9
ffffffc050202410:	60c3b623          	sd	a2,1548(t2) # ffffffc05020ba18 <syscall+0x10>
ffffffc050202414:	00009397          	auipc	t2,0x9
ffffffc050202418:	62d3b623          	sd	a3,1580(t2) # ffffffc05020ba40 <syscall+0x38>
ffffffc05020241c:	00009397          	auipc	t2,0x9
ffffffc050202420:	68e3b623          	sd	a4,1676(t2) # ffffffc05020baa8 <syscall+0xa0>
ffffffc050202424:	00009397          	auipc	t2,0x9
ffffffc050202428:	68f3ba23          	sd	a5,1684(t2) # ffffffc05020bab8 <syscall+0xb0>
ffffffc05020242c:	00000297          	auipc	t0,0x0
ffffffc050202430:	7ea28293          	addi	t0,t0,2026 # ffffffc050202c16 <screen_reflush>
ffffffc050202434:	00002f97          	auipc	t6,0x2
ffffffc050202438:	60af8f93          	addi	t6,t6,1546 # ffffffc050204a3e <get_time_base>
ffffffc05020243c:	00002f17          	auipc	t5,0x2
ffffffc050202440:	5daf0f13          	addi	t5,t5,1498 # ffffffc050204a16 <get_ticks>
ffffffc050202444:	00001e97          	auipc	t4,0x1
ffffffc050202448:	f02e8e93          	addi	t4,t4,-254 # ffffffc050203346 <do_mutex_lock_init>
ffffffc05020244c:	00001e17          	auipc	t3,0x1
ffffffc050202450:	f66e0e13          	addi	t3,t3,-154 # ffffffc0502033b2 <do_mutex_lock_acquire>
ffffffc050202454:	00001317          	auipc	t1,0x1
ffffffc050202458:	f6630313          	addi	t1,t1,-154 # ffffffc0502033ba <do_mutex_lock_release>
ffffffc05020245c:	00002897          	auipc	a7,0x2
ffffffc050202460:	58088893          	addi	a7,a7,1408 # ffffffc0502049dc <set_sched_workload>
ffffffc050202464:	00002817          	auipc	a6,0x2
ffffffc050202468:	26480813          	addi	a6,a6,612 # ffffffc0502046c8 <do_exec>
ffffffc05020246c:	00002517          	auipc	a0,0x2
ffffffc050202470:	ff050513          	addi	a0,a0,-16 # ffffffc05020445c <do_exit>
ffffffc050202474:	00002597          	auipc	a1,0x2
ffffffc050202478:	0a258593          	addi	a1,a1,162 # ffffffc050204516 <do_kill>
ffffffc05020247c:	00002617          	auipc	a2,0x2
ffffffc050202480:	eb860613          	addi	a2,a2,-328 # ffffffc050204334 <do_waitpid>
ffffffc050202484:	00002697          	auipc	a3,0x2
ffffffc050202488:	e0468693          	addi	a3,a3,-508 # ffffffc050204288 <do_process_show>
ffffffc05020248c:	00002717          	auipc	a4,0x2
ffffffc050202490:	21a70713          	addi	a4,a4,538 # ffffffc0502046a6 <do_getpid>
ffffffc050202494:	00001797          	auipc	a5,0x1
ffffffc050202498:	92278793          	addi	a5,a5,-1758 # ffffffc050202db6 <screen_clear>
ffffffc05020249c:	00009397          	auipc	t2,0x9
ffffffc0502024a0:	6253b223          	sd	t0,1572(t2) # ffffffc05020bac0 <syscall+0xb8>
ffffffc0502024a4:	00009397          	auipc	t2,0x9
ffffffc0502024a8:	65f3ba23          	sd	t6,1620(t2) # ffffffc05020baf8 <syscall+0xf0>
ffffffc0502024ac:	00000297          	auipc	t0,0x0
ffffffc0502024b0:	61e28293          	addi	t0,t0,1566 # ffffffc050202aca <port_read_ch>
ffffffc0502024b4:	00001f97          	auipc	t6,0x1
ffffffc0502024b8:	feaf8f93          	addi	t6,t6,-22 # ffffffc05020349e <do_barrier_init>
ffffffc0502024bc:	00009397          	auipc	t2,0x9
ffffffc0502024c0:	65e3b223          	sd	t5,1604(t2) # ffffffc05020bb00 <syscall+0xf8>
ffffffc0502024c4:	00009397          	auipc	t2,0x9
ffffffc0502024c8:	69d3b223          	sd	t4,1668(t2) # ffffffc05020bb48 <syscall+0x140>
ffffffc0502024cc:	00001f17          	auipc	t5,0x1
ffffffc0502024d0:	040f0f13          	addi	t5,t5,64 # ffffffc05020350c <do_barrier_wait>
ffffffc0502024d4:	00001e97          	auipc	t4,0x1
ffffffc0502024d8:	0aee8e93          	addi	t4,t4,174 # ffffffc050203582 <do_barrier_destroy>
ffffffc0502024dc:	00009397          	auipc	t2,0x9
ffffffc0502024e0:	67c3ba23          	sd	t3,1652(t2) # ffffffc05020bb50 <syscall+0x148>
ffffffc0502024e4:	00009397          	auipc	t2,0x9
ffffffc0502024e8:	6663ba23          	sd	t1,1652(t2) # ffffffc05020bb58 <syscall+0x150>
ffffffc0502024ec:	00001e17          	auipc	t3,0x1
ffffffc0502024f0:	118e0e13          	addi	t3,t3,280 # ffffffc050203604 <do_condition_init>
ffffffc0502024f4:	00001317          	auipc	t1,0x1
ffffffc0502024f8:	17630313          	addi	t1,t1,374 # ffffffc05020366a <do_condition_wait>
ffffffc0502024fc:	0000a397          	auipc	t2,0xa
ffffffc050202500:	8113b623          	sd	a7,-2036(t2) # ffffffc05020bd08 <syscall+0x300>
ffffffc050202504:	00009397          	auipc	t2,0x9
ffffffc050202508:	5103b223          	sd	a6,1284(t2) # ffffffc05020ba08 <syscall>
ffffffc05020250c:	00001897          	auipc	a7,0x1
ffffffc050202510:	1d088893          	addi	a7,a7,464 # ffffffc0502036dc <do_condition_signal>
ffffffc050202514:	00001817          	auipc	a6,0x1
ffffffc050202518:	20480813          	addi	a6,a6,516 # ffffffc050203718 <do_condition_broadcast>
ffffffc05020251c:	00009397          	auipc	t2,0x9
ffffffc050202520:	4ea3ba23          	sd	a0,1268(t2) # ffffffc05020ba10 <syscall+0x8>
ffffffc050202524:	00009397          	auipc	t2,0x9
ffffffc050202528:	4eb3be23          	sd	a1,1276(t2) # ffffffc05020ba20 <syscall+0x18>
ffffffc05020252c:	00001517          	auipc	a0,0x1
ffffffc050202530:	22c50513          	addi	a0,a0,556 # ffffffc050203758 <do_condition_destroy>
ffffffc050202534:	00001597          	auipc	a1,0x1
ffffffc050202538:	2da58593          	addi	a1,a1,730 # ffffffc05020380e <do_mbox_open>
ffffffc05020253c:	00009397          	auipc	t2,0x9
ffffffc050202540:	4ec3b623          	sd	a2,1260(t2) # ffffffc05020ba28 <syscall+0x20>
ffffffc050202544:	00009397          	auipc	t2,0x9
ffffffc050202548:	4ed3b623          	sd	a3,1260(t2) # ffffffc05020ba30 <syscall+0x28>
ffffffc05020254c:	00001617          	auipc	a2,0x1
ffffffc050202550:	3b860613          	addi	a2,a2,952 # ffffffc050203904 <do_mbox_close>
ffffffc050202554:	00001697          	auipc	a3,0x1
ffffffc050202558:	44068693          	addi	a3,a3,1088 # ffffffc050203994 <do_mbox_send>
ffffffc05020255c:	00009397          	auipc	t2,0x9
ffffffc050202560:	4ce3be23          	sd	a4,1244(t2) # ffffffc05020ba38 <syscall+0x30>
ffffffc050202564:	00009397          	auipc	t2,0x9
ffffffc050202568:	56f3b223          	sd	a5,1380(t2) # ffffffc05020bac8 <syscall+0xc0>
ffffffc05020256c:	00001717          	auipc	a4,0x1
ffffffc050202570:	56c70713          	addi	a4,a4,1388 # ffffffc050203ad8 <do_mbox_recv>
ffffffc050202574:	00002797          	auipc	a5,0x2
ffffffc050202578:	3b278793          	addi	a5,a5,946 # ffffffc050204926 <do_taskset>
ffffffc05020257c:	00009397          	auipc	t2,0x9
ffffffc050202580:	5253ba23          	sd	t0,1332(t2) # ffffffc05020bab0 <syscall+0xa8>
ffffffc050202584:	00009297          	auipc	t0,0x9
ffffffc050202588:	5ff2b223          	sd	t6,1508(t0) # ffffffc05020bb68 <syscall+0x160>
ffffffc05020258c:	00009f97          	auipc	t6,0x9
ffffffc050202590:	5fefb223          	sd	t5,1508(t6) # ffffffc05020bb70 <syscall+0x168>
ffffffc050202594:	00009f17          	auipc	t5,0x9
ffffffc050202598:	5fdf3223          	sd	t4,1508(t5) # ffffffc05020bb78 <syscall+0x170>
ffffffc05020259c:	00009e97          	auipc	t4,0x9
ffffffc0502025a0:	5fceb223          	sd	t3,1508(t4) # ffffffc05020bb80 <syscall+0x178>
ffffffc0502025a4:	00009e17          	auipc	t3,0x9
ffffffc0502025a8:	5e6e3223          	sd	t1,1508(t3) # ffffffc05020bb88 <syscall+0x180>
ffffffc0502025ac:	00009317          	auipc	t1,0x9
ffffffc0502025b0:	5f133223          	sd	a7,1508(t1) # ffffffc05020bb90 <syscall+0x188>
ffffffc0502025b4:	00009897          	auipc	a7,0x9
ffffffc0502025b8:	5f08b223          	sd	a6,1508(a7) # ffffffc05020bb98 <syscall+0x190>
ffffffc0502025bc:	00009817          	auipc	a6,0x9
ffffffc0502025c0:	5ea83223          	sd	a0,1508(a6) # ffffffc05020bba0 <syscall+0x198>
ffffffc0502025c4:	00009517          	auipc	a0,0x9
ffffffc0502025c8:	5eb53223          	sd	a1,1508(a0) # ffffffc05020bba8 <syscall+0x1a0>
ffffffc0502025cc:	00009597          	auipc	a1,0x9
ffffffc0502025d0:	5ec5b223          	sd	a2,1508(a1) # ffffffc05020bbb0 <syscall+0x1a8>
ffffffc0502025d4:	00009617          	auipc	a2,0x9
ffffffc0502025d8:	5ed63223          	sd	a3,1508(a2) # ffffffc05020bbb8 <syscall+0x1b0>
ffffffc0502025dc:	00009697          	auipc	a3,0x9
ffffffc0502025e0:	5ee6b223          	sd	a4,1508(a3) # ffffffc05020bbc0 <syscall+0x1b8>
ffffffc0502025e4:	00009717          	auipc	a4,0x9
ffffffc0502025e8:	72f73623          	sd	a5,1836(a4) # ffffffc05020bd10 <syscall+0x308>
ffffffc0502025ec:	00002697          	auipc	a3,0x2
ffffffc0502025f0:	42468693          	addi	a3,a3,1060 # ffffffc050204a10 <do_thread_create>
ffffffc0502025f4:	00002717          	auipc	a4,0x2
ffffffc0502025f8:	41e70713          	addi	a4,a4,1054 # ffffffc050204a12 <do_thread_exit>
ffffffc0502025fc:	00002797          	auipc	a5,0x2
ffffffc050202600:	41878793          	addi	a5,a5,1048 # ffffffc050204a14 <do_thread_join>
ffffffc050202604:	00003517          	auipc	a0,0x3
ffffffc050202608:	cfc50513          	addi	a0,a0,-772 # ffffffc050205300 <strcat+0x156>
ffffffc05020260c:	00009617          	auipc	a2,0x9
ffffffc050202610:	70d63623          	sd	a3,1804(a2) # ffffffc05020bd18 <syscall+0x310>
ffffffc050202614:	00009697          	auipc	a3,0x9
ffffffc050202618:	70e6b623          	sd	a4,1804(a3) # ffffffc05020bd20 <syscall+0x318>
ffffffc05020261c:	00009717          	auipc	a4,0x9
ffffffc050202620:	70f73623          	sd	a5,1804(a4) # ffffffc05020bd28 <syscall+0x320>
ffffffc050202624:	1d7020ef          	jal	ffffffc050204ffa <printk>
ffffffc050202628:	02d000ef          	jal	ffffffc050202e54 <init_screen>
ffffffc05020262c:	00008797          	auipc	a5,0x8
ffffffc050202630:	8bc7b783          	ld	a5,-1860(a5) # ffffffc050209ee8 <current_running>
ffffffc050202634:	823e                	mv	tp,a5
ffffffc050202636:	45c020ef          	jal	ffffffc050204a92 <unlock_kernel>
ffffffc05020263a:	4501                	li	a0,0
ffffffc05020263c:	444020ef          	jal	ffffffc050204a80 <wakeup_other_hart>
ffffffc050202640:	640a                	ld	s0,128(sp)
ffffffc050202642:	7946                	ld	s2,112(sp)
ffffffc050202644:	79a6                	ld	s3,104(sp)
ffffffc050202646:	7a06                	ld	s4,96(sp)
ffffffc050202648:	6ae6                	ld	s5,88(sp)
ffffffc05020264a:	6b46                	ld	s6,80(sp)
ffffffc05020264c:	6ba6                	ld	s7,72(sp)
ffffffc05020264e:	6c06                	ld	s8,64(sp)
ffffffc050202650:	7ce2                	ld	s9,56(sp)
ffffffc050202652:	a831                	j	ffffffc05020266e <main+0x4e0>
ffffffc050202654:	432020ef          	jal	ffffffc050204a86 <lock_kernel>
ffffffc050202658:	1d4000ef          	jal	ffffffc05020282c <init_jmptab>
ffffffc05020265c:	1a0000ef          	jal	ffffffc0502027fc <setup_exception>
ffffffc050202660:	00008797          	auipc	a5,0x8
ffffffc050202664:	8907b783          	ld	a5,-1904(a5) # ffffffc050209ef0 <current_running+0x8>
ffffffc050202668:	823e                	mv	tp,a5
ffffffc05020266a:	428020ef          	jal	ffffffc050204a92 <unlock_kernel>
ffffffc05020266e:	3a8020ef          	jal	ffffffc050204a16 <get_ticks>
ffffffc050202672:	6785                	lui	a5,0x1
ffffffc050202674:	38878793          	addi	a5,a5,904 # 1388 <boot_stack_top_base-0x50200c78>
ffffffc050202678:	953e                	add	a0,a0,a5
ffffffc05020267a:	4ce000ef          	jal	ffffffc050202b48 <set_timer>
ffffffc05020267e:	012000ef          	jal	ffffffc050202690 <enable_preempt>
ffffffc050202682:	10500073          	wfi
ffffffc050202686:	bfe5                	j	ffffffc05020267e <main+0x4f0>
ffffffc050202688:	07400713          	li	a4,116
ffffffc05020268c:	b67d                	j	ffffffc05020223a <main+0xac>
	...

ffffffc050202690 <enable_preempt>:
ffffffc050202690:	fff04293          	not	t0,zero
ffffffc050202694:	1042a073          	csrs	sie,t0
ffffffc050202698:	8082                	ret
ffffffc05020269a:	0001                	nop

ffffffc05020269c <disable_preempt>:
ffffffc05020269c:	10401073          	csrw	sie,zero
ffffffc0502026a0:	8082                	ret
ffffffc0502026a2:	0001                	nop

ffffffc0502026a4 <enable_interrupt>:
ffffffc0502026a4:	4289                	li	t0,2
ffffffc0502026a6:	1002a073          	csrs	sstatus,t0
ffffffc0502026aa:	8082                	ret

ffffffc0502026ac <disable_interrupt>:
ffffffc0502026ac:	4289                	li	t0,2
ffffffc0502026ae:	1002b073          	csrc	sstatus,t0
ffffffc0502026b2:	8082                	ret

ffffffc0502026b4 <enable_time_preempt>:
ffffffc0502026b4:	02000293          	li	t0,32
ffffffc0502026b8:	1042a073          	csrs	sie,t0
ffffffc0502026bc:	8082                	ret
ffffffc0502026be:	0001                	nop

ffffffc0502026c0 <disable_time_preempt>:
ffffffc0502026c0:	02000293          	li	t0,32
ffffffc0502026c4:	1042b073          	csrc	sie,t0
ffffffc0502026c8:	8082                	ret
ffffffc0502026ca:	0001                	nop

ffffffc0502026cc <switch_to>:
ffffffc0502026cc:	7159                	addi	sp,sp,-112
ffffffc0502026ce:	e006                	sd	ra,0(sp)
ffffffc0502026d0:	e40a                	sd	sp,8(sp)
ffffffc0502026d2:	e822                	sd	s0,16(sp)
ffffffc0502026d4:	ec26                	sd	s1,24(sp)
ffffffc0502026d6:	f04a                	sd	s2,32(sp)
ffffffc0502026d8:	f44e                	sd	s3,40(sp)
ffffffc0502026da:	f852                	sd	s4,48(sp)
ffffffc0502026dc:	fc56                	sd	s5,56(sp)
ffffffc0502026de:	e0da                	sd	s6,64(sp)
ffffffc0502026e0:	e4de                	sd	s7,72(sp)
ffffffc0502026e2:	e8e2                	sd	s8,80(sp)
ffffffc0502026e4:	ece6                	sd	s9,88(sp)
ffffffc0502026e6:	f0ea                	sd	s10,96(sp)
ffffffc0502026e8:	f4ee                	sd	s11,104(sp)
ffffffc0502026ea:	00253023          	sd	sp,0(a0)
ffffffc0502026ee:	0005b103          	ld	sp,0(a1)
ffffffc0502026f2:	6082                	ld	ra,0(sp)
ffffffc0502026f4:	6122                	ld	sp,8(sp)
ffffffc0502026f6:	6442                	ld	s0,16(sp)
ffffffc0502026f8:	64e2                	ld	s1,24(sp)
ffffffc0502026fa:	7902                	ld	s2,32(sp)
ffffffc0502026fc:	79a2                	ld	s3,40(sp)
ffffffc0502026fe:	7a42                	ld	s4,48(sp)
ffffffc050202700:	7ae2                	ld	s5,56(sp)
ffffffc050202702:	6b06                	ld	s6,64(sp)
ffffffc050202704:	6ba6                	ld	s7,72(sp)
ffffffc050202706:	6c46                	ld	s8,80(sp)
ffffffc050202708:	6ce6                	ld	s9,88(sp)
ffffffc05020270a:	7d06                	ld	s10,96(sp)
ffffffc05020270c:	7da6                	ld	s11,104(sp)
ffffffc05020270e:	822e                	mv	tp,a1
ffffffc050202710:	6165                	addi	sp,sp,112
ffffffc050202712:	8082                	ret

ffffffc050202714 <ret_from_exception>:
ffffffc050202714:	37e020ef          	jal	ffffffc050204a92 <unlock_kernel>
ffffffc050202718:	6292                	ld	t0,256(sp)
ffffffc05020271a:	10029073          	csrw	sstatus,t0
ffffffc05020271e:	62b2                	ld	t0,264(sp)
ffffffc050202720:	14129073          	csrw	sepc,t0
ffffffc050202724:	62d2                	ld	t0,272(sp)
ffffffc050202726:	14329073          	csrw	stval,t0
ffffffc05020272a:	62f2                	ld	t0,280(sp)
ffffffc05020272c:	14229073          	csrw	scause,t0
ffffffc050202730:	72a2                	ld	t0,40(sp)
ffffffc050202732:	7342                	ld	t1,48(sp)
ffffffc050202734:	73e2                	ld	t2,56(sp)
ffffffc050202736:	00013003          	ld	zero,0(sp)
ffffffc05020273a:	60a2                	ld	ra,8(sp)
ffffffc05020273c:	61e2                	ld	gp,24(sp)
ffffffc05020273e:	6406                	ld	s0,64(sp)
ffffffc050202740:	64a6                	ld	s1,72(sp)
ffffffc050202742:	6546                	ld	a0,80(sp)
ffffffc050202744:	65e6                	ld	a1,88(sp)
ffffffc050202746:	7606                	ld	a2,96(sp)
ffffffc050202748:	76a6                	ld	a3,104(sp)
ffffffc05020274a:	7746                	ld	a4,112(sp)
ffffffc05020274c:	77e6                	ld	a5,120(sp)
ffffffc05020274e:	680a                	ld	a6,128(sp)
ffffffc050202750:	68aa                	ld	a7,136(sp)
ffffffc050202752:	694a                	ld	s2,144(sp)
ffffffc050202754:	69ea                	ld	s3,152(sp)
ffffffc050202756:	7a0a                	ld	s4,160(sp)
ffffffc050202758:	7aaa                	ld	s5,168(sp)
ffffffc05020275a:	7b4a                	ld	s6,176(sp)
ffffffc05020275c:	7bea                	ld	s7,184(sp)
ffffffc05020275e:	6c0e                	ld	s8,192(sp)
ffffffc050202760:	6cae                	ld	s9,200(sp)
ffffffc050202762:	6d4e                	ld	s10,208(sp)
ffffffc050202764:	6dee                	ld	s11,216(sp)
ffffffc050202766:	7e0e                	ld	t3,224(sp)
ffffffc050202768:	7eae                	ld	t4,232(sp)
ffffffc05020276a:	7f4e                	ld	t5,240(sp)
ffffffc05020276c:	7fee                	ld	t6,248(sp)
ffffffc05020276e:	6115                	addi	sp,sp,288
ffffffc050202770:	00223023          	sd	sp,0(tp) # 0 <boot_stack_top_base-0x50202000>
ffffffc050202774:	00823103          	ld	sp,8(tp) # 8 <boot_stack_top_base-0x50201ff8>
ffffffc050202778:	10200073          	sret

ffffffc05020277c <exception_handler_entry>:
ffffffc05020277c:	00223423          	sd	sp,8(tp) # 8 <boot_stack_top_base-0x50201ff8>
ffffffc050202780:	00023103          	ld	sp,0(tp) # 0 <boot_stack_top_base-0x50202000>
ffffffc050202784:	712d                	addi	sp,sp,-288
ffffffc050202786:	f416                	sd	t0,40(sp)
ffffffc050202788:	f81a                	sd	t1,48(sp)
ffffffc05020278a:	fc1e                	sd	t2,56(sp)
ffffffc05020278c:	e002                	sd	zero,0(sp)
ffffffc05020278e:	e406                	sd	ra,8(sp)
ffffffc050202790:	ec0e                	sd	gp,24(sp)
ffffffc050202792:	e0a2                	sd	s0,64(sp)
ffffffc050202794:	e4a6                	sd	s1,72(sp)
ffffffc050202796:	e8aa                	sd	a0,80(sp)
ffffffc050202798:	ecae                	sd	a1,88(sp)
ffffffc05020279a:	f0b2                	sd	a2,96(sp)
ffffffc05020279c:	f4b6                	sd	a3,104(sp)
ffffffc05020279e:	f8ba                	sd	a4,112(sp)
ffffffc0502027a0:	fcbe                	sd	a5,120(sp)
ffffffc0502027a2:	e142                	sd	a6,128(sp)
ffffffc0502027a4:	e546                	sd	a7,136(sp)
ffffffc0502027a6:	e94a                	sd	s2,144(sp)
ffffffc0502027a8:	ed4e                	sd	s3,152(sp)
ffffffc0502027aa:	f152                	sd	s4,160(sp)
ffffffc0502027ac:	f556                	sd	s5,168(sp)
ffffffc0502027ae:	f95a                	sd	s6,176(sp)
ffffffc0502027b0:	fd5e                	sd	s7,184(sp)
ffffffc0502027b2:	e1e2                	sd	s8,192(sp)
ffffffc0502027b4:	e5e6                	sd	s9,200(sp)
ffffffc0502027b6:	e9ea                	sd	s10,208(sp)
ffffffc0502027b8:	edee                	sd	s11,216(sp)
ffffffc0502027ba:	f1f2                	sd	t3,224(sp)
ffffffc0502027bc:	f5f6                	sd	t4,232(sp)
ffffffc0502027be:	f9fa                	sd	t5,240(sp)
ffffffc0502027c0:	fdfe                	sd	t6,248(sp)
ffffffc0502027c2:	000462b7          	lui	t0,0x46
ffffffc0502027c6:	10002373          	csrr	t1,sstatus
ffffffc0502027ca:	e21a                	sd	t1,256(sp)
ffffffc0502027cc:	14102373          	csrr	t1,sepc
ffffffc0502027d0:	e61a                	sd	t1,264(sp)
ffffffc0502027d2:	14302373          	csrr	t1,stval
ffffffc0502027d6:	ea1a                	sd	t1,272(sp)
ffffffc0502027d8:	14202373          	csrr	t1,scause
ffffffc0502027dc:	ee1a                	sd	t1,280(sp)
ffffffc0502027de:	2a8020ef          	jal	ffffffc050204a86 <lock_kernel>
ffffffc0502027e2:	850a                	mv	a0,sp
ffffffc0502027e4:	143025f3          	csrr	a1,stval
ffffffc0502027e8:	14202673          	csrr	a2,scause
ffffffc0502027ec:	069000ef          	jal	ffffffc050203054 <interrupt_helper>
ffffffc0502027f0:	b715                	j	ffffffc050202714 <ret_from_exception>
	...

ffffffc0502027f4 <get_current_cpu_id>:
ffffffc0502027f4:	f1402573          	csrr	a0,mhartid
ffffffc0502027f8:	8082                	ret
	...

ffffffc0502027fc <setup_exception>:
ffffffc0502027fc:	00000297          	auipc	t0,0x0
ffffffc050202800:	f8028293          	addi	t0,t0,-128 # ffffffc05020277c <exception_handler_entry>
ffffffc050202804:	10529073          	csrw	stvec,t0
ffffffc050202808:	1161                	addi	sp,sp,-8
ffffffc05020280a:	e006                	sd	ra,0(sp)
ffffffc05020280c:	e99ff0ef          	jal	ffffffc0502026a4 <enable_interrupt>
ffffffc050202810:	6082                	ld	ra,0(sp)
ffffffc050202812:	0121                	addi	sp,sp,8
ffffffc050202814:	8082                	ret

ffffffc050202816 <bios_putstr>:
ffffffc050202816:	fe0297b7          	lui	a5,0xfe029
ffffffc05020281a:	07b6                	slli	a5,a5,0xd
ffffffc05020281c:	f0078793          	addi	a5,a5,-256 # fffffffffe028f00 <__BSS_END__+0x3fade1d0f8>
ffffffc050202820:	639c                	ld	a5,0(a5)
ffffffc050202822:	4701                	li	a4,0
ffffffc050202824:	4681                	li	a3,0
ffffffc050202826:	4601                	li	a2,0
ffffffc050202828:	4581                	li	a1,0
ffffffc05020282a:	8782                	jr	a5

ffffffc05020282c <init_jmptab>:
ffffffc05020282c:	1141                	addi	sp,sp,-16
ffffffc05020282e:	fe029737          	lui	a4,0xfe029
ffffffc050202832:	e422                	sd	s0,8(sp)
ffffffc050202834:	0736                	slli	a4,a4,0xd
ffffffc050202836:	00000697          	auipc	a3,0x0
ffffffc05020283a:	27c68693          	addi	a3,a3,636 # ffffffc050202ab2 <port_write>
ffffffc05020283e:	f0d73023          	sd	a3,-256(a4) # fffffffffe028f00 <__BSS_END__+0x3fade1d0f8>
ffffffc050202842:	88ba                	mv	a7,a4
ffffffc050202844:	8eba                	mv	t4,a4
ffffffc050202846:	87ba                	mv	a5,a4
ffffffc050202848:	82ba                	mv	t0,a4
ffffffc05020284a:	8fba                	mv	t6,a4
ffffffc05020284c:	8f3a                	mv	t5,a4
ffffffc05020284e:	883a                	mv	a6,a4
ffffffc050202850:	00000717          	auipc	a4,0x0
ffffffc050202854:	24a70713          	addi	a4,a4,586 # ffffffc050202a9a <port_write_ch>
ffffffc050202858:	f0e7b423          	sd	a4,-248(a5)
ffffffc05020285c:	00000797          	auipc	a5,0x0
ffffffc050202860:	26e78793          	addi	a5,a5,622 # ffffffc050202aca <port_read_ch>
ffffffc050202864:	f0f2b823          	sd	a5,-240(t0)
ffffffc050202868:	00000297          	auipc	t0,0x0
ffffffc05020286c:	28828293          	addi	t0,t0,648 # ffffffc050202af0 <sd_read>
ffffffc050202870:	f05fbc23          	sd	t0,-232(t6)
ffffffc050202874:	00000297          	auipc	t0,0x0
ffffffc050202878:	2a828293          	addi	t0,t0,680 # ffffffc050202b1c <sd_write>
ffffffc05020287c:	f25f3023          	sd	t0,-224(t5)
ffffffc050202880:	00000f97          	auipc	t6,0x0
ffffffc050202884:	2fcf8f93          	addi	t6,t6,764 # ffffffc050202b7c <qemu_logging>
ffffffc050202888:	00000f17          	auipc	t5,0x0
ffffffc05020288c:	2c0f0f13          	addi	t5,t5,704 # ffffffc050202b48 <set_timer>
ffffffc050202890:	00000417          	auipc	s0,0x0
ffffffc050202894:	2d040413          	addi	s0,s0,720 # ffffffc050202b60 <read_fdt>
ffffffc050202898:	f3feb423          	sd	t6,-216(t4)
ffffffc05020289c:	f3eeb823          	sd	t5,-208(t4)
ffffffc0502028a0:	f28ebc23          	sd	s0,-200(t4)
ffffffc0502028a4:	00000397          	auipc	t2,0x0
ffffffc0502028a8:	30838393          	addi	t2,t2,776 # ffffffc050202bac <screen_move_cursor>
ffffffc0502028ac:	6422                	ld	s0,8(sp)
ffffffc0502028ae:	f4783023          	sd	t2,-192(a6)
ffffffc0502028b2:	00002297          	auipc	t0,0x2
ffffffc0502028b6:	74828293          	addi	t0,t0,1864 # ffffffc050204ffa <printk>
ffffffc0502028ba:	00001f97          	auipc	t6,0x1
ffffffc0502028be:	6ecf8f93          	addi	t6,t6,1772 # ffffffc050203fa6 <do_scheduler>
ffffffc0502028c2:	00001f17          	auipc	t5,0x1
ffffffc0502028c6:	a84f0f13          	addi	t5,t5,-1404 # ffffffc050203346 <do_mutex_lock_init>
ffffffc0502028ca:	00001e97          	auipc	t4,0x1
ffffffc0502028ce:	ae8e8e93          	addi	t4,t4,-1304 # ffffffc0502033b2 <do_mutex_lock_acquire>
ffffffc0502028d2:	00001e17          	auipc	t3,0x1
ffffffc0502028d6:	ae8e0e13          	addi	t3,t3,-1304 # ffffffc0502033ba <do_mutex_lock_release>
ffffffc0502028da:	00000317          	auipc	t1,0x0
ffffffc0502028de:	4ae30313          	addi	t1,t1,1198 # ffffffc050202d88 <screen_write>
ffffffc0502028e2:	00000817          	auipc	a6,0x0
ffffffc0502028e6:	33480813          	addi	a6,a6,820 # ffffffc050202c16 <screen_reflush>
ffffffc0502028ea:	f458bc23          	sd	t0,-168(a7)
ffffffc0502028ee:	f7f8b023          	sd	t6,-160(a7)
ffffffc0502028f2:	f7e8b423          	sd	t5,-152(a7)
ffffffc0502028f6:	f7d8b823          	sd	t4,-144(a7)
ffffffc0502028fa:	f7c8bc23          	sd	t3,-136(a7)
ffffffc0502028fe:	f468b423          	sd	t1,-184(a7)
ffffffc050202902:	f508b823          	sd	a6,-176(a7)
ffffffc050202906:	0141                	addi	sp,sp,16
ffffffc050202908:	8082                	ret

ffffffc05020290a <list_files>:
ffffffc05020290a:	1101                	addi	sp,sp,-32
ffffffc05020290c:	e822                	sd	s0,16(sp)
ffffffc05020290e:	fe029437          	lui	s0,0xfe029
ffffffc050202912:	0436                	slli	s0,s0,0xd
ffffffc050202914:	f0043783          	ld	a5,-256(s0) # fffffffffe028f00 <__BSS_END__+0x3fade1d0f8>
ffffffc050202918:	ec06                	sd	ra,24(sp)
ffffffc05020291a:	e426                	sd	s1,8(sp)
ffffffc05020291c:	e04a                	sd	s2,0(sp)
ffffffc05020291e:	4701                	li	a4,0
ffffffc050202920:	4681                	li	a3,0
ffffffc050202922:	4601                	li	a2,0
ffffffc050202924:	4581                	li	a1,0
ffffffc050202926:	00003517          	auipc	a0,0x3
ffffffc05020292a:	8b250513          	addi	a0,a0,-1870 # ffffffc0502051d8 <strcat+0x2e>
ffffffc05020292e:	9782                	jalr	a5
ffffffc050202930:	00004797          	auipc	a5,0x4
ffffffc050202934:	17c7a783          	lw	a5,380(a5) # ffffffc050206aac <tasknum>
ffffffc050202938:	f0040413          	addi	s0,s0,-256
ffffffc05020293c:	cbf9                	beqz	a5,ffffffc050202a12 <list_files+0x108>
ffffffc05020293e:	00004917          	auipc	s2,0x4
ffffffc050202942:	1b290913          	addi	s2,s2,434 # ffffffc050206af0 <tasks+0x18>
ffffffc050202946:	4481                	li	s1,0
ffffffc050202948:	02f05c63          	blez	a5,ffffffc050202980 <list_files+0x76>
ffffffc05020294c:	601c                	ld	a5,0(s0)
ffffffc05020294e:	4701                	li	a4,0
ffffffc050202950:	4681                	li	a3,0
ffffffc050202952:	4601                	li	a2,0
ffffffc050202954:	4581                	li	a1,0
ffffffc050202956:	854a                	mv	a0,s2
ffffffc050202958:	9782                	jalr	a5
ffffffc05020295a:	601c                	ld	a5,0(s0)
ffffffc05020295c:	4701                	li	a4,0
ffffffc05020295e:	4681                	li	a3,0
ffffffc050202960:	4601                	li	a2,0
ffffffc050202962:	4581                	li	a1,0
ffffffc050202964:	00003517          	auipc	a0,0x3
ffffffc050202968:	88c50513          	addi	a0,a0,-1908 # ffffffc0502051f0 <strcat+0x46>
ffffffc05020296c:	9782                	jalr	a5
ffffffc05020296e:	00004797          	auipc	a5,0x4
ffffffc050202972:	13e7a783          	lw	a5,318(a5) # ffffffc050206aac <tasknum>
ffffffc050202976:	2485                	addiw	s1,s1,1
ffffffc050202978:	02890913          	addi	s2,s2,40
ffffffc05020297c:	fcf4c8e3          	blt	s1,a5,ffffffc05020294c <list_files+0x42>
ffffffc050202980:	fe029437          	lui	s0,0xfe029
ffffffc050202984:	0436                	slli	s0,s0,0xd
ffffffc050202986:	f0043783          	ld	a5,-256(s0) # fffffffffe028f00 <__BSS_END__+0x3fade1d0f8>
ffffffc05020298a:	4701                	li	a4,0
ffffffc05020298c:	4681                	li	a3,0
ffffffc05020298e:	4601                	li	a2,0
ffffffc050202990:	4581                	li	a1,0
ffffffc050202992:	00003517          	auipc	a0,0x3
ffffffc050202996:	87650513          	addi	a0,a0,-1930 # ffffffc050205208 <strcat+0x5e>
ffffffc05020299a:	9782                	jalr	a5
ffffffc05020299c:	00004797          	auipc	a5,0x4
ffffffc0502029a0:	3bc7a783          	lw	a5,956(a5) # ffffffc050206d58 <batchfiles>
ffffffc0502029a4:	f0040413          	addi	s0,s0,-256
ffffffc0502029a8:	c3c1                	beqz	a5,ffffffc050202a28 <list_files+0x11e>
ffffffc0502029aa:	00004917          	auipc	s2,0x4
ffffffc0502029ae:	3b290913          	addi	s2,s2,946 # ffffffc050206d5c <batchfiles+0x4>
ffffffc0502029b2:	4481                	li	s1,0
ffffffc0502029b4:	02f05b63          	blez	a5,ffffffc0502029ea <list_files+0xe0>
ffffffc0502029b8:	601c                	ld	a5,0(s0)
ffffffc0502029ba:	4701                	li	a4,0
ffffffc0502029bc:	4681                	li	a3,0
ffffffc0502029be:	4601                	li	a2,0
ffffffc0502029c0:	4581                	li	a1,0
ffffffc0502029c2:	854a                	mv	a0,s2
ffffffc0502029c4:	9782                	jalr	a5
ffffffc0502029c6:	601c                	ld	a5,0(s0)
ffffffc0502029c8:	4701                	li	a4,0
ffffffc0502029ca:	4681                	li	a3,0
ffffffc0502029cc:	4601                	li	a2,0
ffffffc0502029ce:	4581                	li	a1,0
ffffffc0502029d0:	00003517          	auipc	a0,0x3
ffffffc0502029d4:	82050513          	addi	a0,a0,-2016 # ffffffc0502051f0 <strcat+0x46>
ffffffc0502029d8:	9782                	jalr	a5
ffffffc0502029da:	00004797          	auipc	a5,0x4
ffffffc0502029de:	37e7a783          	lw	a5,894(a5) # ffffffc050206d58 <batchfiles>
ffffffc0502029e2:	2485                	addiw	s1,s1,1
ffffffc0502029e4:	0941                	addi	s2,s2,16
ffffffc0502029e6:	fcf4c9e3          	blt	s1,a5,ffffffc0502029b8 <list_files+0xae>
ffffffc0502029ea:	fe0297b7          	lui	a5,0xfe029
ffffffc0502029ee:	07b6                	slli	a5,a5,0xd
ffffffc0502029f0:	6442                	ld	s0,16(sp)
ffffffc0502029f2:	f0078793          	addi	a5,a5,-256 # fffffffffe028f00 <__BSS_END__+0x3fade1d0f8>
ffffffc0502029f6:	60e2                	ld	ra,24(sp)
ffffffc0502029f8:	64a2                	ld	s1,8(sp)
ffffffc0502029fa:	6902                	ld	s2,0(sp)
ffffffc0502029fc:	639c                	ld	a5,0(a5)
ffffffc0502029fe:	4701                	li	a4,0
ffffffc050202a00:	4681                	li	a3,0
ffffffc050202a02:	4601                	li	a2,0
ffffffc050202a04:	4581                	li	a1,0
ffffffc050202a06:	00002517          	auipc	a0,0x2
ffffffc050202a0a:	7ea50513          	addi	a0,a0,2026 # ffffffc0502051f0 <strcat+0x46>
ffffffc050202a0e:	6105                	addi	sp,sp,32
ffffffc050202a10:	8782                	jr	a5
ffffffc050202a12:	601c                	ld	a5,0(s0)
ffffffc050202a14:	4701                	li	a4,0
ffffffc050202a16:	4681                	li	a3,0
ffffffc050202a18:	4601                	li	a2,0
ffffffc050202a1a:	4581                	li	a1,0
ffffffc050202a1c:	00002517          	auipc	a0,0x2
ffffffc050202a20:	7dc50513          	addi	a0,a0,2012 # ffffffc0502051f8 <strcat+0x4e>
ffffffc050202a24:	9782                	jalr	a5
ffffffc050202a26:	bfa9                	j	ffffffc050202980 <list_files+0x76>
ffffffc050202a28:	601c                	ld	a5,0(s0)
ffffffc050202a2a:	4701                	li	a4,0
ffffffc050202a2c:	4681                	li	a3,0
ffffffc050202a2e:	4601                	li	a2,0
ffffffc050202a30:	4581                	li	a1,0
ffffffc050202a32:	00002517          	auipc	a0,0x2
ffffffc050202a36:	7ee50513          	addi	a0,a0,2030 # ffffffc050205220 <strcat+0x76>
ffffffc050202a3a:	9782                	jalr	a5
ffffffc050202a3c:	b77d                	j	ffffffc0502029ea <list_files+0xe0>

ffffffc050202a3e <init_pcb_stack>:
ffffffc050202a3e:	7179                	addi	sp,sp,-48
ffffffc050202a40:	f022                	sd	s0,32(sp)
ffffffc050202a42:	ec26                	sd	s1,24(sp)
ffffffc050202a44:	e84a                	sd	s2,16(sp)
ffffffc050202a46:	842a                	mv	s0,a0
ffffffc050202a48:	84ae                	mv	s1,a1
ffffffc050202a4a:	ee050513          	addi	a0,a0,-288
ffffffc050202a4e:	8932                	mv	s2,a2
ffffffc050202a50:	4581                	li	a1,0
ffffffc050202a52:	12000613          	li	a2,288
ffffffc050202a56:	f406                	sd	ra,40(sp)
ffffffc050202a58:	e42a                	sd	a0,8(sp)
ffffffc050202a5a:	e036                	sd	a3,0(sp)
ffffffc050202a5c:	63c020ef          	jal	ffffffc050205098 <memset>
ffffffc050202a60:	6522                	ld	a0,8(sp)
ffffffc050202a62:	6682                	ld	a3,0(sp)
ffffffc050202a64:	000407b7          	lui	a5,0x40
ffffffc050202a68:	02078793          	addi	a5,a5,32 # 40020 <boot_stack_top_base-0x501c1fe0>
ffffffc050202a6c:	11253423          	sd	s2,264(a0)
ffffffc050202a70:	e904                	sd	s1,16(a0)
ffffffc050202a72:	10f53023          	sd	a5,256(a0)
ffffffc050202a76:	f114                	sd	a3,32(a0)
ffffffc050202a78:	e7040793          	addi	a5,s0,-400
ffffffc050202a7c:	e684                	sd	s1,8(a3)
ffffffc050202a7e:	e29c                	sd	a5,0(a3)
ffffffc050202a80:	00000717          	auipc	a4,0x0
ffffffc050202a84:	c9470713          	addi	a4,a4,-876 # ffffffc050202714 <ret_from_exception>
ffffffc050202a88:	e6e43823          	sd	a4,-400(s0)
ffffffc050202a8c:	70a2                	ld	ra,40(sp)
ffffffc050202a8e:	7402                	ld	s0,32(sp)
ffffffc050202a90:	e79c                	sd	a5,8(a5)
ffffffc050202a92:	64e2                	ld	s1,24(sp)
ffffffc050202a94:	6942                	ld	s2,16(sp)
ffffffc050202a96:	6145                	addi	sp,sp,48
ffffffc050202a98:	8082                	ret

ffffffc050202a9a <port_write_ch>:
ffffffc050202a9a:	ffc05337          	lui	t1,0xffc05
ffffffc050202a9e:	0355                	addi	t1,t1,21 # ffffffffffc05015 <__BSS_END__+0x3faf9f920d>
ffffffc050202aa0:	0342                	slli	t1,t1,0x10
ffffffc050202aa2:	4885                	li	a7,1
ffffffc050202aa4:	4801                	li	a6,0
ffffffc050202aa6:	4781                	li	a5,0
ffffffc050202aa8:	4701                	li	a4,0
ffffffc050202aaa:	4681                	li	a3,0
ffffffc050202aac:	4601                	li	a2,0
ffffffc050202aae:	4581                	li	a1,0
ffffffc050202ab0:	8302                	jr	t1

ffffffc050202ab2 <port_write>:
ffffffc050202ab2:	ffc05337          	lui	t1,0xffc05
ffffffc050202ab6:	0355                	addi	t1,t1,21 # ffffffffffc05015 <__BSS_END__+0x3faf9f920d>
ffffffc050202ab8:	0342                	slli	t1,t1,0x10
ffffffc050202aba:	48a5                	li	a7,9
ffffffc050202abc:	4801                	li	a6,0
ffffffc050202abe:	4781                	li	a5,0
ffffffc050202ac0:	4701                	li	a4,0
ffffffc050202ac2:	4681                	li	a3,0
ffffffc050202ac4:	4601                	li	a2,0
ffffffc050202ac6:	4581                	li	a1,0
ffffffc050202ac8:	8302                	jr	t1

ffffffc050202aca <port_read_ch>:
ffffffc050202aca:	ffc05337          	lui	t1,0xffc05
ffffffc050202ace:	1141                	addi	sp,sp,-16
ffffffc050202ad0:	0355                	addi	t1,t1,21 # ffffffffffc05015 <__BSS_END__+0x3faf9f920d>
ffffffc050202ad2:	e406                	sd	ra,8(sp)
ffffffc050202ad4:	0342                	slli	t1,t1,0x10
ffffffc050202ad6:	4889                	li	a7,2
ffffffc050202ad8:	4801                	li	a6,0
ffffffc050202ada:	4781                	li	a5,0
ffffffc050202adc:	4701                	li	a4,0
ffffffc050202ade:	4681                	li	a3,0
ffffffc050202ae0:	4601                	li	a2,0
ffffffc050202ae2:	4581                	li	a1,0
ffffffc050202ae4:	4501                	li	a0,0
ffffffc050202ae6:	9302                	jalr	t1
ffffffc050202ae8:	60a2                	ld	ra,8(sp)
ffffffc050202aea:	2501                	sext.w	a0,a0
ffffffc050202aec:	0141                	addi	sp,sp,16
ffffffc050202aee:	8082                	ret

ffffffc050202af0 <sd_read>:
ffffffc050202af0:	ffc05337          	lui	t1,0xffc05
ffffffc050202af4:	1141                	addi	sp,sp,-16
ffffffc050202af6:	1502                	slli	a0,a0,0x20
ffffffc050202af8:	1582                	slli	a1,a1,0x20
ffffffc050202afa:	1602                	slli	a2,a2,0x20
ffffffc050202afc:	0355                	addi	t1,t1,21 # ffffffffffc05015 <__BSS_END__+0x3faf9f920d>
ffffffc050202afe:	e406                	sd	ra,8(sp)
ffffffc050202b00:	9101                	srli	a0,a0,0x20
ffffffc050202b02:	9181                	srli	a1,a1,0x20
ffffffc050202b04:	9201                	srli	a2,a2,0x20
ffffffc050202b06:	0342                	slli	t1,t1,0x10
ffffffc050202b08:	48ad                	li	a7,11
ffffffc050202b0a:	4801                	li	a6,0
ffffffc050202b0c:	4781                	li	a5,0
ffffffc050202b0e:	4701                	li	a4,0
ffffffc050202b10:	4681                	li	a3,0
ffffffc050202b12:	9302                	jalr	t1
ffffffc050202b14:	60a2                	ld	ra,8(sp)
ffffffc050202b16:	2501                	sext.w	a0,a0
ffffffc050202b18:	0141                	addi	sp,sp,16
ffffffc050202b1a:	8082                	ret

ffffffc050202b1c <sd_write>:
ffffffc050202b1c:	ffc05337          	lui	t1,0xffc05
ffffffc050202b20:	1141                	addi	sp,sp,-16
ffffffc050202b22:	1502                	slli	a0,a0,0x20
ffffffc050202b24:	1582                	slli	a1,a1,0x20
ffffffc050202b26:	1602                	slli	a2,a2,0x20
ffffffc050202b28:	0355                	addi	t1,t1,21 # ffffffffffc05015 <__BSS_END__+0x3faf9f920d>
ffffffc050202b2a:	e406                	sd	ra,8(sp)
ffffffc050202b2c:	9101                	srli	a0,a0,0x20
ffffffc050202b2e:	9181                	srli	a1,a1,0x20
ffffffc050202b30:	9201                	srli	a2,a2,0x20
ffffffc050202b32:	0342                	slli	t1,t1,0x10
ffffffc050202b34:	48a9                	li	a7,10
ffffffc050202b36:	4801                	li	a6,0
ffffffc050202b38:	4781                	li	a5,0
ffffffc050202b3a:	4701                	li	a4,0
ffffffc050202b3c:	4681                	li	a3,0
ffffffc050202b3e:	9302                	jalr	t1
ffffffc050202b40:	60a2                	ld	ra,8(sp)
ffffffc050202b42:	2501                	sext.w	a0,a0
ffffffc050202b44:	0141                	addi	sp,sp,16
ffffffc050202b46:	8082                	ret

ffffffc050202b48 <set_timer>:
ffffffc050202b48:	ffc05337          	lui	t1,0xffc05
ffffffc050202b4c:	0355                	addi	t1,t1,21 # ffffffffffc05015 <__BSS_END__+0x3faf9f920d>
ffffffc050202b4e:	0342                	slli	t1,t1,0x10
ffffffc050202b50:	4881                	li	a7,0
ffffffc050202b52:	4801                	li	a6,0
ffffffc050202b54:	4781                	li	a5,0
ffffffc050202b56:	4701                	li	a4,0
ffffffc050202b58:	4681                	li	a3,0
ffffffc050202b5a:	4601                	li	a2,0
ffffffc050202b5c:	4581                	li	a1,0
ffffffc050202b5e:	8302                	jr	t1

ffffffc050202b60 <read_fdt>:
ffffffc050202b60:	ffc05337          	lui	t1,0xffc05
ffffffc050202b64:	1502                	slli	a0,a0,0x20
ffffffc050202b66:	0355                	addi	t1,t1,21 # ffffffffffc05015 <__BSS_END__+0x3faf9f920d>
ffffffc050202b68:	9101                	srli	a0,a0,0x20
ffffffc050202b6a:	0342                	slli	t1,t1,0x10
ffffffc050202b6c:	48b1                	li	a7,12
ffffffc050202b6e:	4801                	li	a6,0
ffffffc050202b70:	4781                	li	a5,0
ffffffc050202b72:	4701                	li	a4,0
ffffffc050202b74:	4681                	li	a3,0
ffffffc050202b76:	4601                	li	a2,0
ffffffc050202b78:	4581                	li	a1,0
ffffffc050202b7a:	8302                	jr	t1

ffffffc050202b7c <qemu_logging>:
ffffffc050202b7c:	ffc05337          	lui	t1,0xffc05
ffffffc050202b80:	0355                	addi	t1,t1,21 # ffffffffffc05015 <__BSS_END__+0x3faf9f920d>
ffffffc050202b82:	0342                	slli	t1,t1,0x10
ffffffc050202b84:	48b9                	li	a7,14
ffffffc050202b86:	4801                	li	a6,0
ffffffc050202b88:	4781                	li	a5,0
ffffffc050202b8a:	4701                	li	a4,0
ffffffc050202b8c:	4681                	li	a3,0
ffffffc050202b8e:	4601                	li	a2,0
ffffffc050202b90:	4581                	li	a1,0
ffffffc050202b92:	8302                	jr	t1

ffffffc050202b94 <send_ipi>:
ffffffc050202b94:	ffc05337          	lui	t1,0xffc05
ffffffc050202b98:	0355                	addi	t1,t1,21 # ffffffffffc05015 <__BSS_END__+0x3faf9f920d>
ffffffc050202b9a:	0342                	slli	t1,t1,0x10
ffffffc050202b9c:	4891                	li	a7,4
ffffffc050202b9e:	4801                	li	a6,0
ffffffc050202ba0:	4781                	li	a5,0
ffffffc050202ba2:	4701                	li	a4,0
ffffffc050202ba4:	4681                	li	a3,0
ffffffc050202ba6:	4601                	li	a2,0
ffffffc050202ba8:	4581                	li	a1,0
ffffffc050202baa:	8302                	jr	t1

ffffffc050202bac <screen_move_cursor>:
ffffffc050202bac:	1101                	addi	sp,sp,-32
ffffffc050202bae:	e822                	sd	s0,16(sp)
ffffffc050202bb0:	e42e                	sd	a1,8(sp)
ffffffc050202bb2:	ec06                	sd	ra,24(sp)
ffffffc050202bb4:	842a                	mv	s0,a0
ffffffc050202bb6:	c3fff0ef          	jal	ffffffc0502027f4 <get_current_cpu_id>
ffffffc050202bba:	65a2                	ld	a1,8(sp)
ffffffc050202bbc:	4781                	li	a5,0
ffffffc050202bbe:	00044463          	bltz	s0,ffffffc050202bc6 <screen_move_cursor+0x1a>
ffffffc050202bc2:	0004079b          	sext.w	a5,s0
ffffffc050202bc6:	04f00713          	li	a4,79
ffffffc050202bca:	00f75363          	bge	a4,a5,ffffffc050202bd0 <screen_move_cursor+0x24>
ffffffc050202bce:	87ba                	mv	a5,a4
ffffffc050202bd0:	872e                	mv	a4,a1
ffffffc050202bd2:	0005d363          	bgez	a1,ffffffc050202bd8 <screen_move_cursor+0x2c>
ffffffc050202bd6:	4701                	li	a4,0
ffffffc050202bd8:	0007069b          	sext.w	a3,a4
ffffffc050202bdc:	03100613          	li	a2,49
ffffffc050202be0:	00d65363          	bge	a2,a3,ffffffc050202be6 <screen_move_cursor+0x3a>
ffffffc050202be4:	8732                	mv	a4,a2
ffffffc050202be6:	2501                	sext.w	a0,a0
ffffffc050202be8:	050e                	slli	a0,a0,0x3
ffffffc050202bea:	00007697          	auipc	a3,0x7
ffffffc050202bee:	2fe68693          	addi	a3,a3,766 # ffffffc050209ee8 <current_running>
ffffffc050202bf2:	96aa                	add	a3,a3,a0
ffffffc050202bf4:	628c                	ld	a1,0(a3)
ffffffc050202bf6:	6442                	ld	s0,16(sp)
ffffffc050202bf8:	60e2                	ld	ra,24(sp)
ffffffc050202bfa:	c5bc                	sw	a5,72(a1)
ffffffc050202bfc:	c5f8                	sw	a4,76(a1)
ffffffc050202bfe:	0017869b          	addiw	a3,a5,1
ffffffc050202c02:	0017061b          	addiw	a2,a4,1
ffffffc050202c06:	45ed                	li	a1,27
ffffffc050202c08:	00002517          	auipc	a0,0x2
ffffffc050202c0c:	74850513          	addi	a0,a0,1864 # ffffffc050205350 <strcat+0x1a6>
ffffffc050202c10:	6105                	addi	sp,sp,32
ffffffc050202c12:	4140206f          	j	ffffffc050205026 <printv>

ffffffc050202c16 <screen_reflush>:
ffffffc050202c16:	715d                	addi	sp,sp,-80
ffffffc050202c18:	ec56                	sd	s5,24(sp)
ffffffc050202c1a:	fe029ab7          	lui	s5,0xfe029
ffffffc050202c1e:	e85a                	sd	s6,16(sp)
ffffffc050202c20:	0ab6                	slli	s5,s5,0xd
ffffffc050202c22:	00004b17          	auipc	s6,0x4
ffffffc050202c26:	276b0b13          	addi	s6,s6,630 # ffffffc050206e98 <old_screen>
ffffffc050202c2a:	f84a                	sd	s2,48(sp)
ffffffc050202c2c:	f44e                	sd	s3,40(sp)
ffffffc050202c2e:	e45e                	sd	s7,8(sp)
ffffffc050202c30:	e062                	sd	s8,0(sp)
ffffffc050202c32:	e486                	sd	ra,72(sp)
ffffffc050202c34:	e0a2                	sd	s0,64(sp)
ffffffc050202c36:	fc26                	sd	s1,56(sp)
ffffffc050202c38:	f052                	sd	s4,32(sp)
ffffffc050202c3a:	f08a8a93          	addi	s5,s5,-248 # fffffffffe028f08 <__BSS_END__+0x3fade1d100>
ffffffc050202c3e:	41600b3b          	negw	s6,s6
ffffffc050202c42:	00004997          	auipc	s3,0x4
ffffffc050202c46:	2a698993          	addi	s3,s3,678 # ffffffc050206ee8 <old_screen+0x50>
ffffffc050202c4a:	00005b97          	auipc	s7,0x5
ffffffc050202c4e:	1eeb8b93          	addi	s7,s7,494 # ffffffc050207e38 <new_screen>
ffffffc050202c52:	4901                	li	s2,0
ffffffc050202c54:	03200c13          	li	s8,50
ffffffc050202c58:	2905                	addiw	s2,s2,1
ffffffc050202c5a:	fb098413          	addi	s0,s3,-80
ffffffc050202c5e:	84de                	mv	s1,s7
ffffffc050202c60:	001b0a1b          	addiw	s4,s6,1
ffffffc050202c64:	0004c703          	lbu	a4,0(s1)
ffffffc050202c68:	00044783          	lbu	a5,0(s0)
ffffffc050202c6c:	008a06bb          	addw	a3,s4,s0
ffffffc050202c70:	864a                	mv	a2,s2
ffffffc050202c72:	45ed                	li	a1,27
ffffffc050202c74:	00002517          	auipc	a0,0x2
ffffffc050202c78:	6dc50513          	addi	a0,a0,1756 # ffffffc050205350 <strcat+0x1a6>
ffffffc050202c7c:	02f70163          	beq	a4,a5,ffffffc050202c9e <screen_reflush+0x88>
ffffffc050202c80:	3a6020ef          	jal	ffffffc050205026 <printv>
ffffffc050202c84:	000ab783          	ld	a5,0(s5)
ffffffc050202c88:	0004c503          	lbu	a0,0(s1)
ffffffc050202c8c:	4701                	li	a4,0
ffffffc050202c8e:	4681                	li	a3,0
ffffffc050202c90:	4601                	li	a2,0
ffffffc050202c92:	4581                	li	a1,0
ffffffc050202c94:	9782                	jalr	a5
ffffffc050202c96:	0004c783          	lbu	a5,0(s1)
ffffffc050202c9a:	00f40023          	sb	a5,0(s0)
ffffffc050202c9e:	0405                	addi	s0,s0,1
ffffffc050202ca0:	0485                	addi	s1,s1,1
ffffffc050202ca2:	fd3411e3          	bne	s0,s3,ffffffc050202c64 <screen_reflush+0x4e>
ffffffc050202ca6:	05040993          	addi	s3,s0,80
ffffffc050202caa:	050b8b93          	addi	s7,s7,80
ffffffc050202cae:	fb0b0b1b          	addiw	s6,s6,-80
ffffffc050202cb2:	fb8913e3          	bne	s2,s8,ffffffc050202c58 <screen_reflush+0x42>
ffffffc050202cb6:	b3fff0ef          	jal	ffffffc0502027f4 <get_current_cpu_id>
ffffffc050202cba:	0005079b          	sext.w	a5,a0
ffffffc050202cbe:	078e                	slli	a5,a5,0x3
ffffffc050202cc0:	00007717          	auipc	a4,0x7
ffffffc050202cc4:	22870713          	addi	a4,a4,552 # ffffffc050209ee8 <current_running>
ffffffc050202cc8:	97ba                	add	a5,a5,a4
ffffffc050202cca:	639c                	ld	a5,0(a5)
ffffffc050202ccc:	6406                	ld	s0,64(sp)
ffffffc050202cce:	60a6                	ld	ra,72(sp)
ffffffc050202cd0:	47b4                	lw	a3,72(a5)
ffffffc050202cd2:	47f0                	lw	a2,76(a5)
ffffffc050202cd4:	74e2                	ld	s1,56(sp)
ffffffc050202cd6:	7942                	ld	s2,48(sp)
ffffffc050202cd8:	79a2                	ld	s3,40(sp)
ffffffc050202cda:	7a02                	ld	s4,32(sp)
ffffffc050202cdc:	6ae2                	ld	s5,24(sp)
ffffffc050202cde:	6b42                	ld	s6,16(sp)
ffffffc050202ce0:	6ba2                	ld	s7,8(sp)
ffffffc050202ce2:	6c02                	ld	s8,0(sp)
ffffffc050202ce4:	45ed                	li	a1,27
ffffffc050202ce6:	00002517          	auipc	a0,0x2
ffffffc050202cea:	66a50513          	addi	a0,a0,1642 # ffffffc050205350 <strcat+0x1a6>
ffffffc050202cee:	2685                	addiw	a3,a3,1
ffffffc050202cf0:	2605                	addiw	a2,a2,1
ffffffc050202cf2:	6161                	addi	sp,sp,80
ffffffc050202cf4:	3320206f          	j	ffffffc050205026 <printv>

ffffffc050202cf8 <screen_write_ch>:
ffffffc050202cf8:	1141                	addi	sp,sp,-16
ffffffc050202cfa:	e022                	sd	s0,0(sp)
ffffffc050202cfc:	e406                	sd	ra,8(sp)
ffffffc050202cfe:	842a                	mv	s0,a0
ffffffc050202d00:	af5ff0ef          	jal	ffffffc0502027f4 <get_current_cpu_id>
ffffffc050202d04:	2501                	sext.w	a0,a0
ffffffc050202d06:	050e                	slli	a0,a0,0x3
ffffffc050202d08:	00007797          	auipc	a5,0x7
ffffffc050202d0c:	1e078793          	addi	a5,a5,480 # ffffffc050209ee8 <current_running>
ffffffc050202d10:	97aa                	add	a5,a5,a0
ffffffc050202d12:	4729                	li	a4,10
ffffffc050202d14:	639c                	ld	a5,0(a5)
ffffffc050202d16:	02e40f63          	beq	s0,a4,ffffffc050202d54 <screen_write_ch+0x5c>
ffffffc050202d1a:	ff840713          	addi	a4,s0,-8
ffffffc050202d1e:	47b0                	lw	a2,72(a5)
ffffffc050202d20:	0004069b          	sext.w	a3,s0
ffffffc050202d24:	c729                	beqz	a4,ffffffc050202d6e <screen_write_ch+0x76>
ffffffc050202d26:	f8168693          	addi	a3,a3,-127
ffffffc050202d2a:	c2b1                	beqz	a3,ffffffc050202d6e <screen_write_ch+0x76>
ffffffc050202d2c:	47ec                	lw	a1,76(a5)
ffffffc050202d2e:	00005697          	auipc	a3,0x5
ffffffc050202d32:	10a68693          	addi	a3,a3,266 # ffffffc050207e38 <new_screen>
ffffffc050202d36:	04f00513          	li	a0,79
ffffffc050202d3a:	0025971b          	slliw	a4,a1,0x2
ffffffc050202d3e:	9f2d                	addw	a4,a4,a1
ffffffc050202d40:	0047171b          	slliw	a4,a4,0x4
ffffffc050202d44:	9f31                	addw	a4,a4,a2
ffffffc050202d46:	9736                	add	a4,a4,a3
ffffffc050202d48:	00870023          	sb	s0,0(a4)
ffffffc050202d4c:	47b8                	lw	a4,72(a5)
ffffffc050202d4e:	2705                	addiw	a4,a4,1
ffffffc050202d50:	02e55763          	bge	a0,a4,ffffffc050202d7e <screen_write_ch+0x86>
ffffffc050202d54:	47f8                	lw	a4,76(a5)
ffffffc050202d56:	0407a423          	sw	zero,72(a5)
ffffffc050202d5a:	03100693          	li	a3,49
ffffffc050202d5e:	00e6c463          	blt	a3,a4,ffffffc050202d66 <screen_write_ch+0x6e>
ffffffc050202d62:	2705                	addiw	a4,a4,1
ffffffc050202d64:	c7f8                	sw	a4,76(a5)
ffffffc050202d66:	60a2                	ld	ra,8(sp)
ffffffc050202d68:	6402                	ld	s0,0(sp)
ffffffc050202d6a:	0141                	addi	sp,sp,16
ffffffc050202d6c:	8082                	ret
ffffffc050202d6e:	00c05463          	blez	a2,ffffffc050202d76 <screen_write_ch+0x7e>
ffffffc050202d72:	367d                	addiw	a2,a2,-1
ffffffc050202d74:	c7b0                	sw	a2,72(a5)
ffffffc050202d76:	6402                	ld	s0,0(sp)
ffffffc050202d78:	60a2                	ld	ra,8(sp)
ffffffc050202d7a:	0141                	addi	sp,sp,16
ffffffc050202d7c:	bd69                	j	ffffffc050202c16 <screen_reflush>
ffffffc050202d7e:	60a2                	ld	ra,8(sp)
ffffffc050202d80:	6402                	ld	s0,0(sp)
ffffffc050202d82:	c7b8                	sw	a4,72(a5)
ffffffc050202d84:	0141                	addi	sp,sp,16
ffffffc050202d86:	8082                	ret

ffffffc050202d88 <screen_write>:
ffffffc050202d88:	1101                	addi	sp,sp,-32
ffffffc050202d8a:	e822                	sd	s0,16(sp)
ffffffc050202d8c:	ec06                	sd	ra,24(sp)
ffffffc050202d8e:	842a                	mv	s0,a0
ffffffc050202d90:	330020ef          	jal	ffffffc0502050c0 <strlen>
ffffffc050202d94:	00a05d63          	blez	a0,ffffffc050202dae <screen_write+0x26>
ffffffc050202d98:	e426                	sd	s1,8(sp)
ffffffc050202d9a:	00a404b3          	add	s1,s0,a0
ffffffc050202d9e:	00044503          	lbu	a0,0(s0)
ffffffc050202da2:	0405                	addi	s0,s0,1
ffffffc050202da4:	f55ff0ef          	jal	ffffffc050202cf8 <screen_write_ch>
ffffffc050202da8:	fe941be3          	bne	s0,s1,ffffffc050202d9e <screen_write+0x16>
ffffffc050202dac:	64a2                	ld	s1,8(sp)
ffffffc050202dae:	60e2                	ld	ra,24(sp)
ffffffc050202db0:	6442                	ld	s0,16(sp)
ffffffc050202db2:	6105                	addi	sp,sp,32
ffffffc050202db4:	8082                	ret

ffffffc050202db6 <screen_clear>:
ffffffc050202db6:	1101                	addi	sp,sp,-32
ffffffc050202db8:	e822                	sd	s0,16(sp)
ffffffc050202dba:	e426                	sd	s1,8(sp)
ffffffc050202dbc:	e04a                	sd	s2,0(sp)
ffffffc050202dbe:	842e                	mv	s0,a1
ffffffc050202dc0:	ec06                	sd	ra,24(sp)
ffffffc050202dc2:	84aa                	mv	s1,a0
ffffffc050202dc4:	a31ff0ef          	jal	ffffffc0502027f4 <get_current_cpu_id>
ffffffc050202dc8:	0005091b          	sext.w	s2,a0
ffffffc050202dcc:	45ed                	li	a1,27
ffffffc050202dce:	00002517          	auipc	a0,0x2
ffffffc050202dd2:	59250513          	addi	a0,a0,1426 # ffffffc050205360 <strcat+0x1b6>
ffffffc050202dd6:	250020ef          	jal	ffffffc050205026 <printv>
ffffffc050202dda:	0484dd63          	bge	s1,s0,ffffffc050202e34 <screen_clear+0x7e>
ffffffc050202dde:	409407bb          	subw	a5,s0,s1
ffffffc050202de2:	1782                	slli	a5,a5,0x20
ffffffc050202de4:	9381                	srli	a5,a5,0x20
ffffffc050202de6:	97a6                	add	a5,a5,s1
ffffffc050202de8:	00279513          	slli	a0,a5,0x2
ffffffc050202dec:	00249593          	slli	a1,s1,0x2
ffffffc050202df0:	953e                	add	a0,a0,a5
ffffffc050202df2:	95a6                	add	a1,a1,s1
ffffffc050202df4:	00004697          	auipc	a3,0x4
ffffffc050202df8:	c946b683          	ld	a3,-876(a3) # ffffffc050206a88 <__SDATA_BEGIN__>
ffffffc050202dfc:	00005617          	auipc	a2,0x5
ffffffc050202e00:	08c60613          	addi	a2,a2,140 # ffffffc050207e88 <new_screen+0x50>
ffffffc050202e04:	0592                	slli	a1,a1,0x4
ffffffc050202e06:	0512                	slli	a0,a0,0x4
ffffffc050202e08:	00004797          	auipc	a5,0x4
ffffffc050202e0c:	09078793          	addi	a5,a5,144 # ffffffc050206e98 <old_screen>
ffffffc050202e10:	9532                	add	a0,a0,a2
ffffffc050202e12:	962e                	add	a2,a2,a1
ffffffc050202e14:	95be                	add	a1,a1,a5
ffffffc050202e16:	fb060793          	addi	a5,a2,-80
ffffffc050202e1a:	872e                	mv	a4,a1
ffffffc050202e1c:	e394                	sd	a3,0(a5)
ffffffc050202e1e:	e314                	sd	a3,0(a4)
ffffffc050202e20:	07a1                	addi	a5,a5,8
ffffffc050202e22:	0721                	addi	a4,a4,8
ffffffc050202e24:	fec79ce3          	bne	a5,a2,ffffffc050202e1c <screen_clear+0x66>
ffffffc050202e28:	05060613          	addi	a2,a2,80
ffffffc050202e2c:	05058593          	addi	a1,a1,80
ffffffc050202e30:	fea613e3          	bne	a2,a0,ffffffc050202e16 <screen_clear+0x60>
ffffffc050202e34:	090e                	slli	s2,s2,0x3
ffffffc050202e36:	00007797          	auipc	a5,0x7
ffffffc050202e3a:	0b278793          	addi	a5,a5,178 # ffffffc050209ee8 <current_running>
ffffffc050202e3e:	97ca                	add	a5,a5,s2
ffffffc050202e40:	639c                	ld	a5,0(a5)
ffffffc050202e42:	6442                	ld	s0,16(sp)
ffffffc050202e44:	60e2                	ld	ra,24(sp)
ffffffc050202e46:	6902                	ld	s2,0(sp)
ffffffc050202e48:	c7e4                	sw	s1,76(a5)
ffffffc050202e4a:	64a2                	ld	s1,8(sp)
ffffffc050202e4c:	0407a423          	sw	zero,72(a5)
ffffffc050202e50:	6105                	addi	sp,sp,32
ffffffc050202e52:	b3d1                	j	ffffffc050202c16 <screen_reflush>

ffffffc050202e54 <init_screen>:
ffffffc050202e54:	1141                	addi	sp,sp,-16
ffffffc050202e56:	45ed                	li	a1,27
ffffffc050202e58:	00002517          	auipc	a0,0x2
ffffffc050202e5c:	51050513          	addi	a0,a0,1296 # ffffffc050205368 <strcat+0x1be>
ffffffc050202e60:	e406                	sd	ra,8(sp)
ffffffc050202e62:	e022                	sd	s0,0(sp)
ffffffc050202e64:	1c2020ef          	jal	ffffffc050205026 <printv>
ffffffc050202e68:	45ed                	li	a1,27
ffffffc050202e6a:	00002517          	auipc	a0,0x2
ffffffc050202e6e:	4f650513          	addi	a0,a0,1270 # ffffffc050205360 <strcat+0x1b6>
ffffffc050202e72:	1b4020ef          	jal	ffffffc050205026 <printv>
ffffffc050202e76:	97fff0ef          	jal	ffffffc0502027f4 <get_current_cpu_id>
ffffffc050202e7a:	842a                	mv	s0,a0
ffffffc050202e7c:	45ed                	li	a1,27
ffffffc050202e7e:	00002517          	auipc	a0,0x2
ffffffc050202e82:	4e250513          	addi	a0,a0,1250 # ffffffc050205360 <strcat+0x1b6>
ffffffc050202e86:	1a0020ef          	jal	ffffffc050205026 <printv>
ffffffc050202e8a:	00004697          	auipc	a3,0x4
ffffffc050202e8e:	bfe6b683          	ld	a3,-1026(a3) # ffffffc050206a88 <__SDATA_BEGIN__>
ffffffc050202e92:	2401                	sext.w	s0,s0
ffffffc050202e94:	00005517          	auipc	a0,0x5
ffffffc050202e98:	fa450513          	addi	a0,a0,-92 # ffffffc050207e38 <new_screen>
ffffffc050202e9c:	00004597          	auipc	a1,0x4
ffffffc050202ea0:	ffc58593          	addi	a1,a1,-4 # ffffffc050206e98 <old_screen>
ffffffc050202ea4:	00005617          	auipc	a2,0x5
ffffffc050202ea8:	fe460613          	addi	a2,a2,-28 # ffffffc050207e88 <new_screen+0x50>
ffffffc050202eac:	00006817          	auipc	a6,0x6
ffffffc050202eb0:	f7c80813          	addi	a6,a6,-132 # ffffffc050208e28 <irq_table+0x50>
ffffffc050202eb4:	872e                	mv	a4,a1
ffffffc050202eb6:	87aa                	mv	a5,a0
ffffffc050202eb8:	e394                	sd	a3,0(a5)
ffffffc050202eba:	e314                	sd	a3,0(a4)
ffffffc050202ebc:	07a1                	addi	a5,a5,8
ffffffc050202ebe:	0721                	addi	a4,a4,8
ffffffc050202ec0:	fec79ce3          	bne	a5,a2,ffffffc050202eb8 <init_screen+0x64>
ffffffc050202ec4:	05078613          	addi	a2,a5,80
ffffffc050202ec8:	05050513          	addi	a0,a0,80
ffffffc050202ecc:	05058593          	addi	a1,a1,80
ffffffc050202ed0:	ff0612e3          	bne	a2,a6,ffffffc050202eb4 <init_screen+0x60>
ffffffc050202ed4:	040e                	slli	s0,s0,0x3
ffffffc050202ed6:	00007797          	auipc	a5,0x7
ffffffc050202eda:	01278793          	addi	a5,a5,18 # ffffffc050209ee8 <current_running>
ffffffc050202ede:	97a2                	add	a5,a5,s0
ffffffc050202ee0:	639c                	ld	a5,0(a5)
ffffffc050202ee2:	6402                	ld	s0,0(sp)
ffffffc050202ee4:	60a2                	ld	ra,8(sp)
ffffffc050202ee6:	0407b423          	sd	zero,72(a5)
ffffffc050202eea:	0141                	addi	sp,sp,16
ffffffc050202eec:	b32d                	j	ffffffc050202c16 <screen_reflush>

ffffffc050202eee <handle_irq_soft>:
ffffffc050202eee:	4789                	li	a5,2
ffffffc050202ef0:	1447b073          	csrc	sip,a5
ffffffc050202ef4:	8082                	ret

ffffffc050202ef6 <handle_irq_timer>:
ffffffc050202ef6:	1141                	addi	sp,sp,-16
ffffffc050202ef8:	e406                	sd	ra,8(sp)
ffffffc050202efa:	31d010ef          	jal	ffffffc050204a16 <get_ticks>
ffffffc050202efe:	6785                	lui	a5,0x1
ffffffc050202f00:	38878793          	addi	a5,a5,904 # 1388 <boot_stack_top_base-0x50200c78>
ffffffc050202f04:	953e                	add	a0,a0,a5
ffffffc050202f06:	c43ff0ef          	jal	ffffffc050202b48 <set_timer>
ffffffc050202f0a:	60a2                	ld	ra,8(sp)
ffffffc050202f0c:	0141                	addi	sp,sp,16
ffffffc050202f0e:	0980106f          	j	ffffffc050203fa6 <do_scheduler>

ffffffc050202f12 <handle_page_fault>:
ffffffc050202f12:	1101                	addi	sp,sp,-32
ffffffc050202f14:	57fd                	li	a5,-1
ffffffc050202f16:	ec06                	sd	ra,24(sp)
ffffffc050202f18:	83e9                	srli	a5,a5,0x1a
ffffffc050202f1a:	02b7e663          	bltu	a5,a1,ffffffc050202f46 <handle_page_fault+0x34>
ffffffc050202f1e:	e42e                	sd	a1,8(sp)
ffffffc050202f20:	8d5ff0ef          	jal	ffffffc0502027f4 <get_current_cpu_id>
ffffffc050202f24:	2501                	sext.w	a0,a0
ffffffc050202f26:	050e                	slli	a0,a0,0x3
ffffffc050202f28:	00007797          	auipc	a5,0x7
ffffffc050202f2c:	fc078793          	addi	a5,a5,-64 # ffffffc050209ee8 <current_running>
ffffffc050202f30:	97aa                	add	a5,a5,a0
ffffffc050202f32:	639c                	ld	a5,0(a5)
ffffffc050202f34:	6522                	ld	a0,8(sp)
ffffffc050202f36:	6bec                	ld	a1,208(a5)
ffffffc050202f38:	681000ef          	jal	ffffffc050203db8 <alloc_page_helper>
ffffffc050202f3c:	12000073          	sfence.vma
ffffffc050202f40:	60e2                	ld	ra,24(sp)
ffffffc050202f42:	6105                	addi	sp,sp,32
ffffffc050202f44:	8082                	ret
ffffffc050202f46:	00002517          	auipc	a0,0x2
ffffffc050202f4a:	42a50513          	addi	a0,a0,1066 # ffffffc050205370 <strcat+0x1c6>
ffffffc050202f4e:	0ac020ef          	jal	ffffffc050204ffa <printk>
ffffffc050202f52:	60e2                	ld	ra,24(sp)
ffffffc050202f54:	6105                	addi	sp,sp,32
ffffffc050202f56:	5060106f          	j	ffffffc05020445c <do_exit>

ffffffc050202f5a <handle_other>:
ffffffc050202f5a:	710d                	addi	sp,sp,-352
ffffffc050202f5c:	ee5e                	sd	s7,280(sp)
ffffffc050202f5e:	ea62                	sd	s8,272(sp)
ffffffc050202f60:	e666                	sd	s9,264(sp)
ffffffc050202f62:	ee86                	sd	ra,344(sp)
ffffffc050202f64:	eaa2                	sd	s0,336(sp)
ffffffc050202f66:	e6a6                	sd	s1,328(sp)
ffffffc050202f68:	e2ca                	sd	s2,320(sp)
ffffffc050202f6a:	fe4e                	sd	s3,312(sp)
ffffffc050202f6c:	fa52                	sd	s4,304(sp)
ffffffc050202f6e:	f656                	sd	s5,296(sp)
ffffffc050202f70:	f25a                	sd	s6,288(sp)
ffffffc050202f72:	8baa                	mv	s7,a0
ffffffc050202f74:	8c2e                	mv	s8,a1
ffffffc050202f76:	8cb2                	mv	s9,a2
ffffffc050202f78:	00002797          	auipc	a5,0x2
ffffffc050202f7c:	67078793          	addi	a5,a5,1648 # ffffffc0502055e8 <strcat+0x43e>
ffffffc050202f80:	870a                	mv	a4,sp
ffffffc050202f82:	00002697          	auipc	a3,0x2
ffffffc050202f86:	76668693          	addi	a3,a3,1894 # ffffffc0502056e8 <__FUNCTION__.0>
ffffffc050202f8a:	0007b803          	ld	a6,0(a5)
ffffffc050202f8e:	6788                	ld	a0,8(a5)
ffffffc050202f90:	6b8c                	ld	a1,16(a5)
ffffffc050202f92:	6f90                	ld	a2,24(a5)
ffffffc050202f94:	01073023          	sd	a6,0(a4)
ffffffc050202f98:	e708                	sd	a0,8(a4)
ffffffc050202f9a:	eb0c                	sd	a1,16(a4)
ffffffc050202f9c:	ef10                	sd	a2,24(a4)
ffffffc050202f9e:	02078793          	addi	a5,a5,32
ffffffc050202fa2:	02070713          	addi	a4,a4,32
ffffffc050202fa6:	fed792e3          	bne	a5,a3,ffffffc050202f8a <handle_other+0x30>
ffffffc050202faa:	8a8a                	mv	s5,sp
ffffffc050202fac:	8a5e                	mv	s4,s7
ffffffc050202fae:	598d                	li	s3,-29
ffffffc050202fb0:	4b11                	li	s6,4
ffffffc050202fb2:	8952                	mv	s2,s4
ffffffc050202fb4:	84d6                	mv	s1,s5
ffffffc050202fb6:	440d                	li	s0,3
ffffffc050202fb8:	00002517          	auipc	a0,0x2
ffffffc050202fbc:	3e050513          	addi	a0,a0,992 # ffffffc050205398 <strcat+0x1ee>
ffffffc050202fc0:	09340363          	beq	s0,s3,ffffffc050203046 <handle_other+0xec>
ffffffc050202fc4:	00093603          	ld	a2,0(s2)
ffffffc050202fc8:	608c                	ld	a1,0(s1)
ffffffc050202fca:	347d                	addiw	s0,s0,-1
ffffffc050202fcc:	04a1                	addi	s1,s1,8
ffffffc050202fce:	02c020ef          	jal	ffffffc050204ffa <printk>
ffffffc050202fd2:	0921                	addi	s2,s2,8
ffffffc050202fd4:	f075                	bnez	s0,ffffffc050202fb8 <handle_other+0x5e>
ffffffc050202fd6:	00002517          	auipc	a0,0x2
ffffffc050202fda:	21a50513          	addi	a0,a0,538 # ffffffc0502051f0 <strcat+0x46>
ffffffc050202fde:	298d                	addiw	s3,s3,3
ffffffc050202fe0:	01a020ef          	jal	ffffffc050204ffa <printk>
ffffffc050202fe4:	0ae1                	addi	s5,s5,24
ffffffc050202fe6:	0a61                	addi	s4,s4,24 # fffffffffc051018 <__BSS_END__+0x3fabe45210>
ffffffc050202fe8:	fd6995e3          	bne	s3,s6,ffffffc050202fb2 <handle_other+0x58>
ffffffc050202fec:	118bb683          	ld	a3,280(s7)
ffffffc050202ff0:	110bb603          	ld	a2,272(s7)
ffffffc050202ff4:	100bb583          	ld	a1,256(s7)
ffffffc050202ff8:	00002517          	auipc	a0,0x2
ffffffc050202ffc:	3b050513          	addi	a0,a0,944 # ffffffc0502053a8 <strcat+0x1fe>
ffffffc050203000:	7fb010ef          	jal	ffffffc050204ffa <printk>
ffffffc050203004:	108bb583          	ld	a1,264(s7)
ffffffc050203008:	00002517          	auipc	a0,0x2
ffffffc05020300c:	3d050513          	addi	a0,a0,976 # ffffffc0502053d8 <strcat+0x22e>
ffffffc050203010:	7eb010ef          	jal	ffffffc050204ffa <printk>
ffffffc050203014:	8666                	mv	a2,s9
ffffffc050203016:	85e2                	mv	a1,s8
ffffffc050203018:	00002517          	auipc	a0,0x2
ffffffc05020301c:	3d050513          	addi	a0,a0,976 # ffffffc0502053e8 <strcat+0x23e>
ffffffc050203020:	7db010ef          	jal	ffffffc050204ffa <printk>
ffffffc050203024:	06600693          	li	a3,102
ffffffc050203028:	00002617          	auipc	a2,0x2
ffffffc05020302c:	3e060613          	addi	a2,a2,992 # ffffffc050205408 <strcat+0x25e>
ffffffc050203030:	00002597          	auipc	a1,0x2
ffffffc050203034:	6b858593          	addi	a1,a1,1720 # ffffffc0502056e8 <__FUNCTION__.0>
ffffffc050203038:	00002517          	auipc	a0,0x2
ffffffc05020303c:	3e850513          	addi	a0,a0,1000 # ffffffc050205420 <strcat+0x276>
ffffffc050203040:	7bb010ef          	jal	ffffffc050204ffa <printk>
ffffffc050203044:	a001                	j	ffffffc050203044 <handle_other+0xea>
ffffffc050203046:	00002517          	auipc	a0,0x2
ffffffc05020304a:	1aa50513          	addi	a0,a0,426 # ffffffc0502051f0 <strcat+0x46>
ffffffc05020304e:	7ad010ef          	jal	ffffffc050204ffa <printk>
ffffffc050203052:	bf69                	j	ffffffc050202fec <handle_other+0x92>

ffffffc050203054 <interrupt_helper>:
ffffffc050203054:	00361793          	slli	a5,a2,0x3
ffffffc050203058:	00006717          	auipc	a4,0x6
ffffffc05020305c:	d8070713          	addi	a4,a4,-640 # ffffffc050208dd8 <irq_table>
ffffffc050203060:	97ba                	add	a5,a5,a4
ffffffc050203062:	00064463          	bltz	a2,ffffffc05020306a <interrupt_helper+0x16>
ffffffc050203066:	73bc                	ld	a5,96(a5)
ffffffc050203068:	8782                	jr	a5
ffffffc05020306a:	639c                	ld	a5,0(a5)
ffffffc05020306c:	8782                	jr	a5

ffffffc05020306e <init_exception>:
ffffffc05020306e:	00006617          	auipc	a2,0x6
ffffffc050203072:	dca60613          	addi	a2,a2,-566 # ffffffc050208e38 <exc_table>
ffffffc050203076:	87b2                	mv	a5,a2
ffffffc050203078:	00006697          	auipc	a3,0x6
ffffffc05020307c:	e4068693          	addi	a3,a3,-448 # ffffffc050208eb8 <mlocks>
ffffffc050203080:	00000717          	auipc	a4,0x0
ffffffc050203084:	eda70713          	addi	a4,a4,-294 # ffffffc050202f5a <handle_other>
ffffffc050203088:	e398                	sd	a4,0(a5)
ffffffc05020308a:	07a1                	addi	a5,a5,8
ffffffc05020308c:	fed79ee3          	bne	a5,a3,ffffffc050203088 <init_exception+0x1a>
ffffffc050203090:	00002697          	auipc	a3,0x2
ffffffc050203094:	a0e68693          	addi	a3,a3,-1522 # ffffffc050204a9e <handle_syscall>
ffffffc050203098:	00000797          	auipc	a5,0x0
ffffffc05020309c:	e7a78793          	addi	a5,a5,-390 # ffffffc050202f12 <handle_page_fault>
ffffffc0502030a0:	00006597          	auipc	a1,0x6
ffffffc0502030a4:	dcd5bc23          	sd	a3,-552(a1) # ffffffc050208e78 <exc_table+0x40>
ffffffc0502030a8:	00006697          	auipc	a3,0x6
ffffffc0502030ac:	def6bc23          	sd	a5,-520(a3) # ffffffc050208ea0 <exc_table+0x68>
ffffffc0502030b0:	00006697          	auipc	a3,0x6
ffffffc0502030b4:	e0f6b023          	sd	a5,-512(a3) # ffffffc050208eb0 <exc_table+0x78>
ffffffc0502030b8:	00006797          	auipc	a5,0x6
ffffffc0502030bc:	d2078793          	addi	a5,a5,-736 # ffffffc050208dd8 <irq_table>
ffffffc0502030c0:	e398                	sd	a4,0(a5)
ffffffc0502030c2:	07a1                	addi	a5,a5,8
ffffffc0502030c4:	fec79ee3          	bne	a5,a2,ffffffc0502030c0 <init_exception+0x52>
ffffffc0502030c8:	00000717          	auipc	a4,0x0
ffffffc0502030cc:	e2e70713          	addi	a4,a4,-466 # ffffffc050202ef6 <handle_irq_timer>
ffffffc0502030d0:	00000797          	auipc	a5,0x0
ffffffc0502030d4:	e1e78793          	addi	a5,a5,-482 # ffffffc050202eee <handle_irq_soft>
ffffffc0502030d8:	00006697          	auipc	a3,0x6
ffffffc0502030dc:	d2e6b423          	sd	a4,-728(a3) # ffffffc050208e00 <irq_table+0x28>
ffffffc0502030e0:	00006717          	auipc	a4,0x6
ffffffc0502030e4:	d0f73023          	sd	a5,-768(a4) # ffffffc050208de0 <irq_table+0x8>
ffffffc0502030e8:	f14ff06f          	j	ffffffc0502027fc <setup_exception>

ffffffc0502030ec <load_task_img>:
ffffffc0502030ec:	7119                	addi	sp,sp,-128
ffffffc0502030ee:	fc86                	sd	ra,120(sp)
ffffffc0502030f0:	e8d2                	sd	s4,80(sp)
ffffffc0502030f2:	12c05363          	blez	a2,ffffffc050203218 <load_task_img+0x12c>
ffffffc0502030f6:	f8a2                	sd	s0,112(sp)
ffffffc0502030f8:	f4a6                	sd	s1,104(sp)
ffffffc0502030fa:	f0ca                	sd	s2,96(sp)
ffffffc0502030fc:	ecce                	sd	s3,88(sp)
ffffffc0502030fe:	e0da                	sd	s6,64(sp)
ffffffc050203100:	89ae                	mv	s3,a1
ffffffc050203102:	8932                	mv	s2,a2
ffffffc050203104:	8a2a                	mv	s4,a0
ffffffc050203106:	8b36                	mv	s6,a3
ffffffc050203108:	01858493          	addi	s1,a1,24
ffffffc05020310c:	4401                	li	s0,0
ffffffc05020310e:	a031                	j	ffffffc05020311a <load_task_img+0x2e>
ffffffc050203110:	2405                	addiw	s0,s0,1
ffffffc050203112:	02848493          	addi	s1,s1,40
ffffffc050203116:	0e890c63          	beq	s2,s0,ffffffc05020320e <load_task_img+0x122>
ffffffc05020311a:	85d2                	mv	a1,s4
ffffffc05020311c:	8526                	mv	a0,s1
ffffffc05020311e:	7c1010ef          	jal	ffffffc0502050de <strcmp>
ffffffc050203122:	f57d                	bnez	a0,ffffffc050203110 <load_task_img+0x24>
ffffffc050203124:	00241793          	slli	a5,s0,0x2
ffffffc050203128:	97a2                	add	a5,a5,s0
ffffffc05020312a:	078e                	slli	a5,a5,0x3
ffffffc05020312c:	99be                	add	s3,s3,a5
ffffffc05020312e:	0009ba03          	ld	s4,0(s3)
ffffffc050203132:	e4d6                	sd	s5,72(sp)
ffffffc050203134:	0149aa83          	lw	s5,20(s3)
ffffffc050203138:	9ad2                	add	s5,s5,s4
ffffffc05020313a:	115a7463          	bgeu	s4,s5,ffffffc050203242 <load_task_img+0x156>
ffffffc05020313e:	fc5e                	sd	s7,56(sp)
ffffffc050203140:	00c9ab83          	lw	s7,12(s3)
ffffffc050203144:	f862                	sd	s8,48(sp)
ffffffc050203146:	fc0597b7          	lui	a5,0xfc059
ffffffc05020314a:	fe029c37          	lui	s8,0xfe029
ffffffc05020314e:	0c36                	slli	s8,s8,0xd
ffffffc050203150:	07b2                	slli	a5,a5,0xc
ffffffc050203152:	f466                	sd	s9,40(sp)
ffffffc050203154:	f06a                	sd	s10,32(sp)
ffffffc050203156:	ec6e                	sd	s11,24(sp)
ffffffc050203158:	6905                	lui	s2,0x1
ffffffc05020315a:	f18c0c13          	addi	s8,s8,-232 # fffffffffe028f18 <__BSS_END__+0x3fade1d110>
ffffffc05020315e:	414b8bb3          	sub	s7,s7,s4
ffffffc050203162:	e43e                	sd	a5,8(sp)
ffffffc050203164:	8452                	mv	s0,s4
ffffffc050203166:	4481                	li	s1,0
ffffffc050203168:	85da                	mv	a1,s6
ffffffc05020316a:	8522                	mv	a0,s0
ffffffc05020316c:	44d000ef          	jal	ffffffc050203db8 <alloc_page_helper>
ffffffc050203170:	0109a783          	lw	a5,16(s3)
ffffffc050203174:	8daa                	mv	s11,a0
ffffffc050203176:	6605                	lui	a2,0x1
ffffffc050203178:	4581                	li	a1,0
ffffffc05020317a:	01478833          	add	a6,a5,s4
ffffffc05020317e:	06f4f063          	bgeu	s1,a5,ffffffc0502031de <load_task_img+0xf2>
ffffffc050203182:	008b87b3          	add	a5,s7,s0
ffffffc050203186:	1ff7f313          	andi	t1,a5,511
ffffffc05020318a:	1ff30e13          	addi	t3,t1,511
ffffffc05020318e:	4701                	li	a4,0
ffffffc050203190:	4681                	li	a3,0
ffffffc050203192:	40880d33          	sub	s10,a6,s0
ffffffc050203196:	04880463          	beq	a6,s0,ffffffc0502031de <load_task_img+0xf2>
ffffffc05020319a:	01779593          	slli	a1,a5,0x17
ffffffc05020319e:	0205d613          	srli	a2,a1,0x20
ffffffc0502031a2:	59000537          	lui	a0,0x59000
ffffffc0502031a6:	8cea                	mv	s9,s10
ffffffc0502031a8:	01a97363          	bgeu	s2,s10,ffffffc0502031ae <load_task_img+0xc2>
ffffffc0502031ac:	6c85                	lui	s9,0x1
ffffffc0502031ae:	000c3803          	ld	a6,0(s8)
ffffffc0502031b2:	019e05b3          	add	a1,t3,s9
ffffffc0502031b6:	81a5                	srli	a1,a1,0x9
ffffffc0502031b8:	e01a                	sd	t1,0(sp)
ffffffc0502031ba:	9802                	jalr	a6
ffffffc0502031bc:	67a2                	ld	a5,8(sp)
ffffffc0502031be:	6302                	ld	t1,0(sp)
ffffffc0502031c0:	000c861b          	sext.w	a2,s9
ffffffc0502031c4:	856e                	mv	a0,s11
ffffffc0502031c6:	00f305b3          	add	a1,t1,a5
ffffffc0502031ca:	6b5010ef          	jal	ffffffc05020507e <memcpy>
ffffffc0502031ce:	6785                	lui	a5,0x1
ffffffc0502031d0:	4197863b          	subw	a2,a5,s9
ffffffc0502031d4:	4581                	li	a1,0
ffffffc0502031d6:	01bc8533          	add	a0,s9,s11
ffffffc0502031da:	012d7463          	bgeu	s10,s2,ffffffc0502031e2 <load_task_img+0xf6>
ffffffc0502031de:	6bb010ef          	jal	ffffffc050205098 <memset>
ffffffc0502031e2:	944a                	add	s0,s0,s2
ffffffc0502031e4:	94ca                	add	s1,s1,s2
ffffffc0502031e6:	f95461e3          	bltu	s0,s5,ffffffc050203168 <load_task_img+0x7c>
ffffffc0502031ea:	0009ba03          	ld	s4,0(s3)
ffffffc0502031ee:	7446                	ld	s0,112(sp)
ffffffc0502031f0:	74a6                	ld	s1,104(sp)
ffffffc0502031f2:	7906                	ld	s2,96(sp)
ffffffc0502031f4:	69e6                	ld	s3,88(sp)
ffffffc0502031f6:	6aa6                	ld	s5,72(sp)
ffffffc0502031f8:	6b06                	ld	s6,64(sp)
ffffffc0502031fa:	7be2                	ld	s7,56(sp)
ffffffc0502031fc:	7c42                	ld	s8,48(sp)
ffffffc0502031fe:	7ca2                	ld	s9,40(sp)
ffffffc050203200:	7d02                	ld	s10,32(sp)
ffffffc050203202:	6de2                	ld	s11,24(sp)
ffffffc050203204:	70e6                	ld	ra,120(sp)
ffffffc050203206:	8552                	mv	a0,s4
ffffffc050203208:	6a46                	ld	s4,80(sp)
ffffffc05020320a:	6109                	addi	sp,sp,128
ffffffc05020320c:	8082                	ret
ffffffc05020320e:	7446                	ld	s0,112(sp)
ffffffc050203210:	74a6                	ld	s1,104(sp)
ffffffc050203212:	7906                	ld	s2,96(sp)
ffffffc050203214:	69e6                	ld	s3,88(sp)
ffffffc050203216:	6b06                	ld	s6,64(sp)
ffffffc050203218:	fe0297b7          	lui	a5,0xfe029
ffffffc05020321c:	07b6                	slli	a5,a5,0xd
ffffffc05020321e:	f0078793          	addi	a5,a5,-256 # fffffffffe028f00 <__BSS_END__+0x3fade1d0f8>
ffffffc050203222:	639c                	ld	a5,0(a5)
ffffffc050203224:	4701                	li	a4,0
ffffffc050203226:	4681                	li	a3,0
ffffffc050203228:	4601                	li	a2,0
ffffffc05020322a:	4581                	li	a1,0
ffffffc05020322c:	00002517          	auipc	a0,0x2
ffffffc050203230:	31c50513          	addi	a0,a0,796 # ffffffc050205548 <strcat+0x39e>
ffffffc050203234:	9782                	jalr	a5
ffffffc050203236:	70e6                	ld	ra,120(sp)
ffffffc050203238:	4a01                	li	s4,0
ffffffc05020323a:	8552                	mv	a0,s4
ffffffc05020323c:	6a46                	ld	s4,80(sp)
ffffffc05020323e:	6109                	addi	sp,sp,128
ffffffc050203240:	8082                	ret
ffffffc050203242:	7446                	ld	s0,112(sp)
ffffffc050203244:	74a6                	ld	s1,104(sp)
ffffffc050203246:	7906                	ld	s2,96(sp)
ffffffc050203248:	69e6                	ld	s3,88(sp)
ffffffc05020324a:	6aa6                	ld	s5,72(sp)
ffffffc05020324c:	6b06                	ld	s6,64(sp)
ffffffc05020324e:	bf5d                	j	ffffffc050203204 <load_task_img+0x118>

ffffffc050203250 <do_mutex_lock_acquire.part.0>:
ffffffc050203250:	1101                	addi	sp,sp,-32
ffffffc050203252:	e822                	sd	s0,16(sp)
ffffffc050203254:	ec06                	sd	ra,24(sp)
ffffffc050203256:	842a                	mv	s0,a0
ffffffc050203258:	d9cff0ef          	jal	ffffffc0502027f4 <get_current_cpu_id>
ffffffc05020325c:	00541713          	slli	a4,s0,0x5
ffffffc050203260:	00006597          	auipc	a1,0x6
ffffffc050203264:	c5858593          	addi	a1,a1,-936 # ffffffc050208eb8 <mlocks>
ffffffc050203268:	00e586b3          	add	a3,a1,a4
ffffffc05020326c:	2501                	sext.w	a0,a0
ffffffc05020326e:	4290                	lw	a2,0(a3)
ffffffc050203270:	050e                	slli	a0,a0,0x3
ffffffc050203272:	00007797          	auipc	a5,0x7
ffffffc050203276:	c7678793          	addi	a5,a5,-906 # ffffffc050209ee8 <current_running>
ffffffc05020327a:	97aa                	add	a5,a5,a0
ffffffc05020327c:	639c                	ld	a5,0(a5)
ffffffc05020327e:	e20d                	bnez	a2,ffffffc0502032a0 <do_mutex_lock_acquire.part.0+0x50>
ffffffc050203280:	0c87a703          	lw	a4,200(a5)
ffffffc050203284:	60e2                	ld	ra,24(sp)
ffffffc050203286:	4605                	li	a2,1
ffffffc050203288:	0017059b          	addiw	a1,a4,1
ffffffc05020328c:	070a                	slli	a4,a4,0x2
ffffffc05020328e:	0cb7a423          	sw	a1,200(a5)
ffffffc050203292:	97ba                	add	a5,a5,a4
ffffffc050203294:	0887a423          	sw	s0,136(a5)
ffffffc050203298:	6442                	ld	s0,16(sp)
ffffffc05020329a:	c290                	sw	a2,0(a3)
ffffffc05020329c:	6105                	addi	sp,sp,32
ffffffc05020329e:	8082                	ret
ffffffc0502032a0:	0721                	addi	a4,a4,8
ffffffc0502032a2:	95ba                	add	a1,a1,a4
ffffffc0502032a4:	01078513          	addi	a0,a5,16
ffffffc0502032a8:	e43e                	sd	a5,8(sp)
ffffffc0502032aa:	70b000ef          	jal	ffffffc0502041b4 <do_block>
ffffffc0502032ae:	67a2                	ld	a5,8(sp)
ffffffc0502032b0:	60e2                	ld	ra,24(sp)
ffffffc0502032b2:	0c87a703          	lw	a4,200(a5)
ffffffc0502032b6:	0017069b          	addiw	a3,a4,1
ffffffc0502032ba:	070a                	slli	a4,a4,0x2
ffffffc0502032bc:	0cd7a423          	sw	a3,200(a5)
ffffffc0502032c0:	97ba                	add	a5,a5,a4
ffffffc0502032c2:	0887a423          	sw	s0,136(a5)
ffffffc0502032c6:	6442                	ld	s0,16(sp)
ffffffc0502032c8:	6105                	addi	sp,sp,32
ffffffc0502032ca:	8082                	ret

ffffffc0502032cc <init_locks>:
ffffffc0502032cc:	7179                	addi	sp,sp,-48
ffffffc0502032ce:	f022                	sd	s0,32(sp)
ffffffc0502032d0:	ec26                	sd	s1,24(sp)
ffffffc0502032d2:	e84a                	sd	s2,16(sp)
ffffffc0502032d4:	e44e                	sd	s3,8(sp)
ffffffc0502032d6:	f406                	sd	ra,40(sp)
ffffffc0502032d8:	00006497          	auipc	s1,0x6
ffffffc0502032dc:	be848493          	addi	s1,s1,-1048 # ffffffc050208ec0 <mlocks+0x8>
ffffffc0502032e0:	4401                	li	s0,0
ffffffc0502032e2:	00006997          	auipc	s3,0x6
ffffffc0502032e6:	bd698993          	addi	s3,s3,-1066 # ffffffc050208eb8 <mlocks>
ffffffc0502032ea:	4941                	li	s2,16
ffffffc0502032ec:	00541793          	slli	a5,s0,0x5
ffffffc0502032f0:	97ce                	add	a5,a5,s3
ffffffc0502032f2:	8526                	mv	a0,s1
ffffffc0502032f4:	0007a023          	sw	zero,0(a5)
ffffffc0502032f8:	2405                	addiw	s0,s0,1
ffffffc0502032fa:	710010ef          	jal	ffffffc050204a0a <init_list_head>
ffffffc0502032fe:	0004a823          	sw	zero,16(s1)
ffffffc050203302:	02048493          	addi	s1,s1,32
ffffffc050203306:	ff2413e3          	bne	s0,s2,ffffffc0502032ec <init_locks+0x20>
ffffffc05020330a:	70a2                	ld	ra,40(sp)
ffffffc05020330c:	7402                	ld	s0,32(sp)
ffffffc05020330e:	64e2                	ld	s1,24(sp)
ffffffc050203310:	6942                	ld	s2,16(sp)
ffffffc050203312:	69a2                	ld	s3,8(sp)
ffffffc050203314:	6145                	addi	sp,sp,48
ffffffc050203316:	8082                	ret

ffffffc050203318 <spin_lock_init>:
ffffffc050203318:	4781                	li	a5,0
ffffffc05020331a:	0ef527af          	amoswap.w.aqrl	a5,a5,(a0)
ffffffc05020331e:	8082                	ret

ffffffc050203320 <spin_lock_try_acquire>:
ffffffc050203320:	4785                	li	a5,1
ffffffc050203322:	0ef527af          	amoswap.w.aqrl	a5,a5,(a0)
ffffffc050203326:	2781                	sext.w	a5,a5
ffffffc050203328:	0017b513          	seqz	a0,a5
ffffffc05020332c:	8082                	ret

ffffffc05020332e <spin_lock_acquire>:
ffffffc05020332e:	4705                	li	a4,1
ffffffc050203330:	4685                	li	a3,1
ffffffc050203332:	0ee527af          	amoswap.w.aqrl	a5,a4,(a0)
ffffffc050203336:	2781                	sext.w	a5,a5
ffffffc050203338:	fed78de3          	beq	a5,a3,ffffffc050203332 <spin_lock_acquire+0x4>
ffffffc05020333c:	8082                	ret

ffffffc05020333e <spin_lock_release>:
ffffffc05020333e:	4781                	li	a5,0
ffffffc050203340:	0ef527af          	amoswap.w.aqrl	a5,a5,(a0)
ffffffc050203344:	8082                	ret

ffffffc050203346 <do_mutex_lock_init>:
ffffffc050203346:	00006617          	auipc	a2,0x6
ffffffc05020334a:	b8a60613          	addi	a2,a2,-1142 # ffffffc050208ed0 <mlocks+0x18>
ffffffc05020334e:	8732                	mv	a4,a2
ffffffc050203350:	4781                	li	a5,0
ffffffc050203352:	45c1                	li	a1,16
ffffffc050203354:	4314                	lw	a3,0(a4)
ffffffc050203356:	02070713          	addi	a4,a4,32
ffffffc05020335a:	00a68f63          	beq	a3,a0,ffffffc050203378 <do_mutex_lock_init+0x32>
ffffffc05020335e:	2785                	addiw	a5,a5,1
ffffffc050203360:	feb79ae3          	bne	a5,a1,ffffffc050203354 <do_mutex_lock_init+0xe>
ffffffc050203364:	4781                	li	a5,0
ffffffc050203366:	46c1                	li	a3,16
ffffffc050203368:	4218                	lw	a4,0(a2)
ffffffc05020336a:	02060613          	addi	a2,a2,32
ffffffc05020336e:	c719                	beqz	a4,ffffffc05020337c <do_mutex_lock_init+0x36>
ffffffc050203370:	2785                	addiw	a5,a5,1
ffffffc050203372:	fed79be3          	bne	a5,a3,ffffffc050203368 <do_mutex_lock_init+0x22>
ffffffc050203376:	57fd                	li	a5,-1
ffffffc050203378:	853e                	mv	a0,a5
ffffffc05020337a:	8082                	ret
ffffffc05020337c:	7179                	addi	sp,sp,-48
ffffffc05020337e:	00579613          	slli	a2,a5,0x5
ffffffc050203382:	ec2a                	sd	a0,24(sp)
ffffffc050203384:	00006697          	auipc	a3,0x6
ffffffc050203388:	b3468693          	addi	a3,a3,-1228 # ffffffc050208eb8 <mlocks>
ffffffc05020338c:	00860513          	addi	a0,a2,8
ffffffc050203390:	f406                	sd	ra,40(sp)
ffffffc050203392:	9536                	add	a0,a0,a3
ffffffc050203394:	96b2                	add	a3,a3,a2
ffffffc050203396:	e83e                	sd	a5,16(sp)
ffffffc050203398:	e436                	sd	a3,8(sp)
ffffffc05020339a:	0006a023          	sw	zero,0(a3)
ffffffc05020339e:	66c010ef          	jal	ffffffc050204a0a <init_list_head>
ffffffc0502033a2:	66a2                	ld	a3,8(sp)
ffffffc0502033a4:	6762                	ld	a4,24(sp)
ffffffc0502033a6:	67c2                	ld	a5,16(sp)
ffffffc0502033a8:	70a2                	ld	ra,40(sp)
ffffffc0502033aa:	ce98                	sw	a4,24(a3)
ffffffc0502033ac:	853e                	mv	a0,a5
ffffffc0502033ae:	6145                	addi	sp,sp,48
ffffffc0502033b0:	8082                	ret

ffffffc0502033b2 <do_mutex_lock_acquire>:
ffffffc0502033b2:	00054363          	bltz	a0,ffffffc0502033b8 <do_mutex_lock_acquire+0x6>
ffffffc0502033b6:	bd69                	j	ffffffc050203250 <do_mutex_lock_acquire.part.0>
ffffffc0502033b8:	8082                	ret

ffffffc0502033ba <do_mutex_lock_release>:
ffffffc0502033ba:	1101                	addi	sp,sp,-32
ffffffc0502033bc:	e04a                	sd	s2,0(sp)
ffffffc0502033be:	00551913          	slli	s2,a0,0x5
ffffffc0502033c2:	e822                	sd	s0,16(sp)
ffffffc0502033c4:	e426                	sd	s1,8(sp)
ffffffc0502033c6:	842a                	mv	s0,a0
ffffffc0502033c8:	00006497          	auipc	s1,0x6
ffffffc0502033cc:	af048493          	addi	s1,s1,-1296 # ffffffc050208eb8 <mlocks>
ffffffc0502033d0:	00890513          	addi	a0,s2,8 # 1008 <boot_stack_top_base-0x50200ff8>
ffffffc0502033d4:	9526                	add	a0,a0,s1
ffffffc0502033d6:	ec06                	sd	ra,24(sp)
ffffffc0502033d8:	679000ef          	jal	ffffffc050204250 <do_unblock>
ffffffc0502033dc:	e501                	bnez	a0,ffffffc0502033e4 <do_mutex_lock_release+0x2a>
ffffffc0502033de:	94ca                	add	s1,s1,s2
ffffffc0502033e0:	0004a023          	sw	zero,0(s1)
ffffffc0502033e4:	c10ff0ef          	jal	ffffffc0502027f4 <get_current_cpu_id>
ffffffc0502033e8:	2501                	sext.w	a0,a0
ffffffc0502033ea:	050e                	slli	a0,a0,0x3
ffffffc0502033ec:	00007797          	auipc	a5,0x7
ffffffc0502033f0:	afc78793          	addi	a5,a5,-1284 # ffffffc050209ee8 <current_running>
ffffffc0502033f4:	97aa                	add	a5,a5,a0
ffffffc0502033f6:	6388                	ld	a0,0(a5)
ffffffc0502033f8:	0c852603          	lw	a2,200(a0)
ffffffc0502033fc:	04c05f63          	blez	a2,ffffffc05020345a <do_mutex_lock_release+0xa0>
ffffffc050203400:	08850693          	addi	a3,a0,136
ffffffc050203404:	8736                	mv	a4,a3
ffffffc050203406:	4781                	li	a5,0
ffffffc050203408:	a021                	j	ffffffc050203410 <do_mutex_lock_release+0x56>
ffffffc05020340a:	2785                	addiw	a5,a5,1
ffffffc05020340c:	04c78763          	beq	a5,a2,ffffffc05020345a <do_mutex_lock_release+0xa0>
ffffffc050203410:	430c                	lw	a1,0(a4)
ffffffc050203412:	0711                	addi	a4,a4,4
ffffffc050203414:	fe859be3          	bne	a1,s0,ffffffc05020340a <do_mutex_lock_release+0x50>
ffffffc050203418:	fff6081b          	addiw	a6,a2,-1
ffffffc05020341c:	0307dd63          	bge	a5,a6,ffffffc050203456 <do_mutex_lock_release+0x9c>
ffffffc050203420:	3679                	addiw	a2,a2,-2
ffffffc050203422:	9e1d                	subw	a2,a2,a5
ffffffc050203424:	1602                	slli	a2,a2,0x20
ffffffc050203426:	9201                	srli	a2,a2,0x20
ffffffc050203428:	963e                	add	a2,a2,a5
ffffffc05020342a:	08c50713          	addi	a4,a0,140
ffffffc05020342e:	00279593          	slli	a1,a5,0x2
ffffffc050203432:	060a                	slli	a2,a2,0x2
ffffffc050203434:	2785                	addiw	a5,a5,1
ffffffc050203436:	963a                	add	a2,a2,a4
ffffffc050203438:	00d58733          	add	a4,a1,a3
ffffffc05020343c:	02079693          	slli	a3,a5,0x20
ffffffc050203440:	01e6d793          	srli	a5,a3,0x1e
ffffffc050203444:	40b706b3          	sub	a3,a4,a1
ffffffc050203448:	96be                	add	a3,a3,a5
ffffffc05020344a:	4294                	lw	a3,0(a3)
ffffffc05020344c:	0711                	addi	a4,a4,4
ffffffc05020344e:	fed72e23          	sw	a3,-4(a4)
ffffffc050203452:	fec719e3          	bne	a4,a2,ffffffc050203444 <do_mutex_lock_release+0x8a>
ffffffc050203456:	0d052423          	sw	a6,200(a0)
ffffffc05020345a:	60e2                	ld	ra,24(sp)
ffffffc05020345c:	6442                	ld	s0,16(sp)
ffffffc05020345e:	64a2                	ld	s1,8(sp)
ffffffc050203460:	6902                	ld	s2,0(sp)
ffffffc050203462:	6105                	addi	sp,sp,32
ffffffc050203464:	8082                	ret

ffffffc050203466 <init_barriers>:
ffffffc050203466:	1101                	addi	sp,sp,-32
ffffffc050203468:	e822                	sd	s0,16(sp)
ffffffc05020346a:	e426                	sd	s1,8(sp)
ffffffc05020346c:	ec06                	sd	ra,24(sp)
ffffffc05020346e:	00006417          	auipc	s0,0x6
ffffffc050203472:	c5a40413          	addi	s0,s0,-934 # ffffffc0502090c8 <barriers+0x10>
ffffffc050203476:	00006497          	auipc	s1,0x6
ffffffc05020347a:	e5248493          	addi	s1,s1,-430 # ffffffc0502092c8 <conditions+0x10>
ffffffc05020347e:	8522                	mv	a0,s0
ffffffc050203480:	fe043823          	sd	zero,-16(s0)
ffffffc050203484:	fe042c23          	sw	zero,-8(s0)
ffffffc050203488:	02040413          	addi	s0,s0,32
ffffffc05020348c:	57e010ef          	jal	ffffffc050204a0a <init_list_head>
ffffffc050203490:	fe9417e3          	bne	s0,s1,ffffffc05020347e <init_barriers+0x18>
ffffffc050203494:	60e2                	ld	ra,24(sp)
ffffffc050203496:	6442                	ld	s0,16(sp)
ffffffc050203498:	64a2                	ld	s1,8(sp)
ffffffc05020349a:	6105                	addi	sp,sp,32
ffffffc05020349c:	8082                	ret

ffffffc05020349e <do_barrier_init>:
ffffffc05020349e:	00006617          	auipc	a2,0x6
ffffffc0502034a2:	c1a60613          	addi	a2,a2,-998 # ffffffc0502090b8 <barriers>
ffffffc0502034a6:	88b2                	mv	a7,a2
ffffffc0502034a8:	8732                	mv	a4,a2
ffffffc0502034aa:	4781                	li	a5,0
ffffffc0502034ac:	4841                	li	a6,16
ffffffc0502034ae:	4314                	lw	a3,0(a4)
ffffffc0502034b0:	02070713          	addi	a4,a4,32
ffffffc0502034b4:	00a68f63          	beq	a3,a0,ffffffc0502034d2 <do_barrier_init+0x34>
ffffffc0502034b8:	2785                	addiw	a5,a5,1
ffffffc0502034ba:	ff079ae3          	bne	a5,a6,ffffffc0502034ae <do_barrier_init+0x10>
ffffffc0502034be:	4781                	li	a5,0
ffffffc0502034c0:	46c1                	li	a3,16
ffffffc0502034c2:	4218                	lw	a4,0(a2)
ffffffc0502034c4:	02060613          	addi	a2,a2,32
ffffffc0502034c8:	c719                	beqz	a4,ffffffc0502034d6 <do_barrier_init+0x38>
ffffffc0502034ca:	2785                	addiw	a5,a5,1
ffffffc0502034cc:	fed79be3          	bne	a5,a3,ffffffc0502034c2 <do_barrier_init+0x24>
ffffffc0502034d0:	57fd                	li	a5,-1
ffffffc0502034d2:	853e                	mv	a0,a5
ffffffc0502034d4:	8082                	ret
ffffffc0502034d6:	00579613          	slli	a2,a5,0x5
ffffffc0502034da:	1101                	addi	sp,sp,-32
ffffffc0502034dc:	872a                	mv	a4,a0
ffffffc0502034de:	00006697          	auipc	a3,0x6
ffffffc0502034e2:	9da68693          	addi	a3,a3,-1574 # ffffffc050208eb8 <mlocks>
ffffffc0502034e6:	01060513          	addi	a0,a2,16
ffffffc0502034ea:	ec06                	sd	ra,24(sp)
ffffffc0502034ec:	96b2                	add	a3,a3,a2
ffffffc0502034ee:	9546                	add	a0,a0,a7
ffffffc0502034f0:	e43e                	sd	a5,8(sp)
ffffffc0502034f2:	20e6a023          	sw	a4,512(a3)
ffffffc0502034f6:	20b6a223          	sw	a1,516(a3)
ffffffc0502034fa:	2006a423          	sw	zero,520(a3)
ffffffc0502034fe:	50c010ef          	jal	ffffffc050204a0a <init_list_head>
ffffffc050203502:	67a2                	ld	a5,8(sp)
ffffffc050203504:	60e2                	ld	ra,24(sp)
ffffffc050203506:	853e                	mv	a0,a5
ffffffc050203508:	6105                	addi	sp,sp,32
ffffffc05020350a:	8082                	ret

ffffffc05020350c <do_barrier_wait>:
ffffffc05020350c:	47bd                	li	a5,15
ffffffc05020350e:	04a7e763          	bltu	a5,a0,ffffffc05020355c <do_barrier_wait+0x50>
ffffffc050203512:	0516                	slli	a0,a0,0x5
ffffffc050203514:	00006797          	auipc	a5,0x6
ffffffc050203518:	9a478793          	addi	a5,a5,-1628 # ffffffc050208eb8 <mlocks>
ffffffc05020351c:	97aa                	add	a5,a5,a0
ffffffc05020351e:	2007a703          	lw	a4,512(a5)
ffffffc050203522:	cf0d                	beqz	a4,ffffffc05020355c <do_barrier_wait+0x50>
ffffffc050203524:	2087a703          	lw	a4,520(a5)
ffffffc050203528:	1141                	addi	sp,sp,-16
ffffffc05020352a:	2047a683          	lw	a3,516(a5)
ffffffc05020352e:	e022                	sd	s0,0(sp)
ffffffc050203530:	e406                	sd	ra,8(sp)
ffffffc050203532:	2705                	addiw	a4,a4,1
ffffffc050203534:	00006617          	auipc	a2,0x6
ffffffc050203538:	b9460613          	addi	a2,a2,-1132 # ffffffc0502090c8 <barriers+0x10>
ffffffc05020353c:	20e7a423          	sw	a4,520(a5)
ffffffc050203540:	00c50433          	add	s0,a0,a2
ffffffc050203544:	00d74d63          	blt	a4,a3,ffffffc05020355e <do_barrier_wait+0x52>
ffffffc050203548:	2007a423          	sw	zero,520(a5)
ffffffc05020354c:	8522                	mv	a0,s0
ffffffc05020354e:	503000ef          	jal	ffffffc050204250 <do_unblock>
ffffffc050203552:	fd6d                	bnez	a0,ffffffc05020354c <do_barrier_wait+0x40>
ffffffc050203554:	60a2                	ld	ra,8(sp)
ffffffc050203556:	6402                	ld	s0,0(sp)
ffffffc050203558:	0141                	addi	sp,sp,16
ffffffc05020355a:	8082                	ret
ffffffc05020355c:	8082                	ret
ffffffc05020355e:	a96ff0ef          	jal	ffffffc0502027f4 <get_current_cpu_id>
ffffffc050203562:	0005079b          	sext.w	a5,a0
ffffffc050203566:	078e                	slli	a5,a5,0x3
ffffffc050203568:	00007717          	auipc	a4,0x7
ffffffc05020356c:	98070713          	addi	a4,a4,-1664 # ffffffc050209ee8 <current_running>
ffffffc050203570:	97ba                	add	a5,a5,a4
ffffffc050203572:	6388                	ld	a0,0(a5)
ffffffc050203574:	85a2                	mv	a1,s0
ffffffc050203576:	6402                	ld	s0,0(sp)
ffffffc050203578:	60a2                	ld	ra,8(sp)
ffffffc05020357a:	0541                	addi	a0,a0,16
ffffffc05020357c:	0141                	addi	sp,sp,16
ffffffc05020357e:	4370006f          	j	ffffffc0502041b4 <do_block>

ffffffc050203582 <do_barrier_destroy>:
ffffffc050203582:	47bd                	li	a5,15
ffffffc050203584:	04a7e663          	bltu	a5,a0,ffffffc0502035d0 <do_barrier_destroy+0x4e>
ffffffc050203588:	1101                	addi	sp,sp,-32
ffffffc05020358a:	e426                	sd	s1,8(sp)
ffffffc05020358c:	00551493          	slli	s1,a0,0x5
ffffffc050203590:	e822                	sd	s0,16(sp)
ffffffc050203592:	e04a                	sd	s2,0(sp)
ffffffc050203594:	01048413          	addi	s0,s1,16
ffffffc050203598:	00006917          	auipc	s2,0x6
ffffffc05020359c:	b2090913          	addi	s2,s2,-1248 # ffffffc0502090b8 <barriers>
ffffffc0502035a0:	ec06                	sd	ra,24(sp)
ffffffc0502035a2:	944a                	add	s0,s0,s2
ffffffc0502035a4:	8522                	mv	a0,s0
ffffffc0502035a6:	4ab000ef          	jal	ffffffc050204250 <do_unblock>
ffffffc0502035aa:	fd6d                	bnez	a0,ffffffc0502035a4 <do_barrier_destroy+0x22>
ffffffc0502035ac:	9926                	add	s2,s2,s1
ffffffc0502035ae:	00006797          	auipc	a5,0x6
ffffffc0502035b2:	90a78793          	addi	a5,a5,-1782 # ffffffc050208eb8 <mlocks>
ffffffc0502035b6:	8522                	mv	a0,s0
ffffffc0502035b8:	6442                	ld	s0,16(sp)
ffffffc0502035ba:	00093023          	sd	zero,0(s2)
ffffffc0502035be:	60e2                	ld	ra,24(sp)
ffffffc0502035c0:	6902                	ld	s2,0(sp)
ffffffc0502035c2:	97a6                	add	a5,a5,s1
ffffffc0502035c4:	64a2                	ld	s1,8(sp)
ffffffc0502035c6:	2007a423          	sw	zero,520(a5)
ffffffc0502035ca:	6105                	addi	sp,sp,32
ffffffc0502035cc:	43e0106f          	j	ffffffc050204a0a <init_list_head>
ffffffc0502035d0:	8082                	ret

ffffffc0502035d2 <init_conditions>:
ffffffc0502035d2:	1101                	addi	sp,sp,-32
ffffffc0502035d4:	e822                	sd	s0,16(sp)
ffffffc0502035d6:	e426                	sd	s1,8(sp)
ffffffc0502035d8:	ec06                	sd	ra,24(sp)
ffffffc0502035da:	00006417          	auipc	s0,0x6
ffffffc0502035de:	ce640413          	addi	s0,s0,-794 # ffffffc0502092c0 <conditions+0x8>
ffffffc0502035e2:	00006497          	auipc	s1,0x6
ffffffc0502035e6:	e5e48493          	addi	s1,s1,-418 # ffffffc050209440 <mboxes+0x8>
ffffffc0502035ea:	8522                	mv	a0,s0
ffffffc0502035ec:	fe043c23          	sd	zero,-8(s0)
ffffffc0502035f0:	0461                	addi	s0,s0,24
ffffffc0502035f2:	418010ef          	jal	ffffffc050204a0a <init_list_head>
ffffffc0502035f6:	fe941ae3          	bne	s0,s1,ffffffc0502035ea <init_conditions+0x18>
ffffffc0502035fa:	60e2                	ld	ra,24(sp)
ffffffc0502035fc:	6442                	ld	s0,16(sp)
ffffffc0502035fe:	64a2                	ld	s1,8(sp)
ffffffc050203600:	6105                	addi	sp,sp,32
ffffffc050203602:	8082                	ret

ffffffc050203604 <do_condition_init>:
ffffffc050203604:	00006617          	auipc	a2,0x6
ffffffc050203608:	cb460613          	addi	a2,a2,-844 # ffffffc0502092b8 <conditions>
ffffffc05020360c:	8832                	mv	a6,a2
ffffffc05020360e:	8732                	mv	a4,a2
ffffffc050203610:	4781                	li	a5,0
ffffffc050203612:	45c1                	li	a1,16
ffffffc050203614:	4314                	lw	a3,0(a4)
ffffffc050203616:	0761                	addi	a4,a4,24
ffffffc050203618:	00a68e63          	beq	a3,a0,ffffffc050203634 <do_condition_init+0x30>
ffffffc05020361c:	2785                	addiw	a5,a5,1
ffffffc05020361e:	feb79be3          	bne	a5,a1,ffffffc050203614 <do_condition_init+0x10>
ffffffc050203622:	4781                	li	a5,0
ffffffc050203624:	46c1                	li	a3,16
ffffffc050203626:	4218                	lw	a4,0(a2)
ffffffc050203628:	0661                	addi	a2,a2,24
ffffffc05020362a:	c719                	beqz	a4,ffffffc050203638 <do_condition_init+0x34>
ffffffc05020362c:	2785                	addiw	a5,a5,1
ffffffc05020362e:	fed79ce3          	bne	a5,a3,ffffffc050203626 <do_condition_init+0x22>
ffffffc050203632:	57fd                	li	a5,-1
ffffffc050203634:	853e                	mv	a0,a5
ffffffc050203636:	8082                	ret
ffffffc050203638:	00179693          	slli	a3,a5,0x1
ffffffc05020363c:	96be                	add	a3,a3,a5
ffffffc05020363e:	068e                	slli	a3,a3,0x3
ffffffc050203640:	1101                	addi	sp,sp,-32
ffffffc050203642:	872a                	mv	a4,a0
ffffffc050203644:	00006617          	auipc	a2,0x6
ffffffc050203648:	87460613          	addi	a2,a2,-1932 # ffffffc050208eb8 <mlocks>
ffffffc05020364c:	00868513          	addi	a0,a3,8
ffffffc050203650:	ec06                	sd	ra,24(sp)
ffffffc050203652:	9542                	add	a0,a0,a6
ffffffc050203654:	9636                	add	a2,a2,a3
ffffffc050203656:	e43e                	sd	a5,8(sp)
ffffffc050203658:	40e62023          	sw	a4,1024(a2)
ffffffc05020365c:	3ae010ef          	jal	ffffffc050204a0a <init_list_head>
ffffffc050203660:	67a2                	ld	a5,8(sp)
ffffffc050203662:	60e2                	ld	ra,24(sp)
ffffffc050203664:	853e                	mv	a0,a5
ffffffc050203666:	6105                	addi	sp,sp,32
ffffffc050203668:	8082                	ret

ffffffc05020366a <do_condition_wait>:
ffffffc05020366a:	47bd                	li	a5,15
ffffffc05020366c:	00a7ee63          	bltu	a5,a0,ffffffc050203688 <do_condition_wait+0x1e>
ffffffc050203670:	00151793          	slli	a5,a0,0x1
ffffffc050203674:	97aa                	add	a5,a5,a0
ffffffc050203676:	078e                	slli	a5,a5,0x3
ffffffc050203678:	00006717          	auipc	a4,0x6
ffffffc05020367c:	84070713          	addi	a4,a4,-1984 # ffffffc050208eb8 <mlocks>
ffffffc050203680:	973e                	add	a4,a4,a5
ffffffc050203682:	40072683          	lw	a3,1024(a4)
ffffffc050203686:	e291                	bnez	a3,ffffffc05020368a <do_condition_wait+0x20>
ffffffc050203688:	8082                	ret
ffffffc05020368a:	40472603          	lw	a2,1028(a4)
ffffffc05020368e:	1101                	addi	sp,sp,-32
ffffffc050203690:	ec06                	sd	ra,24(sp)
ffffffc050203692:	2605                	addiw	a2,a2,1
ffffffc050203694:	852e                	mv	a0,a1
ffffffc050203696:	40c72223          	sw	a2,1028(a4)
ffffffc05020369a:	e02e                	sd	a1,0(sp)
ffffffc05020369c:	e43e                	sd	a5,8(sp)
ffffffc05020369e:	d1dff0ef          	jal	ffffffc0502033ba <do_mutex_lock_release>
ffffffc0502036a2:	952ff0ef          	jal	ffffffc0502027f4 <get_current_cpu_id>
ffffffc0502036a6:	2501                	sext.w	a0,a0
ffffffc0502036a8:	050e                	slli	a0,a0,0x3
ffffffc0502036aa:	00007717          	auipc	a4,0x7
ffffffc0502036ae:	83e70713          	addi	a4,a4,-1986 # ffffffc050209ee8 <current_running>
ffffffc0502036b2:	972a                	add	a4,a4,a0
ffffffc0502036b4:	6308                	ld	a0,0(a4)
ffffffc0502036b6:	67a2                	ld	a5,8(sp)
ffffffc0502036b8:	00006597          	auipc	a1,0x6
ffffffc0502036bc:	c0858593          	addi	a1,a1,-1016 # ffffffc0502092c0 <conditions+0x8>
ffffffc0502036c0:	0541                	addi	a0,a0,16
ffffffc0502036c2:	95be                	add	a1,a1,a5
ffffffc0502036c4:	2f1000ef          	jal	ffffffc0502041b4 <do_block>
ffffffc0502036c8:	6682                	ld	a3,0(sp)
ffffffc0502036ca:	0006c663          	bltz	a3,ffffffc0502036d6 <do_condition_wait+0x6c>
ffffffc0502036ce:	60e2                	ld	ra,24(sp)
ffffffc0502036d0:	8536                	mv	a0,a3
ffffffc0502036d2:	6105                	addi	sp,sp,32
ffffffc0502036d4:	beb5                	j	ffffffc050203250 <do_mutex_lock_acquire.part.0>
ffffffc0502036d6:	60e2                	ld	ra,24(sp)
ffffffc0502036d8:	6105                	addi	sp,sp,32
ffffffc0502036da:	8082                	ret

ffffffc0502036dc <do_condition_signal>:
ffffffc0502036dc:	47bd                	li	a5,15
ffffffc0502036de:	02a7e263          	bltu	a5,a0,ffffffc050203702 <do_condition_signal+0x26>
ffffffc0502036e2:	00151793          	slli	a5,a0,0x1
ffffffc0502036e6:	97aa                	add	a5,a5,a0
ffffffc0502036e8:	078e                	slli	a5,a5,0x3
ffffffc0502036ea:	00005717          	auipc	a4,0x5
ffffffc0502036ee:	7ce70713          	addi	a4,a4,1998 # ffffffc050208eb8 <mlocks>
ffffffc0502036f2:	973e                	add	a4,a4,a5
ffffffc0502036f4:	40072683          	lw	a3,1024(a4)
ffffffc0502036f8:	c689                	beqz	a3,ffffffc050203702 <do_condition_signal+0x26>
ffffffc0502036fa:	40472683          	lw	a3,1028(a4)
ffffffc0502036fe:	00d04363          	bgtz	a3,ffffffc050203704 <do_condition_signal+0x28>
ffffffc050203702:	8082                	ret
ffffffc050203704:	00006517          	auipc	a0,0x6
ffffffc050203708:	bbc50513          	addi	a0,a0,-1092 # ffffffc0502092c0 <conditions+0x8>
ffffffc05020370c:	36fd                	addiw	a3,a3,-1
ffffffc05020370e:	953e                	add	a0,a0,a5
ffffffc050203710:	40d72223          	sw	a3,1028(a4)
ffffffc050203714:	33d0006f          	j	ffffffc050204250 <do_unblock>

ffffffc050203718 <do_condition_broadcast>:
ffffffc050203718:	47bd                	li	a5,15
ffffffc05020371a:	02a7ee63          	bltu	a5,a0,ffffffc050203756 <do_condition_broadcast+0x3e>
ffffffc05020371e:	1141                	addi	sp,sp,-16
ffffffc050203720:	e022                	sd	s0,0(sp)
ffffffc050203722:	00151413          	slli	s0,a0,0x1
ffffffc050203726:	942a                	add	s0,s0,a0
ffffffc050203728:	040e                	slli	s0,s0,0x3
ffffffc05020372a:	00005797          	auipc	a5,0x5
ffffffc05020372e:	78e78793          	addi	a5,a5,1934 # ffffffc050208eb8 <mlocks>
ffffffc050203732:	97a2                	add	a5,a5,s0
ffffffc050203734:	4007a783          	lw	a5,1024(a5)
ffffffc050203738:	e406                	sd	ra,8(sp)
ffffffc05020373a:	cb91                	beqz	a5,ffffffc05020374e <do_condition_broadcast+0x36>
ffffffc05020373c:	00006797          	auipc	a5,0x6
ffffffc050203740:	b8478793          	addi	a5,a5,-1148 # ffffffc0502092c0 <conditions+0x8>
ffffffc050203744:	943e                	add	s0,s0,a5
ffffffc050203746:	8522                	mv	a0,s0
ffffffc050203748:	309000ef          	jal	ffffffc050204250 <do_unblock>
ffffffc05020374c:	fd6d                	bnez	a0,ffffffc050203746 <do_condition_broadcast+0x2e>
ffffffc05020374e:	60a2                	ld	ra,8(sp)
ffffffc050203750:	6402                	ld	s0,0(sp)
ffffffc050203752:	0141                	addi	sp,sp,16
ffffffc050203754:	8082                	ret
ffffffc050203756:	8082                	ret

ffffffc050203758 <do_condition_destroy>:
ffffffc050203758:	47bd                	li	a5,15
ffffffc05020375a:	04a7e663          	bltu	a5,a0,ffffffc0502037a6 <do_condition_destroy+0x4e>
ffffffc05020375e:	7179                	addi	sp,sp,-48
ffffffc050203760:	e84a                	sd	s2,16(sp)
ffffffc050203762:	00151913          	slli	s2,a0,0x1
ffffffc050203766:	f022                	sd	s0,32(sp)
ffffffc050203768:	00a90433          	add	s0,s2,a0
ffffffc05020376c:	040e                	slli	s0,s0,0x3
ffffffc05020376e:	e44e                	sd	s3,8(sp)
ffffffc050203770:	0421                	addi	s0,s0,8
ffffffc050203772:	00006997          	auipc	s3,0x6
ffffffc050203776:	b4698993          	addi	s3,s3,-1210 # ffffffc0502092b8 <conditions>
ffffffc05020377a:	ec26                	sd	s1,24(sp)
ffffffc05020377c:	f406                	sd	ra,40(sp)
ffffffc05020377e:	84aa                	mv	s1,a0
ffffffc050203780:	944e                	add	s0,s0,s3
ffffffc050203782:	8522                	mv	a0,s0
ffffffc050203784:	2cd000ef          	jal	ffffffc050204250 <do_unblock>
ffffffc050203788:	fd6d                	bnez	a0,ffffffc050203782 <do_condition_destroy+0x2a>
ffffffc05020378a:	9926                	add	s2,s2,s1
ffffffc05020378c:	090e                	slli	s2,s2,0x3
ffffffc05020378e:	99ca                	add	s3,s3,s2
ffffffc050203790:	8522                	mv	a0,s0
ffffffc050203792:	7402                	ld	s0,32(sp)
ffffffc050203794:	70a2                	ld	ra,40(sp)
ffffffc050203796:	64e2                	ld	s1,24(sp)
ffffffc050203798:	6942                	ld	s2,16(sp)
ffffffc05020379a:	0009b023          	sd	zero,0(s3)
ffffffc05020379e:	69a2                	ld	s3,8(sp)
ffffffc0502037a0:	6145                	addi	sp,sp,48
ffffffc0502037a2:	2680106f          	j	ffffffc050204a0a <init_list_head>
ffffffc0502037a6:	8082                	ret

ffffffc0502037a8 <init_mbox>:
ffffffc0502037a8:	1101                	addi	sp,sp,-32
ffffffc0502037aa:	3e800513          	li	a0,1000
ffffffc0502037ae:	e822                	sd	s0,16(sp)
ffffffc0502037b0:	e426                	sd	s1,8(sp)
ffffffc0502037b2:	e04a                	sd	s2,0(sp)
ffffffc0502037b4:	ec06                	sd	ra,24(sp)
ffffffc0502037b6:	b91ff0ef          	jal	ffffffc050203346 <do_mutex_lock_init>
ffffffc0502037ba:	00003797          	auipc	a5,0x3
ffffffc0502037be:	2ea7ab23          	sw	a0,758(a5) # ffffffc050206ab0 <mbox_global_mutex_idx>
ffffffc0502037c2:	00006417          	auipc	s0,0x6
ffffffc0502037c6:	ce640413          	addi	s0,s0,-794 # ffffffc0502094a8 <mboxes+0x70>
ffffffc0502037ca:	00006917          	auipc	s2,0x6
ffffffc0502037ce:	5de90913          	addi	s2,s2,1502 # ffffffc050209da8 <pid0_pcb+0x70>
ffffffc0502037d2:	54fd                	li	s1,-1
ffffffc0502037d4:	8522                	mv	a0,s0
ffffffc0502037d6:	f8040823          	sb	zero,-112(s0)
ffffffc0502037da:	fe042623          	sw	zero,-20(s0)
ffffffc0502037de:	fe042823          	sw	zero,-16(s0)
ffffffc0502037e2:	fe042a23          	sw	zero,-12(s0)
ffffffc0502037e6:	fe042c23          	sw	zero,-8(s0)
ffffffc0502037ea:	fe942e23          	sw	s1,-4(s0)
ffffffc0502037ee:	21c010ef          	jal	ffffffc050204a0a <init_list_head>
ffffffc0502037f2:	01040513          	addi	a0,s0,16
ffffffc0502037f6:	09040413          	addi	s0,s0,144
ffffffc0502037fa:	210010ef          	jal	ffffffc050204a0a <init_list_head>
ffffffc0502037fe:	fd241be3          	bne	s0,s2,ffffffc0502037d4 <init_mbox+0x2c>
ffffffc050203802:	60e2                	ld	ra,24(sp)
ffffffc050203804:	6442                	ld	s0,16(sp)
ffffffc050203806:	64a2                	ld	s1,8(sp)
ffffffc050203808:	6902                	ld	s2,0(sp)
ffffffc05020380a:	6105                	addi	sp,sp,32
ffffffc05020380c:	8082                	ret

ffffffc05020380e <do_mbox_open>:
ffffffc05020380e:	00003797          	auipc	a5,0x3
ffffffc050203812:	2a27a783          	lw	a5,674(a5) # ffffffc050206ab0 <mbox_global_mutex_idx>
ffffffc050203816:	7179                	addi	sp,sp,-48
ffffffc050203818:	e84a                	sd	s2,16(sp)
ffffffc05020381a:	f406                	sd	ra,40(sp)
ffffffc05020381c:	f022                	sd	s0,32(sp)
ffffffc05020381e:	ec26                	sd	s1,24(sp)
ffffffc050203820:	e44e                	sd	s3,8(sp)
ffffffc050203822:	e052                	sd	s4,0(sp)
ffffffc050203824:	892a                	mv	s2,a0
ffffffc050203826:	0007c563          	bltz	a5,ffffffc050203830 <do_mbox_open+0x22>
ffffffc05020382a:	853e                	mv	a0,a5
ffffffc05020382c:	a25ff0ef          	jal	ffffffc050203250 <do_mutex_lock_acquire.part.0>
ffffffc050203830:	00006a17          	auipc	s4,0x6
ffffffc050203834:	c08a0a13          	addi	s4,s4,-1016 # ffffffc050209438 <mboxes>
ffffffc050203838:	84d2                	mv	s1,s4
ffffffc05020383a:	4401                	li	s0,0
ffffffc05020383c:	49c1                	li	s3,16
ffffffc05020383e:	a031                	j	ffffffc05020384a <do_mbox_open+0x3c>
ffffffc050203840:	2405                	addiw	s0,s0,1
ffffffc050203842:	09048493          	addi	s1,s1,144
ffffffc050203846:	03340963          	beq	s0,s3,ffffffc050203878 <do_mbox_open+0x6a>
ffffffc05020384a:	54bc                	lw	a5,104(s1)
ffffffc05020384c:	85ca                	mv	a1,s2
ffffffc05020384e:	8526                	mv	a0,s1
ffffffc050203850:	fef058e3          	blez	a5,ffffffc050203840 <do_mbox_open+0x32>
ffffffc050203854:	08b010ef          	jal	ffffffc0502050de <strcmp>
ffffffc050203858:	f565                	bnez	a0,ffffffc050203840 <do_mbox_open+0x32>
ffffffc05020385a:	00341793          	slli	a5,s0,0x3
ffffffc05020385e:	97a2                	add	a5,a5,s0
ffffffc050203860:	0792                	slli	a5,a5,0x4
ffffffc050203862:	97d2                	add	a5,a5,s4
ffffffc050203864:	57b8                	lw	a4,104(a5)
ffffffc050203866:	00003517          	auipc	a0,0x3
ffffffc05020386a:	24a52503          	lw	a0,586(a0) # ffffffc050206ab0 <mbox_global_mutex_idx>
ffffffc05020386e:	2705                	addiw	a4,a4,1
ffffffc050203870:	d7b8                	sw	a4,104(a5)
ffffffc050203872:	b49ff0ef          	jal	ffffffc0502033ba <do_mutex_lock_release>
ffffffc050203876:	a02d                	j	ffffffc0502038a0 <do_mbox_open+0x92>
ffffffc050203878:	00006797          	auipc	a5,0x6
ffffffc05020387c:	c2878793          	addi	a5,a5,-984 # ffffffc0502094a0 <mboxes+0x68>
ffffffc050203880:	4401                	li	s0,0
ffffffc050203882:	46c1                	li	a3,16
ffffffc050203884:	4398                	lw	a4,0(a5)
ffffffc050203886:	09078793          	addi	a5,a5,144
ffffffc05020388a:	c705                	beqz	a4,ffffffc0502038b2 <do_mbox_open+0xa4>
ffffffc05020388c:	2405                	addiw	s0,s0,1
ffffffc05020388e:	fed41be3          	bne	s0,a3,ffffffc050203884 <do_mbox_open+0x76>
ffffffc050203892:	00003517          	auipc	a0,0x3
ffffffc050203896:	21e52503          	lw	a0,542(a0) # ffffffc050206ab0 <mbox_global_mutex_idx>
ffffffc05020389a:	547d                	li	s0,-1
ffffffc05020389c:	b1fff0ef          	jal	ffffffc0502033ba <do_mutex_lock_release>
ffffffc0502038a0:	70a2                	ld	ra,40(sp)
ffffffc0502038a2:	8522                	mv	a0,s0
ffffffc0502038a4:	7402                	ld	s0,32(sp)
ffffffc0502038a6:	64e2                	ld	s1,24(sp)
ffffffc0502038a8:	6942                	ld	s2,16(sp)
ffffffc0502038aa:	69a2                	ld	s3,8(sp)
ffffffc0502038ac:	6a02                	ld	s4,0(sp)
ffffffc0502038ae:	6145                	addi	sp,sp,48
ffffffc0502038b0:	8082                	ret
ffffffc0502038b2:	00341493          	slli	s1,s0,0x3
ffffffc0502038b6:	94a2                	add	s1,s1,s0
ffffffc0502038b8:	0492                	slli	s1,s1,0x4
ffffffc0502038ba:	009a09b3          	add	s3,s4,s1
ffffffc0502038be:	85ca                	mv	a1,s2
ffffffc0502038c0:	854e                	mv	a0,s3
ffffffc0502038c2:	083010ef          	jal	ffffffc050205144 <strcpy>
ffffffc0502038c6:	07048513          	addi	a0,s1,112
ffffffc0502038ca:	4785                	li	a5,1
ffffffc0502038cc:	9552                	add	a0,a0,s4
ffffffc0502038ce:	0609b023          	sd	zero,96(s3)
ffffffc0502038d2:	06f9a423          	sw	a5,104(s3)
ffffffc0502038d6:	0409ae23          	sw	zero,92(s3)
ffffffc0502038da:	130010ef          	jal	ffffffc050204a0a <init_list_head>
ffffffc0502038de:	08048513          	addi	a0,s1,128
ffffffc0502038e2:	9552                	add	a0,a0,s4
ffffffc0502038e4:	126010ef          	jal	ffffffc050204a0a <init_list_head>
ffffffc0502038e8:	3e94051b          	addiw	a0,s0,1001
ffffffc0502038ec:	a5bff0ef          	jal	ffffffc050203346 <do_mutex_lock_init>
ffffffc0502038f0:	87aa                	mv	a5,a0
ffffffc0502038f2:	00003517          	auipc	a0,0x3
ffffffc0502038f6:	1be52503          	lw	a0,446(a0) # ffffffc050206ab0 <mbox_global_mutex_idx>
ffffffc0502038fa:	06f9a623          	sw	a5,108(s3)
ffffffc0502038fe:	abdff0ef          	jal	ffffffc0502033ba <do_mutex_lock_release>
ffffffc050203902:	bf79                	j	ffffffc0502038a0 <do_mbox_open+0x92>

ffffffc050203904 <do_mbox_close>:
ffffffc050203904:	47bd                	li	a5,15
ffffffc050203906:	08a7e663          	bltu	a5,a0,ffffffc050203992 <do_mbox_close+0x8e>
ffffffc05020390a:	872a                	mv	a4,a0
ffffffc05020390c:	00003517          	auipc	a0,0x3
ffffffc050203910:	1a452503          	lw	a0,420(a0) # ffffffc050206ab0 <mbox_global_mutex_idx>
ffffffc050203914:	7179                	addi	sp,sp,-48
ffffffc050203916:	f406                	sd	ra,40(sp)
ffffffc050203918:	ec26                	sd	s1,24(sp)
ffffffc05020391a:	00054663          	bltz	a0,ffffffc050203926 <do_mbox_close+0x22>
ffffffc05020391e:	e43a                	sd	a4,8(sp)
ffffffc050203920:	931ff0ef          	jal	ffffffc050203250 <do_mutex_lock_acquire.part.0>
ffffffc050203924:	6722                	ld	a4,8(sp)
ffffffc050203926:	00371793          	slli	a5,a4,0x3
ffffffc05020392a:	00e78533          	add	a0,a5,a4
ffffffc05020392e:	00451793          	slli	a5,a0,0x4
ffffffc050203932:	00006717          	auipc	a4,0x6
ffffffc050203936:	b0670713          	addi	a4,a4,-1274 # ffffffc050209438 <mboxes>
ffffffc05020393a:	973e                	add	a4,a4,a5
ffffffc05020393c:	84be                	mv	s1,a5
ffffffc05020393e:	573c                	lw	a5,104(a4)
ffffffc050203940:	04f05163          	blez	a5,ffffffc050203982 <do_mbox_close+0x7e>
ffffffc050203944:	37fd                	addiw	a5,a5,-1
ffffffc050203946:	d73c                	sw	a5,104(a4)
ffffffc050203948:	ef8d                	bnez	a5,ffffffc050203982 <do_mbox_close+0x7e>
ffffffc05020394a:	f022                	sd	s0,32(sp)
ffffffc05020394c:	07048793          	addi	a5,s1,112
ffffffc050203950:	00070023          	sb	zero,0(a4)
ffffffc050203954:	00006717          	auipc	a4,0x6
ffffffc050203958:	ae470713          	addi	a4,a4,-1308 # ffffffc050209438 <mboxes>
ffffffc05020395c:	00e78433          	add	s0,a5,a4
ffffffc050203960:	8522                	mv	a0,s0
ffffffc050203962:	0ef000ef          	jal	ffffffc050204250 <do_unblock>
ffffffc050203966:	fd6d                	bnez	a0,ffffffc050203960 <do_mbox_close+0x5c>
ffffffc050203968:	08048793          	addi	a5,s1,128
ffffffc05020396c:	00006717          	auipc	a4,0x6
ffffffc050203970:	acc70713          	addi	a4,a4,-1332 # ffffffc050209438 <mboxes>
ffffffc050203974:	00f70433          	add	s0,a4,a5
ffffffc050203978:	8522                	mv	a0,s0
ffffffc05020397a:	0d7000ef          	jal	ffffffc050204250 <do_unblock>
ffffffc05020397e:	fd6d                	bnez	a0,ffffffc050203978 <do_mbox_close+0x74>
ffffffc050203980:	7402                	ld	s0,32(sp)
ffffffc050203982:	70a2                	ld	ra,40(sp)
ffffffc050203984:	64e2                	ld	s1,24(sp)
ffffffc050203986:	00003517          	auipc	a0,0x3
ffffffc05020398a:	12a52503          	lw	a0,298(a0) # ffffffc050206ab0 <mbox_global_mutex_idx>
ffffffc05020398e:	6145                	addi	sp,sp,48
ffffffc050203990:	b42d                	j	ffffffc0502033ba <do_mutex_lock_release>
ffffffc050203992:	8082                	ret

ffffffc050203994 <do_mbox_send>:
ffffffc050203994:	04000713          	li	a4,64
ffffffc050203998:	711d                	addi	sp,sp,-96
ffffffc05020399a:	0015b793          	seqz	a5,a1
ffffffc05020399e:	00c72733          	slt	a4,a4,a2
ffffffc0502039a2:	ec86                	sd	ra,88(sp)
ffffffc0502039a4:	e4a6                	sd	s1,72(sp)
ffffffc0502039a6:	8fd9                	or	a5,a5,a4
ffffffc0502039a8:	12079663          	bnez	a5,ffffffc050203ad4 <do_mbox_send+0x140>
ffffffc0502039ac:	47bd                	li	a5,15
ffffffc0502039ae:	12a7e363          	bltu	a5,a0,ffffffc050203ad4 <do_mbox_send+0x140>
ffffffc0502039b2:	ec5e                	sd	s7,24(sp)
ffffffc0502039b4:	00351b93          	slli	s7,a0,0x3
ffffffc0502039b8:	00ab87b3          	add	a5,s7,a0
ffffffc0502039bc:	e862                	sd	s8,16(sp)
ffffffc0502039be:	0792                	slli	a5,a5,0x4
ffffffc0502039c0:	00006c17          	auipc	s8,0x6
ffffffc0502039c4:	a78c0c13          	addi	s8,s8,-1416 # ffffffc050209438 <mboxes>
ffffffc0502039c8:	97e2                	add	a5,a5,s8
ffffffc0502039ca:	f05a                	sd	s6,32(sp)
ffffffc0502039cc:	8b2a                	mv	s6,a0
ffffffc0502039ce:	57e8                	lw	a0,108(a5)
ffffffc0502039d0:	e8a2                	sd	s0,80(sp)
ffffffc0502039d2:	fc4e                	sd	s3,56(sp)
ffffffc0502039d4:	e0ca                	sd	s2,64(sp)
ffffffc0502039d6:	f456                	sd	s5,40(sp)
ffffffc0502039d8:	e06a                	sd	s10,0(sp)
ffffffc0502039da:	89b2                	mv	s3,a2
ffffffc0502039dc:	842e                	mv	s0,a1
ffffffc0502039de:	00054463          	bltz	a0,ffffffc0502039e6 <do_mbox_send+0x52>
ffffffc0502039e2:	86fff0ef          	jal	ffffffc050203250 <do_mutex_lock_acquire.part.0>
ffffffc0502039e6:	016b8933          	add	s2,s7,s6
ffffffc0502039ea:	0912                	slli	s2,s2,0x4
ffffffc0502039ec:	012c0d33          	add	s10,s8,s2
ffffffc0502039f0:	064d2583          	lw	a1,100(s10)
ffffffc0502039f4:	04000a93          	li	s5,64
ffffffc0502039f8:	40ba87bb          	subw	a5,s5,a1
ffffffc0502039fc:	0d37da63          	bge	a5,s3,ffffffc050203ad0 <do_mbox_send+0x13c>
ffffffc050203a00:	f852                	sd	s4,48(sp)
ffffffc050203a02:	07090a13          	addi	s4,s2,112
ffffffc050203a06:	e466                	sd	s9,8(sp)
ffffffc050203a08:	9a62                	add	s4,s4,s8
ffffffc050203a0a:	4481                	li	s1,0
ffffffc050203a0c:	00006c97          	auipc	s9,0x6
ffffffc050203a10:	4dcc8c93          	addi	s9,s9,1244 # ffffffc050209ee8 <current_running>
ffffffc050203a14:	06cd2503          	lw	a0,108(s10)
ffffffc050203a18:	2485                	addiw	s1,s1,1
ffffffc050203a1a:	9a1ff0ef          	jal	ffffffc0502033ba <do_mutex_lock_release>
ffffffc050203a1e:	dd7fe0ef          	jal	ffffffc0502027f4 <get_current_cpu_id>
ffffffc050203a22:	0005079b          	sext.w	a5,a0
ffffffc050203a26:	078e                	slli	a5,a5,0x3
ffffffc050203a28:	97e6                	add	a5,a5,s9
ffffffc050203a2a:	6388                	ld	a0,0(a5)
ffffffc050203a2c:	85d2                	mv	a1,s4
ffffffc050203a2e:	0541                	addi	a0,a0,16
ffffffc050203a30:	784000ef          	jal	ffffffc0502041b4 <do_block>
ffffffc050203a34:	06cd2503          	lw	a0,108(s10)
ffffffc050203a38:	00054463          	bltz	a0,ffffffc050203a40 <do_mbox_send+0xac>
ffffffc050203a3c:	815ff0ef          	jal	ffffffc050203250 <do_mutex_lock_acquire.part.0>
ffffffc050203a40:	064d2583          	lw	a1,100(s10)
ffffffc050203a44:	40ba87bb          	subw	a5,s5,a1
ffffffc050203a48:	fd37c6e3          	blt	a5,s3,ffffffc050203a14 <do_mbox_send+0x80>
ffffffc050203a4c:	7a42                	ld	s4,48(sp)
ffffffc050203a4e:	6ca2                	ld	s9,8(sp)
ffffffc050203a50:	03305e63          	blez	s3,ffffffc050203a8c <do_mbox_send+0xf8>
ffffffc050203a54:	016b8633          	add	a2,s7,s6
ffffffc050203a58:	0612                	slli	a2,a2,0x4
ffffffc050203a5a:	9662                	add	a2,a2,s8
ffffffc050203a5c:	5234                	lw	a3,96(a2)
ffffffc050203a5e:	013408b3          	add	a7,s0,s3
ffffffc050203a62:	0016879b          	addiw	a5,a3,1
ffffffc050203a66:	41f7d71b          	sraiw	a4,a5,0x1f
ffffffc050203a6a:	01a7571b          	srliw	a4,a4,0x1a
ffffffc050203a6e:	00044803          	lbu	a6,0(s0)
ffffffc050203a72:	9fb9                	addw	a5,a5,a4
ffffffc050203a74:	03f7f793          	andi	a5,a5,63
ffffffc050203a78:	00d60533          	add	a0,a2,a3
ffffffc050203a7c:	40e786bb          	subw	a3,a5,a4
ffffffc050203a80:	01050ca3          	sb	a6,25(a0)
ffffffc050203a84:	0405                	addi	s0,s0,1
ffffffc050203a86:	d234                	sw	a3,96(a2)
ffffffc050203a88:	fc889de3          	bne	a7,s0,ffffffc050203a62 <do_mbox_send+0xce>
ffffffc050203a8c:	016b87b3          	add	a5,s7,s6
ffffffc050203a90:	0792                	slli	a5,a5,0x4
ffffffc050203a92:	00b985bb          	addw	a1,s3,a1
ffffffc050203a96:	08090913          	addi	s2,s2,128
ffffffc050203a9a:	97e2                	add	a5,a5,s8
ffffffc050203a9c:	9962                	add	s2,s2,s8
ffffffc050203a9e:	d3ec                	sw	a1,100(a5)
ffffffc050203aa0:	854a                	mv	a0,s2
ffffffc050203aa2:	7ae000ef          	jal	ffffffc050204250 <do_unblock>
ffffffc050203aa6:	fd6d                	bnez	a0,ffffffc050203aa0 <do_mbox_send+0x10c>
ffffffc050203aa8:	9bda                	add	s7,s7,s6
ffffffc050203aaa:	0b92                	slli	s7,s7,0x4
ffffffc050203aac:	9c5e                	add	s8,s8,s7
ffffffc050203aae:	06cc2503          	lw	a0,108(s8)
ffffffc050203ab2:	909ff0ef          	jal	ffffffc0502033ba <do_mutex_lock_release>
ffffffc050203ab6:	6446                	ld	s0,80(sp)
ffffffc050203ab8:	6906                	ld	s2,64(sp)
ffffffc050203aba:	79e2                	ld	s3,56(sp)
ffffffc050203abc:	7aa2                	ld	s5,40(sp)
ffffffc050203abe:	7b02                	ld	s6,32(sp)
ffffffc050203ac0:	6be2                	ld	s7,24(sp)
ffffffc050203ac2:	6c42                	ld	s8,16(sp)
ffffffc050203ac4:	6d02                	ld	s10,0(sp)
ffffffc050203ac6:	60e6                	ld	ra,88(sp)
ffffffc050203ac8:	8526                	mv	a0,s1
ffffffc050203aca:	64a6                	ld	s1,72(sp)
ffffffc050203acc:	6125                	addi	sp,sp,96
ffffffc050203ace:	8082                	ret
ffffffc050203ad0:	4481                	li	s1,0
ffffffc050203ad2:	bfbd                	j	ffffffc050203a50 <do_mbox_send+0xbc>
ffffffc050203ad4:	54fd                	li	s1,-1
ffffffc050203ad6:	bfc5                	j	ffffffc050203ac6 <do_mbox_send+0x132>

ffffffc050203ad8 <do_mbox_recv>:
ffffffc050203ad8:	711d                	addi	sp,sp,-96
ffffffc050203ada:	ec86                	sd	ra,88(sp)
ffffffc050203adc:	e8a2                	sd	s0,80(sp)
ffffffc050203ade:	47bd                	li	a5,15
ffffffc050203ae0:	10a7eb63          	bltu	a5,a0,ffffffc050203bf6 <do_mbox_recv+0x11e>
ffffffc050203ae4:	10058963          	beqz	a1,ffffffc050203bf6 <do_mbox_recv+0x11e>
ffffffc050203ae8:	f852                	sd	s4,48(sp)
ffffffc050203aea:	00351a13          	slli	s4,a0,0x3
ffffffc050203aee:	00aa07b3          	add	a5,s4,a0
ffffffc050203af2:	f456                	sd	s5,40(sp)
ffffffc050203af4:	0792                	slli	a5,a5,0x4
ffffffc050203af6:	00006a97          	auipc	s5,0x6
ffffffc050203afa:	942a8a93          	addi	s5,s5,-1726 # ffffffc050209438 <mboxes>
ffffffc050203afe:	97d6                	add	a5,a5,s5
ffffffc050203b00:	fc4e                	sd	s3,56(sp)
ffffffc050203b02:	89aa                	mv	s3,a0
ffffffc050203b04:	57e8                	lw	a0,108(a5)
ffffffc050203b06:	e0ca                	sd	s2,64(sp)
ffffffc050203b08:	f05a                	sd	s6,32(sp)
ffffffc050203b0a:	e4a6                	sd	s1,72(sp)
ffffffc050203b0c:	e466                	sd	s9,8(sp)
ffffffc050203b0e:	8932                	mv	s2,a2
ffffffc050203b10:	8b2e                	mv	s6,a1
ffffffc050203b12:	00054463          	bltz	a0,ffffffc050203b1a <do_mbox_recv+0x42>
ffffffc050203b16:	f3aff0ef          	jal	ffffffc050203250 <do_mutex_lock_acquire.part.0>
ffffffc050203b1a:	013a04b3          	add	s1,s4,s3
ffffffc050203b1e:	0492                	slli	s1,s1,0x4
ffffffc050203b20:	009a8cb3          	add	s9,s5,s1
ffffffc050203b24:	064ca783          	lw	a5,100(s9)
ffffffc050203b28:	0d27d563          	bge	a5,s2,ffffffc050203bf2 <do_mbox_recv+0x11a>
ffffffc050203b2c:	ec5e                	sd	s7,24(sp)
ffffffc050203b2e:	08048b93          	addi	s7,s1,128
ffffffc050203b32:	e862                	sd	s8,16(sp)
ffffffc050203b34:	9bd6                	add	s7,s7,s5
ffffffc050203b36:	4401                	li	s0,0
ffffffc050203b38:	00006c17          	auipc	s8,0x6
ffffffc050203b3c:	3b0c0c13          	addi	s8,s8,944 # ffffffc050209ee8 <current_running>
ffffffc050203b40:	06cca503          	lw	a0,108(s9)
ffffffc050203b44:	2405                	addiw	s0,s0,1
ffffffc050203b46:	875ff0ef          	jal	ffffffc0502033ba <do_mutex_lock_release>
ffffffc050203b4a:	cabfe0ef          	jal	ffffffc0502027f4 <get_current_cpu_id>
ffffffc050203b4e:	2501                	sext.w	a0,a0
ffffffc050203b50:	050e                	slli	a0,a0,0x3
ffffffc050203b52:	9562                	add	a0,a0,s8
ffffffc050203b54:	6108                	ld	a0,0(a0)
ffffffc050203b56:	85de                	mv	a1,s7
ffffffc050203b58:	0541                	addi	a0,a0,16
ffffffc050203b5a:	65a000ef          	jal	ffffffc0502041b4 <do_block>
ffffffc050203b5e:	06cca503          	lw	a0,108(s9)
ffffffc050203b62:	00054463          	bltz	a0,ffffffc050203b6a <do_mbox_recv+0x92>
ffffffc050203b66:	eeaff0ef          	jal	ffffffc050203250 <do_mutex_lock_acquire.part.0>
ffffffc050203b6a:	064ca783          	lw	a5,100(s9)
ffffffc050203b6e:	fd27c9e3          	blt	a5,s2,ffffffc050203b40 <do_mbox_recv+0x68>
ffffffc050203b72:	6be2                	ld	s7,24(sp)
ffffffc050203b74:	6c42                	ld	s8,16(sp)
ffffffc050203b76:	03205c63          	blez	s2,ffffffc050203bae <do_mbox_recv+0xd6>
ffffffc050203b7a:	013a06b3          	add	a3,s4,s3
ffffffc050203b7e:	0692                	slli	a3,a3,0x4
ffffffc050203b80:	96d6                	add	a3,a3,s5
ffffffc050203b82:	4efc                	lw	a5,92(a3)
ffffffc050203b84:	012b0633          	add	a2,s6,s2
ffffffc050203b88:	97b6                	add	a5,a5,a3
ffffffc050203b8a:	0197c783          	lbu	a5,25(a5)
ffffffc050203b8e:	0b05                	addi	s6,s6,1
ffffffc050203b90:	fefb0fa3          	sb	a5,-1(s6)
ffffffc050203b94:	4efc                	lw	a5,92(a3)
ffffffc050203b96:	2785                	addiw	a5,a5,1
ffffffc050203b98:	41f7d71b          	sraiw	a4,a5,0x1f
ffffffc050203b9c:	01a7571b          	srliw	a4,a4,0x1a
ffffffc050203ba0:	9fb9                	addw	a5,a5,a4
ffffffc050203ba2:	03f7f793          	andi	a5,a5,63
ffffffc050203ba6:	9f99                	subw	a5,a5,a4
ffffffc050203ba8:	cefc                	sw	a5,92(a3)
ffffffc050203baa:	fd661fe3          	bne	a2,s6,ffffffc050203b88 <do_mbox_recv+0xb0>
ffffffc050203bae:	013a07b3          	add	a5,s4,s3
ffffffc050203bb2:	0792                	slli	a5,a5,0x4
ffffffc050203bb4:	97d6                	add	a5,a5,s5
ffffffc050203bb6:	53f8                	lw	a4,100(a5)
ffffffc050203bb8:	07048493          	addi	s1,s1,112
ffffffc050203bbc:	94d6                	add	s1,s1,s5
ffffffc050203bbe:	4127073b          	subw	a4,a4,s2
ffffffc050203bc2:	d3f8                	sw	a4,100(a5)
ffffffc050203bc4:	8526                	mv	a0,s1
ffffffc050203bc6:	68a000ef          	jal	ffffffc050204250 <do_unblock>
ffffffc050203bca:	fd6d                	bnez	a0,ffffffc050203bc4 <do_mbox_recv+0xec>
ffffffc050203bcc:	9a4e                	add	s4,s4,s3
ffffffc050203bce:	0a12                	slli	s4,s4,0x4
ffffffc050203bd0:	9ad2                	add	s5,s5,s4
ffffffc050203bd2:	06caa503          	lw	a0,108(s5)
ffffffc050203bd6:	fe4ff0ef          	jal	ffffffc0502033ba <do_mutex_lock_release>
ffffffc050203bda:	64a6                	ld	s1,72(sp)
ffffffc050203bdc:	6906                	ld	s2,64(sp)
ffffffc050203bde:	79e2                	ld	s3,56(sp)
ffffffc050203be0:	7a42                	ld	s4,48(sp)
ffffffc050203be2:	7aa2                	ld	s5,40(sp)
ffffffc050203be4:	7b02                	ld	s6,32(sp)
ffffffc050203be6:	6ca2                	ld	s9,8(sp)
ffffffc050203be8:	60e6                	ld	ra,88(sp)
ffffffc050203bea:	8522                	mv	a0,s0
ffffffc050203bec:	6446                	ld	s0,80(sp)
ffffffc050203bee:	6125                	addi	sp,sp,96
ffffffc050203bf0:	8082                	ret
ffffffc050203bf2:	4401                	li	s0,0
ffffffc050203bf4:	b749                	j	ffffffc050203b76 <do_mbox_recv+0x9e>
ffffffc050203bf6:	547d                	li	s0,-1
ffffffc050203bf8:	bfc5                	j	ffffffc050203be8 <do_mbox_recv+0x110>

ffffffc050203bfa <_recycle_walker.isra.0>:
ffffffc050203bfa:	00157793          	andi	a5,a0,1
ffffffc050203bfe:	c3c1                	beqz	a5,ffffffc050203c7e <_recycle_walker.isra.0+0x84>
ffffffc050203c00:	7179                	addi	sp,sp,-48
ffffffc050203c02:	e44e                	sd	s3,8(sp)
ffffffc050203c04:	57fd                	li	a5,-1
ffffffc050203c06:	00a55993          	srli	s3,a0,0xa
ffffffc050203c0a:	e052                	sd	s4,0(sp)
ffffffc050203c0c:	09b2                	slli	s3,s3,0xc
ffffffc050203c0e:	179a                	slli	a5,a5,0x26
ffffffc050203c10:	f406                	sd	ra,40(sp)
ffffffc050203c12:	00f98a33          	add	s4,s3,a5
ffffffc050203c16:	e989                	bnez	a1,ffffffc050203c28 <_recycle_walker.isra.0+0x2e>
ffffffc050203c18:	00e57793          	andi	a5,a0,14
ffffffc050203c1c:	e3b5                	bnez	a5,ffffffc050203c80 <_recycle_walker.isra.0+0x86>
ffffffc050203c1e:	70a2                	ld	ra,40(sp)
ffffffc050203c20:	69a2                	ld	s3,8(sp)
ffffffc050203c22:	6a02                	ld	s4,0(sp)
ffffffc050203c24:	6145                	addi	sp,sp,48
ffffffc050203c26:	8082                	ret
ffffffc050203c28:	e84a                	sd	s2,16(sp)
ffffffc050203c2a:	fc000937          	lui	s2,0xfc000
ffffffc050203c2e:	0905                	addi	s2,s2,1 # fffffffffc000001 <__BSS_END__+0x3fabdf41f9>
ffffffc050203c30:	0932                	slli	s2,s2,0xc
ffffffc050203c32:	f022                	sd	s0,32(sp)
ffffffc050203c34:	ec26                	sd	s1,24(sp)
ffffffc050203c36:	994e                	add	s2,s2,s3
ffffffc050203c38:	fff5849b          	addiw	s1,a1,-1
ffffffc050203c3c:	8452                	mv	s0,s4
ffffffc050203c3e:	6008                	ld	a0,0(s0)
ffffffc050203c40:	85a6                	mv	a1,s1
ffffffc050203c42:	0421                	addi	s0,s0,8
ffffffc050203c44:	fb7ff0ef          	jal	ffffffc050203bfa <_recycle_walker.isra.0>
ffffffc050203c48:	ff241be3          	bne	s0,s2,ffffffc050203c3e <_recycle_walker.isra.0+0x44>
ffffffc050203c4c:	b00007b7          	lui	a5,0xb0000
ffffffc050203c50:	99be                	add	s3,s3,a5
ffffffc050203c52:	100007b7          	lui	a5,0x10000
ffffffc050203c56:	04f9fb63          	bgeu	s3,a5,ffffffc050203cac <_recycle_walker.isra.0+0xb2>
ffffffc050203c5a:	00003797          	auipc	a5,0x3
ffffffc050203c5e:	e5e7b783          	ld	a5,-418(a5) # ffffffc050206ab8 <freePageList>
ffffffc050203c62:	7402                	ld	s0,32(sp)
ffffffc050203c64:	70a2                	ld	ra,40(sp)
ffffffc050203c66:	00003717          	auipc	a4,0x3
ffffffc050203c6a:	e5473923          	sd	s4,-430(a4) # ffffffc050206ab8 <freePageList>
ffffffc050203c6e:	00fa3023          	sd	a5,0(s4)
ffffffc050203c72:	64e2                	ld	s1,24(sp)
ffffffc050203c74:	6942                	ld	s2,16(sp)
ffffffc050203c76:	69a2                	ld	s3,8(sp)
ffffffc050203c78:	6a02                	ld	s4,0(sp)
ffffffc050203c7a:	6145                	addi	sp,sp,48
ffffffc050203c7c:	8082                	ret
ffffffc050203c7e:	8082                	ret
ffffffc050203c80:	00455793          	srli	a5,a0,0x4
ffffffc050203c84:	8b85                	andi	a5,a5,1
ffffffc050203c86:	dfc1                	beqz	a5,ffffffc050203c1e <_recycle_walker.isra.0+0x24>
ffffffc050203c88:	b00007b7          	lui	a5,0xb0000
ffffffc050203c8c:	97ce                	add	a5,a5,s3
ffffffc050203c8e:	10000737          	lui	a4,0x10000
ffffffc050203c92:	f8e7f6e3          	bgeu	a5,a4,ffffffc050203c1e <_recycle_walker.isra.0+0x24>
ffffffc050203c96:	00003797          	auipc	a5,0x3
ffffffc050203c9a:	e227b783          	ld	a5,-478(a5) # ffffffc050206ab8 <freePageList>
ffffffc050203c9e:	00003717          	auipc	a4,0x3
ffffffc050203ca2:	e1473d23          	sd	s4,-486(a4) # ffffffc050206ab8 <freePageList>
ffffffc050203ca6:	00fa3023          	sd	a5,0(s4)
ffffffc050203caa:	bf95                	j	ffffffc050203c1e <_recycle_walker.isra.0+0x24>
ffffffc050203cac:	7402                	ld	s0,32(sp)
ffffffc050203cae:	70a2                	ld	ra,40(sp)
ffffffc050203cb0:	64e2                	ld	s1,24(sp)
ffffffc050203cb2:	6942                	ld	s2,16(sp)
ffffffc050203cb4:	69a2                	ld	s3,8(sp)
ffffffc050203cb6:	6a02                	ld	s4,0(sp)
ffffffc050203cb8:	6145                	addi	sp,sp,48
ffffffc050203cba:	8082                	ret

ffffffc050203cbc <allocPage>:
ffffffc050203cbc:	1101                	addi	sp,sp,-32
ffffffc050203cbe:	ec06                	sd	ra,24(sp)
ffffffc050203cc0:	4785                	li	a5,1
ffffffc050203cc2:	862a                	mv	a2,a0
ffffffc050203cc4:	00f51763          	bne	a0,a5,ffffffc050203cd2 <allocPage+0x16>
ffffffc050203cc8:	00003517          	auipc	a0,0x3
ffffffc050203ccc:	df053503          	ld	a0,-528(a0) # ffffffc050206ab8 <freePageList>
ffffffc050203cd0:	e91d                	bnez	a0,ffffffc050203d06 <allocPage+0x4a>
ffffffc050203cd2:	00003797          	auipc	a5,0x3
ffffffc050203cd6:	dce7b783          	ld	a5,-562(a5) # ffffffc050206aa0 <kernMemCurr>
ffffffc050203cda:	6705                	lui	a4,0x1
ffffffc050203cdc:	177d                	addi	a4,a4,-1 # fff <boot_stack_top_base-0x50201001>
ffffffc050203cde:	97ba                	add	a5,a5,a4
ffffffc050203ce0:	777d                	lui	a4,0xfffff
ffffffc050203ce2:	00e7f533          	and	a0,a5,a4
ffffffc050203ce6:	00c6161b          	slliw	a2,a2,0xc
ffffffc050203cea:	00a607b3          	add	a5,a2,a0
ffffffc050203cee:	4581                	li	a1,0
ffffffc050203cf0:	e42a                	sd	a0,8(sp)
ffffffc050203cf2:	00003717          	auipc	a4,0x3
ffffffc050203cf6:	daf73723          	sd	a5,-594(a4) # ffffffc050206aa0 <kernMemCurr>
ffffffc050203cfa:	39e010ef          	jal	ffffffc050205098 <memset>
ffffffc050203cfe:	60e2                	ld	ra,24(sp)
ffffffc050203d00:	6522                	ld	a0,8(sp)
ffffffc050203d02:	6105                	addi	sp,sp,32
ffffffc050203d04:	8082                	ret
ffffffc050203d06:	611c                	ld	a5,0(a0)
ffffffc050203d08:	6605                	lui	a2,0x1
ffffffc050203d0a:	4581                	li	a1,0
ffffffc050203d0c:	e42a                	sd	a0,8(sp)
ffffffc050203d0e:	00003717          	auipc	a4,0x3
ffffffc050203d12:	daf73523          	sd	a5,-598(a4) # ffffffc050206ab8 <freePageList>
ffffffc050203d16:	382010ef          	jal	ffffffc050205098 <memset>
ffffffc050203d1a:	60e2                	ld	ra,24(sp)
ffffffc050203d1c:	6522                	ld	a0,8(sp)
ffffffc050203d1e:	6105                	addi	sp,sp,32
ffffffc050203d20:	8082                	ret

ffffffc050203d22 <freePage>:
ffffffc050203d22:	3fb00793          	li	a5,1019
ffffffc050203d26:	07f2                	slli	a5,a5,0x1c
ffffffc050203d28:	97aa                	add	a5,a5,a0
ffffffc050203d2a:	10000737          	lui	a4,0x10000
ffffffc050203d2e:	00e7fb63          	bgeu	a5,a4,ffffffc050203d44 <freePage+0x22>
ffffffc050203d32:	00003797          	auipc	a5,0x3
ffffffc050203d36:	d867b783          	ld	a5,-634(a5) # ffffffc050206ab8 <freePageList>
ffffffc050203d3a:	00003717          	auipc	a4,0x3
ffffffc050203d3e:	d6a73f23          	sd	a0,-642(a4) # ffffffc050206ab8 <freePageList>
ffffffc050203d42:	e11c                	sd	a5,0(a0)
ffffffc050203d44:	8082                	ret

ffffffc050203d46 <kmalloc>:
ffffffc050203d46:	6605                	lui	a2,0x1
ffffffc050203d48:	fff60793          	addi	a5,a2,-1 # fff <boot_stack_top_base-0x50201001>
ffffffc050203d4c:	97aa                	add	a5,a5,a0
ffffffc050203d4e:	1101                	addi	sp,sp,-32
ffffffc050203d50:	83b1                	srli	a5,a5,0xc
ffffffc050203d52:	ec06                	sd	ra,24(sp)
ffffffc050203d54:	2781                	sext.w	a5,a5
ffffffc050203d56:	4705                	li	a4,1
ffffffc050203d58:	00e79763          	bne	a5,a4,ffffffc050203d66 <kmalloc+0x20>
ffffffc050203d5c:	00003517          	auipc	a0,0x3
ffffffc050203d60:	d5c53503          	ld	a0,-676(a0) # ffffffc050206ab8 <freePageList>
ffffffc050203d64:	e915                	bnez	a0,ffffffc050203d98 <kmalloc+0x52>
ffffffc050203d66:	00003717          	auipc	a4,0x3
ffffffc050203d6a:	d3a73703          	ld	a4,-710(a4) # ffffffc050206aa0 <kernMemCurr>
ffffffc050203d6e:	6685                	lui	a3,0x1
ffffffc050203d70:	16fd                	addi	a3,a3,-1 # fff <boot_stack_top_base-0x50201001>
ffffffc050203d72:	9736                	add	a4,a4,a3
ffffffc050203d74:	76fd                	lui	a3,0xfffff
ffffffc050203d76:	8f75                	and	a4,a4,a3
ffffffc050203d78:	00c7961b          	slliw	a2,a5,0xc
ffffffc050203d7c:	853a                	mv	a0,a4
ffffffc050203d7e:	4581                	li	a1,0
ffffffc050203d80:	9732                	add	a4,a4,a2
ffffffc050203d82:	e42a                	sd	a0,8(sp)
ffffffc050203d84:	00003797          	auipc	a5,0x3
ffffffc050203d88:	d0e7be23          	sd	a4,-740(a5) # ffffffc050206aa0 <kernMemCurr>
ffffffc050203d8c:	30c010ef          	jal	ffffffc050205098 <memset>
ffffffc050203d90:	60e2                	ld	ra,24(sp)
ffffffc050203d92:	6522                	ld	a0,8(sp)
ffffffc050203d94:	6105                	addi	sp,sp,32
ffffffc050203d96:	8082                	ret
ffffffc050203d98:	611c                	ld	a5,0(a0)
ffffffc050203d9a:	4581                	li	a1,0
ffffffc050203d9c:	e42a                	sd	a0,8(sp)
ffffffc050203d9e:	00003717          	auipc	a4,0x3
ffffffc050203da2:	d0f73d23          	sd	a5,-742(a4) # ffffffc050206ab8 <freePageList>
ffffffc050203da6:	2f2010ef          	jal	ffffffc050205098 <memset>
ffffffc050203daa:	60e2                	ld	ra,24(sp)
ffffffc050203dac:	6522                	ld	a0,8(sp)
ffffffc050203dae:	6105                	addi	sp,sp,32
ffffffc050203db0:	8082                	ret

ffffffc050203db2 <share_pgtable>:
ffffffc050203db2:	6605                	lui	a2,0x1
ffffffc050203db4:	2ca0106f          	j	ffffffc05020507e <memcpy>

ffffffc050203db8 <alloc_page_helper>:
ffffffc050203db8:	01e55793          	srli	a5,a0,0x1e
ffffffc050203dbc:	1ff7f793          	andi	a5,a5,511
ffffffc050203dc0:	078e                	slli	a5,a5,0x3
ffffffc050203dc2:	95be                	add	a1,a1,a5
ffffffc050203dc4:	619c                	ld	a5,0(a1)
ffffffc050203dc6:	7179                	addi	sp,sp,-48
ffffffc050203dc8:	01555713          	srli	a4,a0,0x15
ffffffc050203dcc:	f406                	sd	ra,40(sp)
ffffffc050203dce:	8131                	srli	a0,a0,0xc
ffffffc050203dd0:	0017f613          	andi	a2,a5,1
ffffffc050203dd4:	1ff77713          	andi	a4,a4,511
ffffffc050203dd8:	1ff57693          	andi	a3,a0,511
ffffffc050203ddc:	ce15                	beqz	a2,ffffffc050203e18 <alloc_page_helper+0x60>
ffffffc050203dde:	83a9                	srli	a5,a5,0xa
ffffffc050203de0:	567d                	li	a2,-1
ffffffc050203de2:	161a                	slli	a2,a2,0x26
ffffffc050203de4:	07b2                	slli	a5,a5,0xc
ffffffc050203de6:	070e                	slli	a4,a4,0x3
ffffffc050203de8:	97b2                	add	a5,a5,a2
ffffffc050203dea:	97ba                	add	a5,a5,a4
ffffffc050203dec:	6398                	ld	a4,0(a5)
ffffffc050203dee:	00177613          	andi	a2,a4,1
ffffffc050203df2:	ca29                	beqz	a2,ffffffc050203e44 <alloc_page_helper+0x8c>
ffffffc050203df4:	8329                	srli	a4,a4,0xa
ffffffc050203df6:	567d                	li	a2,-1
ffffffc050203df8:	0732                	slli	a4,a4,0xc
ffffffc050203dfa:	161a                	slli	a2,a2,0x26
ffffffc050203dfc:	068e                	slli	a3,a3,0x3
ffffffc050203dfe:	9732                	add	a4,a4,a2
ffffffc050203e00:	9736                	add	a4,a4,a3
ffffffc050203e02:	631c                	ld	a5,0(a4)
ffffffc050203e04:	0017f693          	andi	a3,a5,1
ffffffc050203e08:	c2b5                	beqz	a3,ffffffc050203e6c <alloc_page_helper+0xb4>
ffffffc050203e0a:	70a2                	ld	ra,40(sp)
ffffffc050203e0c:	00a7d513          	srli	a0,a5,0xa
ffffffc050203e10:	0532                	slli	a0,a0,0xc
ffffffc050203e12:	9532                	add	a0,a0,a2
ffffffc050203e14:	6145                	addi	sp,sp,48
ffffffc050203e16:	8082                	ret
ffffffc050203e18:	4505                	li	a0,1
ffffffc050203e1a:	ec36                	sd	a3,24(sp)
ffffffc050203e1c:	e83a                	sd	a4,16(sp)
ffffffc050203e1e:	e42e                	sd	a1,8(sp)
ffffffc050203e20:	e9dff0ef          	jal	ffffffc050203cbc <allocPage>
ffffffc050203e24:	65a2                	ld	a1,8(sp)
ffffffc050203e26:	4785                	li	a5,1
ffffffc050203e28:	179a                	slli	a5,a5,0x26
ffffffc050203e2a:	6190                	ld	a2,0(a1)
ffffffc050203e2c:	97aa                	add	a5,a5,a0
ffffffc050203e2e:	83b1                	srli	a5,a5,0xc
ffffffc050203e30:	07aa                	slli	a5,a5,0xa
ffffffc050203e32:	3ff67613          	andi	a2,a2,1023
ffffffc050203e36:	8fd1                	or	a5,a5,a2
ffffffc050203e38:	0017e793          	ori	a5,a5,1
ffffffc050203e3c:	66e2                	ld	a3,24(sp)
ffffffc050203e3e:	6742                	ld	a4,16(sp)
ffffffc050203e40:	e19c                	sd	a5,0(a1)
ffffffc050203e42:	bf71                	j	ffffffc050203dde <alloc_page_helper+0x26>
ffffffc050203e44:	4505                	li	a0,1
ffffffc050203e46:	e836                	sd	a3,16(sp)
ffffffc050203e48:	e43e                	sd	a5,8(sp)
ffffffc050203e4a:	e73ff0ef          	jal	ffffffc050203cbc <allocPage>
ffffffc050203e4e:	67a2                	ld	a5,8(sp)
ffffffc050203e50:	4705                	li	a4,1
ffffffc050203e52:	171a                	slli	a4,a4,0x26
ffffffc050203e54:	6390                	ld	a2,0(a5)
ffffffc050203e56:	972a                	add	a4,a4,a0
ffffffc050203e58:	8331                	srli	a4,a4,0xc
ffffffc050203e5a:	072a                	slli	a4,a4,0xa
ffffffc050203e5c:	3ff67613          	andi	a2,a2,1023
ffffffc050203e60:	8f51                	or	a4,a4,a2
ffffffc050203e62:	00176713          	ori	a4,a4,1
ffffffc050203e66:	66c2                	ld	a3,16(sp)
ffffffc050203e68:	e398                	sd	a4,0(a5)
ffffffc050203e6a:	b769                	j	ffffffc050203df4 <alloc_page_helper+0x3c>
ffffffc050203e6c:	4505                	li	a0,1
ffffffc050203e6e:	e43a                	sd	a4,8(sp)
ffffffc050203e70:	e4dff0ef          	jal	ffffffc050203cbc <allocPage>
ffffffc050203e74:	6722                	ld	a4,8(sp)
ffffffc050203e76:	4785                	li	a5,1
ffffffc050203e78:	179a                	slli	a5,a5,0x26
ffffffc050203e7a:	6314                	ld	a3,0(a4)
ffffffc050203e7c:	97aa                	add	a5,a5,a0
ffffffc050203e7e:	83b1                	srli	a5,a5,0xc
ffffffc050203e80:	07aa                	slli	a5,a5,0xa
ffffffc050203e82:	3ff6f693          	andi	a3,a3,1023
ffffffc050203e86:	70a2                	ld	ra,40(sp)
ffffffc050203e88:	8fd5                	or	a5,a5,a3
ffffffc050203e8a:	0df7e793          	ori	a5,a5,223
ffffffc050203e8e:	e31c                	sd	a5,0(a4)
ffffffc050203e90:	6145                	addi	sp,sp,48
ffffffc050203e92:	8082                	ret

ffffffc050203e94 <recycle_page_table>:
ffffffc050203e94:	711d                	addi	sp,sp,-96
ffffffc050203e96:	f456                	sd	s5,40(sp)
ffffffc050203e98:	fc000ab7          	lui	s5,0xfc000
ffffffc050203e9c:	f852                	sd	s4,48(sp)
ffffffc050203e9e:	ec5e                	sd	s7,24(sp)
ffffffc050203ea0:	7ff50a13          	addi	s4,a0,2047
ffffffc050203ea4:	5bfd                	li	s7,-1
ffffffc050203ea6:	0a85                	addi	s5,s5,1 # fffffffffc000001 <__BSS_END__+0x3fabdf41f9>
ffffffc050203ea8:	fc4e                	sd	s3,56(sp)
ffffffc050203eaa:	f05a                	sd	s6,32(sp)
ffffffc050203eac:	e862                	sd	s8,16(sp)
ffffffc050203eae:	e466                	sd	s9,8(sp)
ffffffc050203eb0:	ec86                	sd	ra,88(sp)
ffffffc050203eb2:	e8a2                	sd	s0,80(sp)
ffffffc050203eb4:	e4a6                	sd	s1,72(sp)
ffffffc050203eb6:	e0ca                	sd	s2,64(sp)
ffffffc050203eb8:	e06a                	sd	s10,0(sp)
ffffffc050203eba:	89aa                	mv	s3,a0
ffffffc050203ebc:	0a05                	addi	s4,s4,1
ffffffc050203ebe:	0ab2                	slli	s5,s5,0xc
ffffffc050203ec0:	1b9a                	slli	s7,s7,0x26
ffffffc050203ec2:	b0000cb7          	lui	s9,0xb0000
ffffffc050203ec6:	10000c37          	lui	s8,0x10000
ffffffc050203eca:	00003b17          	auipc	s6,0x3
ffffffc050203ece:	beeb0b13          	addi	s6,s6,-1042 # ffffffc050206ab8 <freePageList>
ffffffc050203ed2:	0009b783          	ld	a5,0(s3)
ffffffc050203ed6:	0017f713          	andi	a4,a5,1
ffffffc050203eda:	cb0d                	beqz	a4,ffffffc050203f0c <recycle_page_table+0x78>
ffffffc050203edc:	83a9                	srli	a5,a5,0xa
ffffffc050203ede:	00c79913          	slli	s2,a5,0xc
ffffffc050203ee2:	01790d33          	add	s10,s2,s7
ffffffc050203ee6:	846a                	mv	s0,s10
ffffffc050203ee8:	015904b3          	add	s1,s2,s5
ffffffc050203eec:	6008                	ld	a0,0(s0)
ffffffc050203eee:	4585                	li	a1,1
ffffffc050203ef0:	0421                	addi	s0,s0,8
ffffffc050203ef2:	d09ff0ef          	jal	ffffffc050203bfa <_recycle_walker.isra.0>
ffffffc050203ef6:	fe941be3          	bne	s0,s1,ffffffc050203eec <recycle_page_table+0x58>
ffffffc050203efa:	9966                	add	s2,s2,s9
ffffffc050203efc:	01897863          	bgeu	s2,s8,ffffffc050203f0c <recycle_page_table+0x78>
ffffffc050203f00:	000b3783          	ld	a5,0(s6)
ffffffc050203f04:	01ab3023          	sd	s10,0(s6)
ffffffc050203f08:	00fd3023          	sd	a5,0(s10)
ffffffc050203f0c:	0009b023          	sd	zero,0(s3)
ffffffc050203f10:	09a1                	addi	s3,s3,8
ffffffc050203f12:	fd4990e3          	bne	s3,s4,ffffffc050203ed2 <recycle_page_table+0x3e>
ffffffc050203f16:	60e6                	ld	ra,88(sp)
ffffffc050203f18:	6446                	ld	s0,80(sp)
ffffffc050203f1a:	64a6                	ld	s1,72(sp)
ffffffc050203f1c:	6906                	ld	s2,64(sp)
ffffffc050203f1e:	79e2                	ld	s3,56(sp)
ffffffc050203f20:	7a42                	ld	s4,48(sp)
ffffffc050203f22:	7aa2                	ld	s5,40(sp)
ffffffc050203f24:	7b02                	ld	s6,32(sp)
ffffffc050203f26:	6be2                	ld	s7,24(sp)
ffffffc050203f28:	6c42                	ld	s8,16(sp)
ffffffc050203f2a:	6ca2                	ld	s9,8(sp)
ffffffc050203f2c:	6d02                	ld	s10,0(sp)
ffffffc050203f2e:	6125                	addi	sp,sp,96
ffffffc050203f30:	8082                	ret

ffffffc050203f32 <shm_page_get>:
ffffffc050203f32:	8082                	ret

ffffffc050203f34 <shm_page_dt>:
ffffffc050203f34:	8082                	ret

ffffffc050203f36 <queue_pushfront>:
ffffffc050203f36:	619c                	ld	a5,0(a1)
ffffffc050203f38:	e188                	sd	a0,0(a1)
ffffffc050203f3a:	e50c                	sd	a1,8(a0)
ffffffc050203f3c:	e11c                	sd	a5,0(a0)
ffffffc050203f3e:	e788                	sd	a0,8(a5)
ffffffc050203f40:	8082                	ret

ffffffc050203f42 <queue_popback>:
ffffffc050203f42:	651c                	ld	a5,8(a0)
ffffffc050203f44:	00f50863          	beq	a0,a5,ffffffc050203f54 <queue_popback+0x12>
ffffffc050203f48:	6794                	ld	a3,8(a5)
ffffffc050203f4a:	6398                	ld	a4,0(a5)
ffffffc050203f4c:	e298                	sd	a4,0(a3)
ffffffc050203f4e:	e714                	sd	a3,8(a4)
ffffffc050203f50:	853e                	mv	a0,a5
ffffffc050203f52:	8082                	ret
ffffffc050203f54:	4781                	li	a5,0
ffffffc050203f56:	bfed                	j	ffffffc050203f50 <queue_popback+0xe>

ffffffc050203f58 <check_sleeping>:
ffffffc050203f58:	1101                	addi	sp,sp,-32
ffffffc050203f5a:	e426                	sd	s1,8(sp)
ffffffc050203f5c:	00003497          	auipc	s1,0x3
ffffffc050203f60:	b0c48493          	addi	s1,s1,-1268 # ffffffc050206a68 <sleep_queue>
ffffffc050203f64:	e822                	sd	s0,16(sp)
ffffffc050203f66:	6080                	ld	s0,0(s1)
ffffffc050203f68:	ec06                	sd	ra,24(sp)
ffffffc050203f6a:	2bb000ef          	jal	ffffffc050204a24 <get_timer>
ffffffc050203f6e:	02940763          	beq	s0,s1,ffffffc050203f9c <check_sleeping+0x44>
ffffffc050203f72:	4589                	li	a1,2
ffffffc050203f74:	00003617          	auipc	a2,0x3
ffffffc050203f78:	b0460613          	addi	a2,a2,-1276 # ffffffc050206a78 <ready_queue>
ffffffc050203f7c:	6038                	ld	a4,64(s0)
ffffffc050203f7e:	87a2                	mv	a5,s0
ffffffc050203f80:	6000                	ld	s0,0(s0)
ffffffc050203f82:	00e56b63          	bltu	a0,a4,ffffffc050203f98 <check_sleeping+0x40>
ffffffc050203f86:	6794                	ld	a3,8(a5)
ffffffc050203f88:	e280                	sd	s0,0(a3)
ffffffc050203f8a:	6898                	ld	a4,16(s1)
ffffffc050203f8c:	e414                	sd	a3,8(s0)
ffffffc050203f8e:	e89c                	sd	a5,16(s1)
ffffffc050203f90:	dbcc                	sw	a1,52(a5)
ffffffc050203f92:	e790                	sd	a2,8(a5)
ffffffc050203f94:	e398                	sd	a4,0(a5)
ffffffc050203f96:	e71c                	sd	a5,8(a4)
ffffffc050203f98:	fe9412e3          	bne	s0,s1,ffffffc050203f7c <check_sleeping+0x24>
ffffffc050203f9c:	60e2                	ld	ra,24(sp)
ffffffc050203f9e:	6442                	ld	s0,16(sp)
ffffffc050203fa0:	64a2                	ld	s1,8(sp)
ffffffc050203fa2:	6105                	addi	sp,sp,32
ffffffc050203fa4:	8082                	ret

ffffffc050203fa6 <do_scheduler>:
ffffffc050203fa6:	1141                	addi	sp,sp,-16
ffffffc050203fa8:	e406                	sd	ra,8(sp)
ffffffc050203faa:	e022                	sd	s0,0(sp)
ffffffc050203fac:	849fe0ef          	jal	ffffffc0502027f4 <get_current_cpu_id>
ffffffc050203fb0:	0005041b          	sext.w	s0,a0
ffffffc050203fb4:	fa5ff0ef          	jal	ffffffc050203f58 <check_sleeping>
ffffffc050203fb8:	00003897          	auipc	a7,0x3
ffffffc050203fbc:	ab088893          	addi	a7,a7,-1360 # ffffffc050206a68 <sleep_queue>
ffffffc050203fc0:	0188b783          	ld	a5,24(a7)
ffffffc050203fc4:	00003617          	auipc	a2,0x3
ffffffc050203fc8:	ab460613          	addi	a2,a2,-1356 # ffffffc050206a78 <ready_queue>
ffffffc050203fcc:	02c78163          	beq	a5,a2,ffffffc050203fee <do_scheduler+0x48>
ffffffc050203fd0:	4805                	li	a6,1
ffffffc050203fd2:	0088183b          	sllw	a6,a6,s0
ffffffc050203fd6:	458d                	li	a1,3
ffffffc050203fd8:	5bd4                	lw	a3,52(a5)
ffffffc050203fda:	873e                	mv	a4,a5
ffffffc050203fdc:	679c                	ld	a5,8(a5)
ffffffc050203fde:	0ab68963          	beq	a3,a1,ffffffc050204090 <do_scheduler+0xea>
ffffffc050203fe2:	5334                	lw	a3,96(a4)
ffffffc050203fe4:	00d876b3          	and	a3,a6,a3
ffffffc050203fe8:	ead5                	bnez	a3,ffffffc05020409c <do_scheduler+0xf6>
ffffffc050203fea:	fec797e3          	bne	a5,a2,ffffffc050203fd8 <do_scheduler+0x32>
ffffffc050203fee:	0d800713          	li	a4,216
ffffffc050203ff2:	02e40733          	mul	a4,s0,a4
ffffffc050203ff6:	00006697          	auipc	a3,0x6
ffffffc050203ffa:	d4268693          	addi	a3,a3,-702 # ffffffc050209d38 <pid0_pcb>
ffffffc050203ffe:	00e685b3          	add	a1,a3,a4
ffffffc050204002:	41f8                	lw	a4,68(a1)
ffffffc050204004:	478d                	li	a5,3
ffffffc050204006:	00f70463          	beq	a4,a5,ffffffc05020400e <do_scheduler+0x68>
ffffffc05020400a:	4785                	li	a5,1
ffffffc05020400c:	c1fc                	sw	a5,68(a1)
ffffffc05020400e:	00341793          	slli	a5,s0,0x3
ffffffc050204012:	00f68733          	add	a4,a3,a5
ffffffc050204016:	1b073503          	ld	a0,432(a4)
ffffffc05020401a:	4805                	li	a6,1
ffffffc05020401c:	4178                	lw	a4,68(a0)
ffffffc05020401e:	05070263          	beq	a4,a6,ffffffc050204062 <do_scheduler+0xbc>
ffffffc050204022:	460d                	li	a2,3
ffffffc050204024:	04c71a63          	bne	a4,a2,ffffffc050204078 <do_scheduler+0xd2>
ffffffc050204028:	96be                	add	a3,a3,a5
ffffffc05020402a:	1ab6b823          	sd	a1,432(a3)
ffffffc05020402e:	d9e0                	sw	s0,116(a1)
ffffffc050204030:	04a58c63          	beq	a1,a0,ffffffc050204088 <do_scheduler+0xe2>
ffffffc050204034:	69fc                	ld	a5,208(a1)
ffffffc050204036:	0405e683          	lwu	a3,64(a1)
ffffffc05020403a:	4705                	li	a4,1
ffffffc05020403c:	171a                	slli	a4,a4,0x26
ffffffc05020403e:	97ba                	add	a5,a5,a4
ffffffc050204040:	16b2                	slli	a3,a3,0x2c
ffffffc050204042:	83b1                	srli	a5,a5,0xc
ffffffc050204044:	577d                	li	a4,-1
ffffffc050204046:	8fd5                	or	a5,a5,a3
ffffffc050204048:	177e                	slli	a4,a4,0x3f
ffffffc05020404a:	8fd9                	or	a5,a5,a4
ffffffc05020404c:	12000073          	sfence.vma
ffffffc050204050:	18079073          	csrw	satp,a5
ffffffc050204054:	12000073          	sfence.vma
ffffffc050204058:	6402                	ld	s0,0(sp)
ffffffc05020405a:	60a2                	ld	ra,8(sp)
ffffffc05020405c:	0141                	addi	sp,sp,16
ffffffc05020405e:	e6efe06f          	j	ffffffc0502026cc <switch_to>
ffffffc050204062:	4138                	lw	a4,64(a0)
ffffffc050204064:	cb11                	beqz	a4,ffffffc050204078 <do_scheduler+0xd2>
ffffffc050204066:	0108b703          	ld	a4,16(a7)
ffffffc05020406a:	ed10                	sd	a2,24(a0)
ffffffc05020406c:	01050613          	addi	a2,a0,16
ffffffc050204070:	e918                	sd	a4,16(a0)
ffffffc050204072:	00c8b823          	sd	a2,16(a7)
ffffffc050204076:	e710                	sd	a2,8(a4)
ffffffc050204078:	4709                	li	a4,2
ffffffc05020407a:	c178                	sw	a4,68(a0)
ffffffc05020407c:	96be                	add	a3,a3,a5
ffffffc05020407e:	1ab6b823          	sd	a1,432(a3)
ffffffc050204082:	d9e0                	sw	s0,116(a1)
ffffffc050204084:	faa598e3          	bne	a1,a0,ffffffc050204034 <do_scheduler+0x8e>
ffffffc050204088:	60a2                	ld	ra,8(sp)
ffffffc05020408a:	6402                	ld	s0,0(sp)
ffffffc05020408c:	0141                	addi	sp,sp,16
ffffffc05020408e:	8082                	ret
ffffffc050204090:	6318                	ld	a4,0(a4)
ffffffc050204092:	e398                	sd	a4,0(a5)
ffffffc050204094:	e71c                	sd	a5,8(a4)
ffffffc050204096:	f4c791e3          	bne	a5,a2,ffffffc050203fd8 <do_scheduler+0x32>
ffffffc05020409a:	bf91                	j	ffffffc050203fee <do_scheduler+0x48>
ffffffc05020409c:	6308                	ld	a0,0(a4)
ffffffc05020409e:	ff070593          	addi	a1,a4,-16
ffffffc0502040a2:	00006697          	auipc	a3,0x6
ffffffc0502040a6:	c9668693          	addi	a3,a3,-874 # ffffffc050209d38 <pid0_pcb>
ffffffc0502040aa:	e388                	sd	a0,0(a5)
ffffffc0502040ac:	e51c                	sd	a5,8(a0)
ffffffc0502040ae:	bf91                	j	ffffffc050204002 <do_scheduler+0x5c>

ffffffc0502040b0 <do_sleep>:
ffffffc0502040b0:	7139                	addi	sp,sp,-64
ffffffc0502040b2:	f822                	sd	s0,48(sp)
ffffffc0502040b4:	00003417          	auipc	s0,0x3
ffffffc0502040b8:	9b440413          	addi	s0,s0,-1612 # ffffffc050206a68 <sleep_queue>
ffffffc0502040bc:	681c                	ld	a5,16(s0)
ffffffc0502040be:	fc06                	sd	ra,56(sp)
ffffffc0502040c0:	00003617          	auipc	a2,0x3
ffffffc0502040c4:	9b860613          	addi	a2,a2,-1608 # ffffffc050206a78 <ready_queue>
ffffffc0502040c8:	0ac78663          	beq	a5,a2,ffffffc050204174 <do_sleep+0xc4>
ffffffc0502040cc:	e42a                	sd	a0,8(sp)
ffffffc0502040ce:	f26fe0ef          	jal	ffffffc0502027f4 <get_current_cpu_id>
ffffffc0502040d2:	2501                	sext.w	a0,a0
ffffffc0502040d4:	6c18                	ld	a4,24(s0)
ffffffc0502040d6:	050e                	slli	a0,a0,0x3
ffffffc0502040d8:	00006697          	auipc	a3,0x6
ffffffc0502040dc:	c6068693          	addi	a3,a3,-928 # ffffffc050209d38 <pid0_pcb>
ffffffc0502040e0:	96aa                	add	a3,a3,a0
ffffffc0502040e2:	00003617          	auipc	a2,0x3
ffffffc0502040e6:	99660613          	addi	a2,a2,-1642 # ffffffc050206a78 <ready_queue>
ffffffc0502040ea:	00816783          	lwu	a5,8(sp)
ffffffc0502040ee:	1b06b303          	ld	t1,432(a3)
ffffffc0502040f2:	08c70563          	beq	a4,a2,ffffffc05020417c <do_sleep+0xcc>
ffffffc0502040f6:	6310                	ld	a2,0(a4)
ffffffc0502040f8:	6708                	ld	a0,8(a4)
ffffffc0502040fa:	ff070593          	addi	a1,a4,-16
ffffffc0502040fe:	f436                	sd	a3,40(sp)
ffffffc050204100:	e110                	sd	a2,0(a0)
ffffffc050204102:	e608                	sd	a0,8(a2)
ffffffc050204104:	f01a                	sd	t1,32(sp)
ffffffc050204106:	ec3e                	sd	a5,24(sp)
ffffffc050204108:	e83a                	sd	a4,16(sp)
ffffffc05020410a:	e42e                	sd	a1,8(sp)
ffffffc05020410c:	119000ef          	jal	ffffffc050204a24 <get_timer>
ffffffc050204110:	67e2                	ld	a5,24(sp)
ffffffc050204112:	76a2                	ld	a3,40(sp)
ffffffc050204114:	7302                	ld	t1,32(sp)
ffffffc050204116:	953e                	add	a0,a0,a5
ffffffc050204118:	1b06b603          	ld	a2,432(a3)
ffffffc05020411c:	04a33823          	sd	a0,80(t1)
ffffffc050204120:	6742                	ld	a4,16(sp)
ffffffc050204122:	6008                	ld	a0,0(s0)
ffffffc050204124:	01060893          	addi	a7,a2,16
ffffffc050204128:	637c                	ld	a5,192(a4)
ffffffc05020412a:	ea08                	sd	a0,16(a2)
ffffffc05020412c:	ee00                	sd	s0,24(a2)
ffffffc05020412e:	01153423          	sd	a7,8(a0)
ffffffc050204132:	04062223          	sw	zero,68(a2)
ffffffc050204136:	4805                	li	a6,1
ffffffc050204138:	03076503          	lwu	a0,48(a4)
ffffffc05020413c:	02681613          	slli	a2,a6,0x26
ffffffc050204140:	65a2                	ld	a1,8(sp)
ffffffc050204142:	97b2                	add	a5,a5,a2
ffffffc050204144:	1532                	slli	a0,a0,0x2c
ffffffc050204146:	83b1                	srli	a5,a5,0xc
ffffffc050204148:	567d                	li	a2,-1
ffffffc05020414a:	8fc9                	or	a5,a5,a0
ffffffc05020414c:	167e                	slli	a2,a2,0x3f
ffffffc05020414e:	1ab6b823          	sd	a1,432(a3)
ffffffc050204152:	01143023          	sd	a7,0(s0)
ffffffc050204156:	03072a23          	sw	a6,52(a4)
ffffffc05020415a:	8fd1                	or	a5,a5,a2
ffffffc05020415c:	12000073          	sfence.vma
ffffffc050204160:	18079073          	csrw	satp,a5
ffffffc050204164:	12000073          	sfence.vma
ffffffc050204168:	7442                	ld	s0,48(sp)
ffffffc05020416a:	70e2                	ld	ra,56(sp)
ffffffc05020416c:	851a                	mv	a0,t1
ffffffc05020416e:	6121                	addi	sp,sp,64
ffffffc050204170:	d5cfe06f          	j	ffffffc0502026cc <switch_to>
ffffffc050204174:	70e2                	ld	ra,56(sp)
ffffffc050204176:	7442                	ld	s0,48(sp)
ffffffc050204178:	6121                	addi	sp,sp,64
ffffffc05020417a:	8082                	ret
ffffffc05020417c:	ec36                	sd	a3,24(sp)
ffffffc05020417e:	e81a                	sd	t1,16(sp)
ffffffc050204180:	e43e                	sd	a5,8(sp)
ffffffc050204182:	0a3000ef          	jal	ffffffc050204a24 <get_timer>
ffffffc050204186:	66e2                	ld	a3,24(sp)
ffffffc050204188:	67a2                	ld	a5,8(sp)
ffffffc05020418a:	6342                	ld	t1,16(sp)
ffffffc05020418c:	1b06b703          	ld	a4,432(a3)
ffffffc050204190:	6010                	ld	a2,0(s0)
ffffffc050204192:	97aa                	add	a5,a5,a0
ffffffc050204194:	04f33823          	sd	a5,80(t1)
ffffffc050204198:	eb10                	sd	a2,16(a4)
ffffffc05020419a:	ef00                	sd	s0,24(a4)
ffffffc05020419c:	01070793          	addi	a5,a4,16
ffffffc0502041a0:	e61c                	sd	a5,8(a2)
ffffffc0502041a2:	5641                	li	a2,-16
ffffffc0502041a4:	e01c                	sd	a5,0(s0)
ffffffc0502041a6:	04072223          	sw	zero,68(a4)
ffffffc0502041aa:	1ac6b823          	sd	a2,432(a3)
ffffffc0502041ae:	02002a23          	sw	zero,52(zero) # 34 <boot_stack_top_base-0x50201fcc>
ffffffc0502041b2:	9002                	ebreak

ffffffc0502041b4 <do_block>:
ffffffc0502041b4:	619c                	ld	a5,0(a1)
ffffffc0502041b6:	1141                	addi	sp,sp,-16
ffffffc0502041b8:	e406                	sd	ra,8(sp)
ffffffc0502041ba:	e188                	sd	a0,0(a1)
ffffffc0502041bc:	e50c                	sd	a1,8(a0)
ffffffc0502041be:	e11c                	sd	a5,0(a0)
ffffffc0502041c0:	e788                	sd	a0,8(a5)
ffffffc0502041c2:	e32fe0ef          	jal	ffffffc0502027f4 <get_current_cpu_id>
ffffffc0502041c6:	0005059b          	sext.w	a1,a0
ffffffc0502041ca:	00359893          	slli	a7,a1,0x3
ffffffc0502041ce:	00006717          	auipc	a4,0x6
ffffffc0502041d2:	b6a70713          	addi	a4,a4,-1174 # ffffffc050209d38 <pid0_pcb>
ffffffc0502041d6:	011707b3          	add	a5,a4,a7
ffffffc0502041da:	1b07b503          	ld	a0,432(a5)
ffffffc0502041de:	00003697          	auipc	a3,0x3
ffffffc0502041e2:	88a68693          	addi	a3,a3,-1910 # ffffffc050206a68 <sleep_queue>
ffffffc0502041e6:	6a90                	ld	a2,16(a3)
ffffffc0502041e8:	04052223          	sw	zero,68(a0)
ffffffc0502041ec:	00003797          	auipc	a5,0x3
ffffffc0502041f0:	88c78793          	addi	a5,a5,-1908 # ffffffc050206a78 <ready_queue>
ffffffc0502041f4:	04f60663          	beq	a2,a5,ffffffc050204240 <do_block+0x8c>
ffffffc0502041f8:	6e8c                	ld	a1,24(a3)
ffffffc0502041fa:	04f58963          	beq	a1,a5,ffffffc05020424c <do_block+0x98>
ffffffc0502041fe:	6594                	ld	a3,8(a1)
ffffffc050204200:	619c                	ld	a5,0(a1)
ffffffc050204202:	15c1                	addi	a1,a1,-16
ffffffc050204204:	e29c                	sd	a5,0(a3)
ffffffc050204206:	e794                	sd	a3,8(a5)
ffffffc050204208:	69fc                	ld	a5,208(a1)
ffffffc05020420a:	4805                	li	a6,1
ffffffc05020420c:	0405e603          	lwu	a2,64(a1)
ffffffc050204210:	02681693          	slli	a3,a6,0x26
ffffffc050204214:	97b6                	add	a5,a5,a3
ffffffc050204216:	1632                	slli	a2,a2,0x2c
ffffffc050204218:	83b1                	srli	a5,a5,0xc
ffffffc05020421a:	56fd                	li	a3,-1
ffffffc05020421c:	9746                	add	a4,a4,a7
ffffffc05020421e:	8fd1                	or	a5,a5,a2
ffffffc050204220:	16fe                	slli	a3,a3,0x3f
ffffffc050204222:	1ab73823          	sd	a1,432(a4)
ffffffc050204226:	0505a223          	sw	a6,68(a1)
ffffffc05020422a:	8fd5                	or	a5,a5,a3
ffffffc05020422c:	12000073          	sfence.vma
ffffffc050204230:	18079073          	csrw	satp,a5
ffffffc050204234:	12000073          	sfence.vma
ffffffc050204238:	60a2                	ld	ra,8(sp)
ffffffc05020423a:	0141                	addi	sp,sp,16
ffffffc05020423c:	c90fe06f          	j	ffffffc0502026cc <switch_to>
ffffffc050204240:	0d800793          	li	a5,216
ffffffc050204244:	02f585b3          	mul	a1,a1,a5
ffffffc050204248:	95ba                	add	a1,a1,a4
ffffffc05020424a:	bf7d                	j	ffffffc050204208 <do_block+0x54>
ffffffc05020424c:	55c1                	li	a1,-16
ffffffc05020424e:	bf6d                	j	ffffffc050204208 <do_block+0x54>

ffffffc050204250 <do_unblock>:
ffffffc050204250:	651c                	ld	a5,8(a0)
ffffffc050204252:	02f50963          	beq	a0,a5,ffffffc050204284 <do_unblock+0x34>
ffffffc050204256:	6394                	ld	a3,0(a5)
ffffffc050204258:	6790                	ld	a2,8(a5)
ffffffc05020425a:	4509                	li	a0,2
ffffffc05020425c:	00003597          	auipc	a1,0x3
ffffffc050204260:	81c58593          	addi	a1,a1,-2020 # ffffffc050206a78 <ready_queue>
ffffffc050204264:	e214                	sd	a3,0(a2)
ffffffc050204266:	00003717          	auipc	a4,0x3
ffffffc05020426a:	81273703          	ld	a4,-2030(a4) # ffffffc050206a78 <ready_queue>
ffffffc05020426e:	e690                	sd	a2,8(a3)
ffffffc050204270:	00003697          	auipc	a3,0x3
ffffffc050204274:	80f6b423          	sd	a5,-2040(a3) # ffffffc050206a78 <ready_queue>
ffffffc050204278:	dbc8                	sw	a0,52(a5)
ffffffc05020427a:	e398                	sd	a4,0(a5)
ffffffc05020427c:	e78c                	sd	a1,8(a5)
ffffffc05020427e:	e71c                	sd	a5,8(a4)
ffffffc050204280:	4505                	li	a0,1
ffffffc050204282:	8082                	ret
ffffffc050204284:	4501                	li	a0,0
ffffffc050204286:	8082                	ret

ffffffc050204288 <do_process_show>:
ffffffc050204288:	00003617          	auipc	a2,0x3
ffffffc05020428c:	82062603          	lw	a2,-2016(a2) # ffffffc050206aa8 <pcb_num>
ffffffc050204290:	0ac05163          	blez	a2,ffffffc050204332 <do_process_show+0xaa>
ffffffc050204294:	7139                	addi	sp,sp,-64
ffffffc050204296:	f822                	sd	s0,48(sp)
ffffffc050204298:	f426                	sd	s1,40(sp)
ffffffc05020429a:	ec4e                	sd	s3,24(sp)
ffffffc05020429c:	e852                	sd	s4,16(sp)
ffffffc05020429e:	e456                	sd	s5,8(sp)
ffffffc0502042a0:	fc06                	sd	ra,56(sp)
ffffffc0502042a2:	f04a                	sd	s2,32(sp)
ffffffc0502042a4:	00006417          	auipc	s0,0x6
ffffffc0502042a8:	cc440413          	addi	s0,s0,-828 # ffffffc050209f68 <pcb+0x60>
ffffffc0502042ac:	4481                	li	s1,0
ffffffc0502042ae:	4581                	li	a1,0
ffffffc0502042b0:	4a0d                	li	s4,3
ffffffc0502042b2:	00001997          	auipc	s3,0x1
ffffffc0502042b6:	44698993          	addi	s3,s3,1094 # ffffffc0502056f8 <status_str>
ffffffc0502042ba:	4a85                	li	s5,1
ffffffc0502042bc:	fe442683          	lw	a3,-28(s0)
ffffffc0502042c0:	87a2                	mv	a5,s0
ffffffc0502042c2:	00001517          	auipc	a0,0x1
ffffffc0502042c6:	29e50513          	addi	a0,a0,670 # ffffffc050205560 <strcat+0x3b6>
ffffffc0502042ca:	02069813          	slli	a6,a3,0x20
ffffffc0502042ce:	01d85713          	srli	a4,a6,0x1d
ffffffc0502042d2:	0015891b          	addiw	s2,a1,1
ffffffc0502042d6:	974e                	add	a4,a4,s3
ffffffc0502042d8:	03468763          	beq	a3,s4,ffffffc050204306 <do_process_show+0x7e>
ffffffc0502042dc:	6314                	ld	a3,0(a4)
ffffffc0502042de:	fe042603          	lw	a2,-32(s0)
ffffffc0502042e2:	4818                	lw	a4,16(s0)
ffffffc0502042e4:	517000ef          	jal	ffffffc050204ffa <printk>
ffffffc0502042e8:	fe442783          	lw	a5,-28(s0)
ffffffc0502042ec:	03578b63          	beq	a5,s5,ffffffc050204322 <do_process_show+0x9a>
ffffffc0502042f0:	00001517          	auipc	a0,0x1
ffffffc0502042f4:	2c050513          	addi	a0,a0,704 # ffffffc0502055b0 <strcat+0x406>
ffffffc0502042f8:	503000ef          	jal	ffffffc050204ffa <printk>
ffffffc0502042fc:	00002617          	auipc	a2,0x2
ffffffc050204300:	7ac62603          	lw	a2,1964(a2) # ffffffc050206aa8 <pcb_num>
ffffffc050204304:	85ca                	mv	a1,s2
ffffffc050204306:	2485                	addiw	s1,s1,1
ffffffc050204308:	0d840413          	addi	s0,s0,216
ffffffc05020430c:	fac4c8e3          	blt	s1,a2,ffffffc0502042bc <do_process_show+0x34>
ffffffc050204310:	70e2                	ld	ra,56(sp)
ffffffc050204312:	7442                	ld	s0,48(sp)
ffffffc050204314:	74a2                	ld	s1,40(sp)
ffffffc050204316:	7902                	ld	s2,32(sp)
ffffffc050204318:	69e2                	ld	s3,24(sp)
ffffffc05020431a:	6a42                	ld	s4,16(sp)
ffffffc05020431c:	6aa2                	ld	s5,8(sp)
ffffffc05020431e:	6121                	addi	sp,sp,64
ffffffc050204320:	8082                	ret
ffffffc050204322:	484c                	lw	a1,20(s0)
ffffffc050204324:	00001517          	auipc	a0,0x1
ffffffc050204328:	27450513          	addi	a0,a0,628 # ffffffc050205598 <strcat+0x3ee>
ffffffc05020432c:	4cf000ef          	jal	ffffffc050204ffa <printk>
ffffffc050204330:	b7c1                	j	ffffffc0502042f0 <do_process_show+0x68>
ffffffc050204332:	8082                	ret

ffffffc050204334 <do_waitpid>:
ffffffc050204334:	00006717          	auipc	a4,0x6
ffffffc050204338:	c1470713          	addi	a4,a4,-1004 # ffffffc050209f48 <pcb+0x40>
ffffffc05020433c:	4781                	li	a5,0
ffffffc05020433e:	02000613          	li	a2,32
ffffffc050204342:	a031                	j	ffffffc05020434e <do_waitpid+0x1a>
ffffffc050204344:	2785                	addiw	a5,a5,1
ffffffc050204346:	0d870713          	addi	a4,a4,216
ffffffc05020434a:	0cc78b63          	beq	a5,a2,ffffffc050204420 <do_waitpid+0xec>
ffffffc05020434e:	4314                	lw	a3,0(a4)
ffffffc050204350:	fea69ae3          	bne	a3,a0,ffffffc050204344 <do_waitpid+0x10>
ffffffc050204354:	0d800713          	li	a4,216
ffffffc050204358:	02e787b3          	mul	a5,a5,a4
ffffffc05020435c:	00006597          	auipc	a1,0x6
ffffffc050204360:	bac58593          	addi	a1,a1,-1108 # ffffffc050209f08 <pcb>
ffffffc050204364:	470d                	li	a4,3
ffffffc050204366:	00f58633          	add	a2,a1,a5
ffffffc05020436a:	4274                	lw	a3,68(a2)
ffffffc05020436c:	0ae68a63          	beq	a3,a4,ffffffc050204420 <do_waitpid+0xec>
ffffffc050204370:	1101                	addi	sp,sp,-32
ffffffc050204372:	e822                	sd	s0,16(sp)
ffffffc050204374:	e43e                	sd	a5,8(sp)
ffffffc050204376:	e032                	sd	a2,0(sp)
ffffffc050204378:	ec06                	sd	ra,24(sp)
ffffffc05020437a:	842a                	mv	s0,a0
ffffffc05020437c:	c78fe0ef          	jal	ffffffc0502027f4 <get_current_cpu_id>
ffffffc050204380:	0005071b          	sext.w	a4,a0
ffffffc050204384:	070e                	slli	a4,a4,0x3
ffffffc050204386:	00006697          	auipc	a3,0x6
ffffffc05020438a:	9b268693          	addi	a3,a3,-1614 # ffffffc050209d38 <pid0_pcb>
ffffffc05020438e:	00e68533          	add	a0,a3,a4
ffffffc050204392:	1b053503          	ld	a0,432(a0)
ffffffc050204396:	4805                	li	a6,1
ffffffc050204398:	6602                	ld	a2,0(sp)
ffffffc05020439a:	04452883          	lw	a7,68(a0)
ffffffc05020439e:	67a2                	ld	a5,8(sp)
ffffffc0502043a0:	00006597          	auipc	a1,0x6
ffffffc0502043a4:	b6858593          	addi	a1,a1,-1176 # ffffffc050209f08 <pcb>
ffffffc0502043a8:	07088e63          	beq	a7,a6,ffffffc050204424 <do_waitpid+0xf0>
ffffffc0502043ac:	00002617          	auipc	a2,0x2
ffffffc0502043b0:	6bc60613          	addi	a2,a2,1724 # ffffffc050206a68 <sleep_queue>
ffffffc0502043b4:	6a0c                	ld	a1,16(a2)
ffffffc0502043b6:	00002797          	auipc	a5,0x2
ffffffc0502043ba:	6c278793          	addi	a5,a5,1730 # ffffffc050206a78 <ready_queue>
ffffffc0502043be:	04f58c63          	beq	a1,a5,ffffffc050204416 <do_waitpid+0xe2>
ffffffc0502043c2:	6e0c                	ld	a1,24(a2)
ffffffc0502043c4:	08f58963          	beq	a1,a5,ffffffc050204456 <do_waitpid+0x122>
ffffffc0502043c8:	6190                	ld	a2,0(a1)
ffffffc0502043ca:	0085b803          	ld	a6,8(a1)
ffffffc0502043ce:	61fc                	ld	a5,192(a1)
ffffffc0502043d0:	96ba                	add	a3,a3,a4
ffffffc0502043d2:	00c83023          	sd	a2,0(a6)
ffffffc0502043d6:	01063423          	sd	a6,8(a2)
ffffffc0502043da:	4705                	li	a4,1
ffffffc0502043dc:	d9d8                	sw	a4,52(a1)
ffffffc0502043de:	04052223          	sw	zero,68(a0)
ffffffc0502043e2:	0305e603          	lwu	a2,48(a1)
ffffffc0502043e6:	171a                	slli	a4,a4,0x26
ffffffc0502043e8:	97ba                	add	a5,a5,a4
ffffffc0502043ea:	1632                	slli	a2,a2,0x2c
ffffffc0502043ec:	83b1                	srli	a5,a5,0xc
ffffffc0502043ee:	577d                	li	a4,-1
ffffffc0502043f0:	15c1                	addi	a1,a1,-16
ffffffc0502043f2:	8fd1                	or	a5,a5,a2
ffffffc0502043f4:	177e                	slli	a4,a4,0x3f
ffffffc0502043f6:	1ab6b823          	sd	a1,432(a3)
ffffffc0502043fa:	8fd9                	or	a5,a5,a4
ffffffc0502043fc:	12000073          	sfence.vma
ffffffc050204400:	18079073          	csrw	satp,a5
ffffffc050204404:	12000073          	sfence.vma
ffffffc050204408:	ac4fe0ef          	jal	ffffffc0502026cc <switch_to>
ffffffc05020440c:	60e2                	ld	ra,24(sp)
ffffffc05020440e:	8522                	mv	a0,s0
ffffffc050204410:	6442                	ld	s0,16(sp)
ffffffc050204412:	6105                	addi	sp,sp,32
ffffffc050204414:	8082                	ret
ffffffc050204416:	60e2                	ld	ra,24(sp)
ffffffc050204418:	6442                	ld	s0,16(sp)
ffffffc05020441a:	4501                	li	a0,0
ffffffc05020441c:	6105                	addi	sp,sp,32
ffffffc05020441e:	8082                	ret
ffffffc050204420:	4501                	li	a0,0
ffffffc050204422:	8082                	ret
ffffffc050204424:	02063883          	ld	a7,32(a2)
ffffffc050204428:	02078793          	addi	a5,a5,32
ffffffc05020442c:	97ae                	add	a5,a5,a1
ffffffc05020442e:	01050593          	addi	a1,a0,16
ffffffc050204432:	f20c                	sd	a1,32(a2)
ffffffc050204434:	ed1c                	sd	a5,24(a0)
ffffffc050204436:	01153823          	sd	a7,16(a0)
ffffffc05020443a:	00002617          	auipc	a2,0x2
ffffffc05020443e:	62e60613          	addi	a2,a2,1582 # ffffffc050206a68 <sleep_queue>
ffffffc050204442:	00b8b423          	sd	a1,8(a7)
ffffffc050204446:	6a0c                	ld	a1,16(a2)
ffffffc050204448:	00002797          	auipc	a5,0x2
ffffffc05020444c:	63078793          	addi	a5,a5,1584 # ffffffc050206a78 <ready_queue>
ffffffc050204450:	f6f599e3          	bne	a1,a5,ffffffc0502043c2 <do_waitpid+0x8e>
ffffffc050204454:	b7c9                	j	ffffffc050204416 <do_waitpid+0xe2>
ffffffc050204456:	02002a23          	sw	zero,52(zero) # 34 <boot_stack_top_base-0x50201fcc>
ffffffc05020445a:	9002                	ebreak

ffffffc05020445c <do_exit>:
ffffffc05020445c:	1101                	addi	sp,sp,-32
ffffffc05020445e:	e822                	sd	s0,16(sp)
ffffffc050204460:	e426                	sd	s1,8(sp)
ffffffc050204462:	e04a                	sd	s2,0(sp)
ffffffc050204464:	ec06                	sd	ra,24(sp)
ffffffc050204466:	b8efe0ef          	jal	ffffffc0502027f4 <get_current_cpu_id>
ffffffc05020446a:	0005049b          	sext.w	s1,a0
ffffffc05020446e:	048e                	slli	s1,s1,0x3
ffffffc050204470:	00006917          	auipc	s2,0x6
ffffffc050204474:	8c890913          	addi	s2,s2,-1848 # ffffffc050209d38 <pid0_pcb>
ffffffc050204478:	00990433          	add	s0,s2,s1
ffffffc05020447c:	1b043703          	ld	a4,432(s0)
ffffffc050204480:	468d                	li	a3,3
ffffffc050204482:	0c872783          	lw	a5,200(a4)
ffffffc050204486:	c374                	sw	a3,68(a4)
ffffffc050204488:	00f05c63          	blez	a5,ffffffc0502044a0 <do_exit+0x44>
ffffffc05020448c:	08872503          	lw	a0,136(a4)
ffffffc050204490:	f2bfe0ef          	jal	ffffffc0502033ba <do_mutex_lock_release>
ffffffc050204494:	1b043703          	ld	a4,432(s0)
ffffffc050204498:	0c872783          	lw	a5,200(a4)
ffffffc05020449c:	fef048e3          	bgtz	a5,ffffffc05020448c <do_exit+0x30>
ffffffc0502044a0:	7314                	ld	a3,32(a4)
ffffffc0502044a2:	02070513          	addi	a0,a4,32
ffffffc0502044a6:	4309                	li	t1,2
ffffffc0502044a8:	00002817          	auipc	a6,0x2
ffffffc0502044ac:	5c080813          	addi	a6,a6,1472 # ffffffc050206a68 <sleep_queue>
ffffffc0502044b0:	00002897          	auipc	a7,0x2
ffffffc0502044b4:	5c888893          	addi	a7,a7,1480 # ffffffc050206a78 <ready_queue>
ffffffc0502044b8:	02a68563          	beq	a3,a0,ffffffc0502044e2 <do_exit+0x86>
ffffffc0502044bc:	771c                	ld	a5,40(a4)
ffffffc0502044be:	fef50de3          	beq	a0,a5,ffffffc0502044b8 <do_exit+0x5c>
ffffffc0502044c2:	6390                	ld	a2,0(a5)
ffffffc0502044c4:	678c                	ld	a1,8(a5)
ffffffc0502044c6:	e190                	sd	a2,0(a1)
ffffffc0502044c8:	01083683          	ld	a3,16(a6)
ffffffc0502044cc:	e60c                	sd	a1,8(a2)
ffffffc0502044ce:	00f83823          	sd	a5,16(a6)
ffffffc0502044d2:	0117b423          	sd	a7,8(a5)
ffffffc0502044d6:	e394                	sd	a3,0(a5)
ffffffc0502044d8:	0267aa23          	sw	t1,52(a5)
ffffffc0502044dc:	e69c                	sd	a5,8(a3)
ffffffc0502044de:	7314                	ld	a3,32(a4)
ffffffc0502044e0:	bfe1                	j	ffffffc0502044b8 <do_exit+0x5c>
ffffffc0502044e2:	6b68                	ld	a0,208(a4)
ffffffc0502044e4:	0c072423          	sw	zero,200(a4)
ffffffc0502044e8:	9926                	add	s2,s2,s1
ffffffc0502044ea:	9abff0ef          	jal	ffffffc050203e94 <recycle_page_table>
ffffffc0502044ee:	1b093783          	ld	a5,432(s2)
ffffffc0502044f2:	7b88                	ld	a0,48(a5)
ffffffc0502044f4:	80050513          	addi	a0,a0,-2048
ffffffc0502044f8:	80050513          	addi	a0,a0,-2048
ffffffc0502044fc:	827ff0ef          	jal	ffffffc050203d22 <freePage>
ffffffc050204500:	1b093783          	ld	a5,432(s2)
ffffffc050204504:	6be8                	ld	a0,208(a5)
ffffffc050204506:	81dff0ef          	jal	ffffffc050203d22 <freePage>
ffffffc05020450a:	6442                	ld	s0,16(sp)
ffffffc05020450c:	60e2                	ld	ra,24(sp)
ffffffc05020450e:	64a2                	ld	s1,8(sp)
ffffffc050204510:	6902                	ld	s2,0(sp)
ffffffc050204512:	6105                	addi	sp,sp,32
ffffffc050204514:	bc49                	j	ffffffc050203fa6 <do_scheduler>

ffffffc050204516 <do_kill>:
ffffffc050204516:	1141                	addi	sp,sp,-16
ffffffc050204518:	e022                	sd	s0,0(sp)
ffffffc05020451a:	e406                	sd	ra,8(sp)
ffffffc05020451c:	842a                	mv	s0,a0
ffffffc05020451e:	ad6fe0ef          	jal	ffffffc0502027f4 <get_current_cpu_id>
ffffffc050204522:	2501                	sext.w	a0,a0
ffffffc050204524:	050e                	slli	a0,a0,0x3
ffffffc050204526:	00006797          	auipc	a5,0x6
ffffffc05020452a:	81278793          	addi	a5,a5,-2030 # ffffffc050209d38 <pid0_pcb>
ffffffc05020452e:	97aa                	add	a5,a5,a0
ffffffc050204530:	1b07b703          	ld	a4,432(a5)
ffffffc050204534:	4681                	li	a3,0
ffffffc050204536:	00006797          	auipc	a5,0x6
ffffffc05020453a:	a1278793          	addi	a5,a5,-1518 # ffffffc050209f48 <pcb+0x40>
ffffffc05020453e:	4338                	lw	a4,64(a4)
ffffffc050204540:	02000613          	li	a2,32
ffffffc050204544:	00871663          	bne	a4,s0,ffffffc050204550 <do_kill+0x3a>
ffffffc050204548:	aa99                	j	ffffffc05020469e <do_kill+0x188>
ffffffc05020454a:	2685                	addiw	a3,a3,1
ffffffc05020454c:	10c68863          	beq	a3,a2,ffffffc05020465c <do_kill+0x146>
ffffffc050204550:	4398                	lw	a4,0(a5)
ffffffc050204552:	0d878793          	addi	a5,a5,216
ffffffc050204556:	fe871ae3          	bne	a4,s0,ffffffc05020454a <do_kill+0x34>
ffffffc05020455a:	0d800793          	li	a5,216
ffffffc05020455e:	02f687b3          	mul	a5,a3,a5
ffffffc050204562:	00006e17          	auipc	t3,0x6
ffffffc050204566:	9a6e0e13          	addi	t3,t3,-1626 # ffffffc050209f08 <pcb>
ffffffc05020456a:	460d                	li	a2,3
ffffffc05020456c:	4501                	li	a0,0
ffffffc05020456e:	97f2                	add	a5,a5,t3
ffffffc050204570:	43f8                	lw	a4,68(a5)
ffffffc050204572:	0ec70663          	beq	a4,a2,ffffffc05020465e <do_kill+0x148>
ffffffc050204576:	4605                	li	a2,1
ffffffc050204578:	00c70763          	beq	a4,a2,ffffffc050204586 <do_kill+0x70>
ffffffc05020457c:	6b90                	ld	a2,16(a5)
ffffffc05020457e:	6f98                	ld	a4,24(a5)
ffffffc050204580:	e618                	sd	a4,8(a2)
ffffffc050204582:	6b9c                	ld	a5,16(a5)
ffffffc050204584:	e31c                	sd	a5,0(a4)
ffffffc050204586:	0d800793          	li	a5,216
ffffffc05020458a:	02f687b3          	mul	a5,a3,a5
ffffffc05020458e:	458d                	li	a1,3
ffffffc050204590:	00fe0733          	add	a4,t3,a5
ffffffc050204594:	0c872603          	lw	a2,200(a4)
ffffffc050204598:	c36c                	sw	a1,68(a4)
ffffffc05020459a:	06c05a63          	blez	a2,ffffffc05020460e <do_kill+0xf8>
ffffffc05020459e:	00006717          	auipc	a4,0x6
ffffffc0502045a2:	a3270713          	addi	a4,a4,-1486 # ffffffc050209fd0 <pcb+0xc8>
ffffffc0502045a6:	973e                	add	a4,a4,a5
ffffffc0502045a8:	00072e83          	lw	t4,0(a4)
ffffffc0502045ac:	00006617          	auipc	a2,0x6
ffffffc0502045b0:	9e460613          	addi	a2,a2,-1564 # ffffffc050209f90 <pcb+0x88>
ffffffc0502045b4:	963e                	add	a2,a2,a5
ffffffc0502045b6:	4581                	li	a1,0
ffffffc0502045b8:	00005897          	auipc	a7,0x5
ffffffc0502045bc:	90088893          	addi	a7,a7,-1792 # ffffffc050208eb8 <mlocks>
ffffffc0502045c0:	4f89                	li	t6,2
ffffffc0502045c2:	00002317          	auipc	t1,0x2
ffffffc0502045c6:	4a630313          	addi	t1,t1,1190 # ffffffc050206a68 <sleep_queue>
ffffffc0502045ca:	00002f17          	auipc	t5,0x2
ffffffc0502045ce:	4aef0f13          	addi	t5,t5,1198 # ffffffc050206a78 <ready_queue>
ffffffc0502045d2:	421c                	lw	a5,0(a2)
ffffffc0502045d4:	0796                	slli	a5,a5,0x5
ffffffc0502045d6:	00f88533          	add	a0,a7,a5
ffffffc0502045da:	6918                	ld	a4,16(a0)
ffffffc0502045dc:	07a1                	addi	a5,a5,8
ffffffc0502045de:	97c6                	add	a5,a5,a7
ffffffc0502045e0:	0af70c63          	beq	a4,a5,ffffffc050204698 <do_kill+0x182>
ffffffc0502045e4:	6308                	ld	a0,0(a4)
ffffffc0502045e6:	00873803          	ld	a6,8(a4)
ffffffc0502045ea:	00a83023          	sd	a0,0(a6)
ffffffc0502045ee:	01033783          	ld	a5,16(t1)
ffffffc0502045f2:	01053423          	sd	a6,8(a0)
ffffffc0502045f6:	00e33823          	sd	a4,16(t1)
ffffffc0502045fa:	03f72a23          	sw	t6,52(a4)
ffffffc0502045fe:	01e73423          	sd	t5,8(a4)
ffffffc050204602:	e31c                	sd	a5,0(a4)
ffffffc050204604:	e798                	sd	a4,8(a5)
ffffffc050204606:	2585                	addiw	a1,a1,1
ffffffc050204608:	0611                	addi	a2,a2,4
ffffffc05020460a:	fdd5c4e3          	blt	a1,t4,ffffffc0502045d2 <do_kill+0xbc>
ffffffc05020460e:	0d800713          	li	a4,216
ffffffc050204612:	02e68733          	mul	a4,a3,a4
ffffffc050204616:	4e89                	li	t4,2
ffffffc050204618:	00002897          	auipc	a7,0x2
ffffffc05020461c:	45088893          	addi	a7,a7,1104 # ffffffc050206a68 <sleep_queue>
ffffffc050204620:	00002317          	auipc	t1,0x2
ffffffc050204624:	45830313          	addi	t1,t1,1112 # ffffffc050206a78 <ready_queue>
ffffffc050204628:	02070813          	addi	a6,a4,32
ffffffc05020462c:	9772                	add	a4,a4,t3
ffffffc05020462e:	7310                	ld	a2,32(a4)
ffffffc050204630:	9872                	add	a6,a6,t3
ffffffc050204632:	03060a63          	beq	a2,a6,ffffffc050204666 <do_kill+0x150>
ffffffc050204636:	771c                	ld	a5,40(a4)
ffffffc050204638:	fef80de3          	beq	a6,a5,ffffffc050204632 <do_kill+0x11c>
ffffffc05020463c:	638c                	ld	a1,0(a5)
ffffffc05020463e:	6788                	ld	a0,8(a5)
ffffffc050204640:	e10c                	sd	a1,0(a0)
ffffffc050204642:	0108b603          	ld	a2,16(a7)
ffffffc050204646:	e588                	sd	a0,8(a1)
ffffffc050204648:	00f8b823          	sd	a5,16(a7)
ffffffc05020464c:	0067b423          	sd	t1,8(a5)
ffffffc050204650:	e390                	sd	a2,0(a5)
ffffffc050204652:	03d7aa23          	sw	t4,52(a5)
ffffffc050204656:	e61c                	sd	a5,8(a2)
ffffffc050204658:	7310                	ld	a2,32(a4)
ffffffc05020465a:	bfe1                	j	ffffffc050204632 <do_kill+0x11c>
ffffffc05020465c:	4501                	li	a0,0
ffffffc05020465e:	60a2                	ld	ra,8(sp)
ffffffc050204660:	6402                	ld	s0,0(sp)
ffffffc050204662:	0141                	addi	sp,sp,16
ffffffc050204664:	8082                	ret
ffffffc050204666:	0d800413          	li	s0,216
ffffffc05020466a:	02868433          	mul	s0,a3,s0
ffffffc05020466e:	9472                	add	s0,s0,t3
ffffffc050204670:	6868                	ld	a0,208(s0)
ffffffc050204672:	0c042423          	sw	zero,200(s0)
ffffffc050204676:	81fff0ef          	jal	ffffffc050203e94 <recycle_page_table>
ffffffc05020467a:	7808                	ld	a0,48(s0)
ffffffc05020467c:	80050513          	addi	a0,a0,-2048
ffffffc050204680:	80050513          	addi	a0,a0,-2048
ffffffc050204684:	e9eff0ef          	jal	ffffffc050203d22 <freePage>
ffffffc050204688:	6868                	ld	a0,208(s0)
ffffffc05020468a:	e98ff0ef          	jal	ffffffc050203d22 <freePage>
ffffffc05020468e:	4505                	li	a0,1
ffffffc050204690:	60a2                	ld	ra,8(sp)
ffffffc050204692:	6402                	ld	s0,0(sp)
ffffffc050204694:	0141                	addi	sp,sp,16
ffffffc050204696:	8082                	ret
ffffffc050204698:	00052023          	sw	zero,0(a0)
ffffffc05020469c:	b7ad                	j	ffffffc050204606 <do_kill+0xf0>
ffffffc05020469e:	dbfff0ef          	jal	ffffffc05020445c <do_exit>
ffffffc0502046a2:	4505                	li	a0,1
ffffffc0502046a4:	b7f5                	j	ffffffc050204690 <do_kill+0x17a>

ffffffc0502046a6 <do_getpid>:
ffffffc0502046a6:	1141                	addi	sp,sp,-16
ffffffc0502046a8:	e406                	sd	ra,8(sp)
ffffffc0502046aa:	94afe0ef          	jal	ffffffc0502027f4 <get_current_cpu_id>
ffffffc0502046ae:	2501                	sext.w	a0,a0
ffffffc0502046b0:	050e                	slli	a0,a0,0x3
ffffffc0502046b2:	00005797          	auipc	a5,0x5
ffffffc0502046b6:	68678793          	addi	a5,a5,1670 # ffffffc050209d38 <pid0_pcb>
ffffffc0502046ba:	97aa                	add	a5,a5,a0
ffffffc0502046bc:	1b07b783          	ld	a5,432(a5)
ffffffc0502046c0:	60a2                	ld	ra,8(sp)
ffffffc0502046c2:	43a8                	lw	a0,64(a5)
ffffffc0502046c4:	0141                	addi	sp,sp,16
ffffffc0502046c6:	8082                	ret

ffffffc0502046c8 <do_exec>:
ffffffc0502046c8:	711d                	addi	sp,sp,-96
ffffffc0502046ca:	e8a2                	sd	s0,80(sp)
ffffffc0502046cc:	fc4e                	sd	s3,56(sp)
ffffffc0502046ce:	ec86                	sd	ra,88(sp)
ffffffc0502046d0:	e4a6                	sd	s1,72(sp)
ffffffc0502046d2:	e0ca                	sd	s2,64(sp)
ffffffc0502046d4:	f852                	sd	s4,48(sp)
ffffffc0502046d6:	f456                	sd	s5,40(sp)
ffffffc0502046d8:	f05a                	sd	s6,32(sp)
ffffffc0502046da:	ec5e                	sd	s7,24(sp)
ffffffc0502046dc:	e862                	sd	s8,16(sp)
ffffffc0502046de:	e466                	sd	s9,8(sp)
ffffffc0502046e0:	e06a                	sd	s10,0(sp)
ffffffc0502046e2:	1080                	addi	s0,sp,96
ffffffc0502046e4:	00006797          	auipc	a5,0x6
ffffffc0502046e8:	86878793          	addi	a5,a5,-1944 # ffffffc050209f4c <pcb+0x44>
ffffffc0502046ec:	4981                	li	s3,0
ffffffc0502046ee:	468d                	li	a3,3
ffffffc0502046f0:	02000813          	li	a6,32
ffffffc0502046f4:	a021                	j	ffffffc0502046fc <do_exec+0x34>
ffffffc0502046f6:	2985                	addiw	s3,s3,1
ffffffc0502046f8:	21098663          	beq	s3,a6,ffffffc050204904 <do_exec+0x23c>
ffffffc0502046fc:	4398                	lw	a4,0(a5)
ffffffc0502046fe:	0d878793          	addi	a5,a5,216
ffffffc050204702:	fed71ae3          	bne	a4,a3,ffffffc0502046f6 <do_exec+0x2e>
ffffffc050204706:	0d800a93          	li	s5,216
ffffffc05020470a:	03598ab3          	mul	s5,s3,s5
ffffffc05020470e:	00002797          	auipc	a5,0x2
ffffffc050204712:	39a7a783          	lw	a5,922(a5) # ffffffc050206aa8 <pcb_num>
ffffffc050204716:	00005b97          	auipc	s7,0x5
ffffffc05020471a:	7f2b8b93          	addi	s7,s7,2034 # ffffffc050209f08 <pcb>
ffffffc05020471e:	8c2e                	mv	s8,a1
ffffffc050204720:	8b2a                	mv	s6,a0
ffffffc050204722:	85aa                	mv	a1,a0
ffffffc050204724:	2785                	addiw	a5,a5,1
ffffffc050204726:	4709                	li	a4,2
ffffffc050204728:	84b2                	mv	s1,a2
ffffffc05020472a:	00002697          	auipc	a3,0x2
ffffffc05020472e:	36f6af23          	sw	a5,894(a3) # ffffffc050206aa8 <pcb_num>
ffffffc050204732:	060a8513          	addi	a0,s5,96
ffffffc050204736:	015b8933          	add	s2,s7,s5
ffffffc05020473a:	955e                	add	a0,a0,s7
ffffffc05020473c:	04e92223          	sw	a4,68(s2)
ffffffc050204740:	04f92023          	sw	a5,64(s2)
ffffffc050204744:	201000ef          	jal	ffffffc050205144 <strcpy>
ffffffc050204748:	4705                	li	a4,1
ffffffc05020474a:	02071793          	slli	a5,a4,0x20
ffffffc05020474e:	97ba                	add	a5,a5,a4
ffffffc050204750:	08f93023          	sd	a5,128(s2)
ffffffc050204754:	020a8793          	addi	a5,s5,32
ffffffc050204758:	97de                	add	a5,a5,s7
ffffffc05020475a:	8a3a                	mv	s4,a4
ffffffc05020475c:	02f93423          	sd	a5,40(s2)
ffffffc050204760:	02f93023          	sd	a5,32(s2)
ffffffc050204764:	06e92c23          	sw	a4,120(s2)
ffffffc050204768:	0c092423          	sw	zero,200(s2)
ffffffc05020476c:	04093823          	sd	zero,80(s2)
ffffffc050204770:	884fe0ef          	jal	ffffffc0502027f4 <get_current_cpu_id>
ffffffc050204774:	2501                	sext.w	a0,a0
ffffffc050204776:	00351713          	slli	a4,a0,0x3
ffffffc05020477a:	00005797          	auipc	a5,0x5
ffffffc05020477e:	5be78793          	addi	a5,a5,1470 # ffffffc050209d38 <pid0_pcb>
ffffffc050204782:	97ba                	add	a5,a5,a4
ffffffc050204784:	1b07b783          	ld	a5,432(a5)
ffffffc050204788:	06a92a23          	sw	a0,116(s2)
ffffffc05020478c:	43b8                	lw	a4,64(a5)
ffffffc05020478e:	00ea5563          	bge	s4,a4,ffffffc050204798 <do_exec+0xd0>
ffffffc050204792:	5bbc                	lw	a5,112(a5)
ffffffc050204794:	06f92823          	sw	a5,112(s2)
ffffffc050204798:	0d800a13          	li	s4,216
ffffffc05020479c:	03498a33          	mul	s4,s3,s4
ffffffc0502047a0:	4505                	li	a0,1
ffffffc0502047a2:	d1aff0ef          	jal	ffffffc050203cbc <allocPage>
ffffffc0502047a6:	fc0515b7          	lui	a1,0xfc051
ffffffc0502047aa:	05b2                	slli	a1,a1,0xc
ffffffc0502047ac:	9a5e                	add	s4,s4,s7
ffffffc0502047ae:	0caa3823          	sd	a0,208(s4)
ffffffc0502047b2:	e00ff0ef          	jal	ffffffc050203db2 <share_pgtable>
ffffffc0502047b6:	0d0a3683          	ld	a3,208(s4)
ffffffc0502047ba:	00002617          	auipc	a2,0x2
ffffffc0502047be:	2f262603          	lw	a2,754(a2) # ffffffc050206aac <tasknum>
ffffffc0502047c2:	855a                	mv	a0,s6
ffffffc0502047c4:	00002597          	auipc	a1,0x2
ffffffc0502047c8:	31458593          	addi	a1,a1,788 # ffffffc050206ad8 <tasks>
ffffffc0502047cc:	921fe0ef          	jal	ffffffc0502030ec <load_task_img>
ffffffc0502047d0:	04aa3c23          	sd	a0,88(s4)
ffffffc0502047d4:	14050063          	beqz	a0,ffffffc050204914 <do_exec+0x24c>
ffffffc0502047d8:	4505                	li	a0,1
ffffffc0502047da:	ce2ff0ef          	jal	ffffffc050203cbc <allocPage>
ffffffc0502047de:	6905                	lui	s2,0x1
ffffffc0502047e0:	01250733          	add	a4,a0,s2
ffffffc0502047e4:	0d0a3583          	ld	a1,208(s4)
ffffffc0502047e8:	000f07b7          	lui	a5,0xf0
ffffffc0502047ec:	00f00537          	lui	a0,0xf00
ffffffc0502047f0:	0785                	addi	a5,a5,1 # f0001 <boot_stack_top_base-0x50111fff>
ffffffc0502047f2:	053d                	addi	a0,a0,15 # f0000f <boot_stack_top_base-0x4f301ff1>
ffffffc0502047f4:	07c2                	slli	a5,a5,0x10
ffffffc0502047f6:	0532                	slli	a0,a0,0xc
ffffffc0502047f8:	02fa3c23          	sd	a5,56(s4)
ffffffc0502047fc:	02ea3823          	sd	a4,48(s4)
ffffffc050204800:	003c1c93          	slli	s9,s8,0x3
ffffffc050204804:	db4ff0ef          	jal	ffffffc050203db8 <alloc_page_helper>
ffffffc050204808:	00fc8793          	addi	a5,s9,15 # ffffffffb000000f <__BSS_END__+0x3f5fdf4207>
ffffffc05020480c:	00f00a37          	lui	s4,0xf00
ffffffc050204810:	9bc1                	andi	a5,a5,-16
ffffffc050204812:	0a3d                	addi	s4,s4,15 # f0000f <boot_stack_top_base-0x4f301ff1>
ffffffc050204814:	40f10133          	sub	sp,sp,a5
ffffffc050204818:	0a32                	slli	s4,s4,0xc
ffffffc05020481a:	992a                	add	s2,s2,a0
ffffffc05020481c:	40aa0a33          	sub	s4,s4,a0
ffffffc050204820:	8b0a                	mv	s6,sp
ffffffc050204822:	0f805363          	blez	s8,ffffffc050204908 <do_exec+0x240>
ffffffc050204826:	9ca6                	add	s9,s9,s1
ffffffc050204828:	8d0a                	mv	s10,sp
ffffffc05020482a:	6088                	ld	a0,0(s1)
ffffffc05020482c:	04a1                	addi	s1,s1,8
ffffffc05020482e:	0d21                	addi	s10,s10,8
ffffffc050204830:	091000ef          	jal	ffffffc0502050c0 <strlen>
ffffffc050204834:	2505                	addiw	a0,a0,1
ffffffc050204836:	ff84b583          	ld	a1,-8(s1)
ffffffc05020483a:	40a90933          	sub	s2,s2,a0
ffffffc05020483e:	854a                	mv	a0,s2
ffffffc050204840:	105000ef          	jal	ffffffc050205144 <strcpy>
ffffffc050204844:	014907b3          	add	a5,s2,s4
ffffffc050204848:	fefd3c23          	sd	a5,-8(s10)
ffffffc05020484c:	fd949fe3          	bne	s1,s9,ffffffc05020482a <do_exec+0x162>
ffffffc050204850:	fffc069b          	addiw	a3,s8,-1 # fffffff <boot_stack_top_base-0x40202001>
ffffffc050204854:	02069793          	slli	a5,a3,0x20
ffffffc050204858:	ff897913          	andi	s2,s2,-8
ffffffc05020485c:	01d7d693          	srli	a3,a5,0x1d
ffffffc050204860:	40d90633          	sub	a2,s2,a3
ffffffc050204864:	ff890593          	addi	a1,s2,-8 # ff8 <boot_stack_top_base-0x50201008>
ffffffc050204868:	fe093c23          	sd	zero,-8(s2)
ffffffc05020486c:	1641                	addi	a2,a2,-16
ffffffc05020486e:	412686b3          	sub	a3,a3,s2
ffffffc050204872:	87ae                	mv	a5,a1
ffffffc050204874:	17e1                	addi	a5,a5,-8
ffffffc050204876:	00d78733          	add	a4,a5,a3
ffffffc05020487a:	975a                	add	a4,a4,s6
ffffffc05020487c:	6b18                	ld	a4,16(a4)
ffffffc05020487e:	e398                	sd	a4,0(a5)
ffffffc050204880:	fec79ae3          	bne	a5,a2,ffffffc050204874 <do_exec+0x1ac>
ffffffc050204884:	020c1713          	slli	a4,s8,0x20
ffffffc050204888:	01d75793          	srli	a5,a4,0x1d
ffffffc05020488c:	40f58933          	sub	s2,a1,a5
ffffffc050204890:	0d800493          	li	s1,216
ffffffc050204894:	029984b3          	mul	s1,s3,s1
ffffffc050204898:	9952                	add	s2,s2,s4
ffffffc05020489a:	015b86b3          	add	a3,s7,s5
ffffffc05020489e:	ff097593          	andi	a1,s2,-16
ffffffc0502048a2:	0ac1                	addi	s5,s5,16
ffffffc0502048a4:	9ade                	add	s5,s5,s7
ffffffc0502048a6:	94de                	add	s1,s1,s7
ffffffc0502048a8:	7888                	ld	a0,48(s1)
ffffffc0502048aa:	6cb0                	ld	a2,88(s1)
ffffffc0502048ac:	e48c                	sd	a1,8(s1)
ffffffc0502048ae:	990fe0ef          	jal	ffffffc050202a3e <init_pcb_stack>
ffffffc0502048b2:	789c                	ld	a5,48(s1)
ffffffc0502048b4:	6494                	ld	a3,8(s1)
ffffffc0502048b6:	00002717          	auipc	a4,0x2
ffffffc0502048ba:	1c273703          	ld	a4,450(a4) # ffffffc050206a78 <ready_queue>
ffffffc0502048be:	f387b823          	sd	s8,-208(a5)
ffffffc0502048c2:	eed7b823          	sd	a3,-272(a5)
ffffffc0502048c6:	f327bc23          	sd	s2,-200(a5)
ffffffc0502048ca:	40a8                	lw	a0,64(s1)
ffffffc0502048cc:	00002797          	auipc	a5,0x2
ffffffc0502048d0:	1ac78793          	addi	a5,a5,428 # ffffffc050206a78 <ready_queue>
ffffffc0502048d4:	ec9c                	sd	a5,24(s1)
ffffffc0502048d6:	e898                	sd	a4,16(s1)
ffffffc0502048d8:	00002797          	auipc	a5,0x2
ffffffc0502048dc:	1b57b023          	sd	s5,416(a5) # ffffffc050206a78 <ready_queue>
ffffffc0502048e0:	01573423          	sd	s5,8(a4)
ffffffc0502048e4:	fa040113          	addi	sp,s0,-96
ffffffc0502048e8:	60e6                	ld	ra,88(sp)
ffffffc0502048ea:	6446                	ld	s0,80(sp)
ffffffc0502048ec:	64a6                	ld	s1,72(sp)
ffffffc0502048ee:	6906                	ld	s2,64(sp)
ffffffc0502048f0:	79e2                	ld	s3,56(sp)
ffffffc0502048f2:	7a42                	ld	s4,48(sp)
ffffffc0502048f4:	7aa2                	ld	s5,40(sp)
ffffffc0502048f6:	7b02                	ld	s6,32(sp)
ffffffc0502048f8:	6be2                	ld	s7,24(sp)
ffffffc0502048fa:	6c42                	ld	s8,16(sp)
ffffffc0502048fc:	6ca2                	ld	s9,8(sp)
ffffffc0502048fe:	6d02                	ld	s10,0(sp)
ffffffc050204900:	6125                	addi	sp,sp,96
ffffffc050204902:	8082                	ret
ffffffc050204904:	5579                	li	a0,-2
ffffffc050204906:	bff9                	j	ffffffc0502048e4 <do_exec+0x21c>
ffffffc050204908:	ff897913          	andi	s2,s2,-8
ffffffc05020490c:	fe093c23          	sd	zero,-8(s2)
ffffffc050204910:	1961                	addi	s2,s2,-8
ffffffc050204912:	bfbd                	j	ffffffc050204890 <do_exec+0x1c8>
ffffffc050204914:	0d0a3503          	ld	a0,208(s4)
ffffffc050204918:	c0aff0ef          	jal	ffffffc050203d22 <freePage>
ffffffc05020491c:	478d                	li	a5,3
ffffffc05020491e:	04fa2223          	sw	a5,68(s4)
ffffffc050204922:	5575                	li	a0,-3
ffffffc050204924:	b7c1                	j	ffffffc0502048e4 <do_exec+0x21c>

ffffffc050204926 <do_taskset>:
ffffffc050204926:	7179                	addi	sp,sp,-48
ffffffc050204928:	f406                	sd	ra,40(sp)
ffffffc05020492a:	882e                	mv	a6,a1
ffffffc05020492c:	e225                	bnez	a2,ffffffc05020498c <do_taskset+0x66>
ffffffc05020492e:	0005069b          	sext.w	a3,a0
ffffffc050204932:	00005797          	auipc	a5,0x5
ffffffc050204936:	61678793          	addi	a5,a5,1558 # ffffffc050209f48 <pcb+0x40>
ffffffc05020493a:	458d                	li	a1,3
ffffffc05020493c:	02000513          	li	a0,32
ffffffc050204940:	a031                	j	ffffffc05020494c <do_taskset+0x26>
ffffffc050204942:	2605                	addiw	a2,a2,1
ffffffc050204944:	0d878793          	addi	a5,a5,216
ffffffc050204948:	02a60763          	beq	a2,a0,ffffffc050204976 <do_taskset+0x50>
ffffffc05020494c:	43d8                	lw	a4,4(a5)
ffffffc05020494e:	feb70ae3          	beq	a4,a1,ffffffc050204942 <do_taskset+0x1c>
ffffffc050204952:	4398                	lw	a4,0(a5)
ffffffc050204954:	fed717e3          	bne	a4,a3,ffffffc050204942 <do_taskset+0x1c>
ffffffc050204958:	0d800793          	li	a5,216
ffffffc05020495c:	02f60633          	mul	a2,a2,a5
ffffffc050204960:	00005797          	auipc	a5,0x5
ffffffc050204964:	5a878793          	addi	a5,a5,1448 # ffffffc050209f08 <pcb>
ffffffc050204968:	97b2                	add	a5,a5,a2
ffffffc05020496a:	0707a823          	sw	a6,112(a5)
ffffffc05020496e:	70a2                	ld	ra,40(sp)
ffffffc050204970:	8536                	mv	a0,a3
ffffffc050204972:	6145                	addi	sp,sp,48
ffffffc050204974:	8082                	ret
ffffffc050204976:	00001517          	auipc	a0,0x1
ffffffc05020497a:	c4250513          	addi	a0,a0,-958 # ffffffc0502055b8 <strcat+0x40e>
ffffffc05020497e:	67c000ef          	jal	ffffffc050204ffa <printk>
ffffffc050204982:	70a2                	ld	ra,40(sp)
ffffffc050204984:	56fd                	li	a3,-1
ffffffc050204986:	8536                	mv	a0,a3
ffffffc050204988:	6145                	addi	sp,sp,48
ffffffc05020498a:	8082                	ret
ffffffc05020498c:	e42e                	sd	a1,8(sp)
ffffffc05020498e:	0830                	addi	a2,sp,24
ffffffc050204990:	4585                	li	a1,1
ffffffc050204992:	ec2a                	sd	a0,24(sp)
ffffffc050204994:	d35ff0ef          	jal	ffffffc0502046c8 <do_exec>
ffffffc050204998:	86aa                	mv	a3,a0
ffffffc05020499a:	02054863          	bltz	a0,ffffffc0502049ca <do_taskset+0xa4>
ffffffc05020499e:	6822                	ld	a6,8(sp)
ffffffc0502049a0:	00005797          	auipc	a5,0x5
ffffffc0502049a4:	5a878793          	addi	a5,a5,1448 # ffffffc050209f48 <pcb+0x40>
ffffffc0502049a8:	00007617          	auipc	a2,0x7
ffffffc0502049ac:	0a060613          	addi	a2,a2,160 # ffffffc05020ba48 <syscall+0x40>
ffffffc0502049b0:	4398                	lw	a4,0(a5)
ffffffc0502049b2:	00d71463          	bne	a4,a3,ffffffc0502049ba <do_taskset+0x94>
ffffffc0502049b6:	0307a823          	sw	a6,48(a5)
ffffffc0502049ba:	0d878793          	addi	a5,a5,216
ffffffc0502049be:	fec799e3          	bne	a5,a2,ffffffc0502049b0 <do_taskset+0x8a>
ffffffc0502049c2:	70a2                	ld	ra,40(sp)
ffffffc0502049c4:	8536                	mv	a0,a3
ffffffc0502049c6:	6145                	addi	sp,sp,48
ffffffc0502049c8:	8082                	ret
ffffffc0502049ca:	e42a                	sd	a0,8(sp)
ffffffc0502049cc:	00001517          	auipc	a0,0x1
ffffffc0502049d0:	bec50513          	addi	a0,a0,-1044 # ffffffc0502055b8 <strcat+0x40e>
ffffffc0502049d4:	626000ef          	jal	ffffffc050204ffa <printk>
ffffffc0502049d8:	66a2                	ld	a3,8(sp)
ffffffc0502049da:	bf51                	j	ffffffc05020496e <do_taskset+0x48>

ffffffc0502049dc <set_sched_workload>:
ffffffc0502049dc:	1141                	addi	sp,sp,-16
ffffffc0502049de:	e022                	sd	s0,0(sp)
ffffffc0502049e0:	e406                	sd	ra,8(sp)
ffffffc0502049e2:	842a                	mv	s0,a0
ffffffc0502049e4:	e11fd0ef          	jal	ffffffc0502027f4 <get_current_cpu_id>
ffffffc0502049e8:	2501                	sext.w	a0,a0
ffffffc0502049ea:	050e                	slli	a0,a0,0x3
ffffffc0502049ec:	00005797          	auipc	a5,0x5
ffffffc0502049f0:	34c78793          	addi	a5,a5,844 # ffffffc050209d38 <pid0_pcb>
ffffffc0502049f4:	97aa                	add	a5,a5,a0
ffffffc0502049f6:	1b07b783          	ld	a5,432(a5)
ffffffc0502049fa:	c781                	beqz	a5,ffffffc050204a02 <set_sched_workload+0x26>
ffffffc0502049fc:	43b8                	lw	a4,64(a5)
ffffffc0502049fe:	c311                	beqz	a4,ffffffc050204a02 <set_sched_workload+0x26>
ffffffc050204a00:	dfa0                	sw	s0,120(a5)
ffffffc050204a02:	60a2                	ld	ra,8(sp)
ffffffc050204a04:	6402                	ld	s0,0(sp)
ffffffc050204a06:	0141                	addi	sp,sp,16
ffffffc050204a08:	8082                	ret

ffffffc050204a0a <init_list_head>:
ffffffc050204a0a:	e508                	sd	a0,8(a0)
ffffffc050204a0c:	e108                	sd	a0,0(a0)
ffffffc050204a0e:	8082                	ret

ffffffc050204a10 <do_thread_create>:
ffffffc050204a10:	8082                	ret

ffffffc050204a12 <do_thread_exit>:
ffffffc050204a12:	b4a9                	j	ffffffc05020445c <do_exit>

ffffffc050204a14 <do_thread_join>:
ffffffc050204a14:	b205                	j	ffffffc050204334 <do_waitpid>

ffffffc050204a16 <get_ticks>:
ffffffc050204a16:	c0102573          	rdtime	a0
ffffffc050204a1a:	00002797          	auipc	a5,0x2
ffffffc050204a1e:	0aa7b723          	sd	a0,174(a5) # ffffffc050206ac8 <time_elapsed>
ffffffc050204a22:	8082                	ret

ffffffc050204a24 <get_timer>:
ffffffc050204a24:	c01027f3          	rdtime	a5
ffffffc050204a28:	00002517          	auipc	a0,0x2
ffffffc050204a2c:	09853503          	ld	a0,152(a0) # ffffffc050206ac0 <time_base>
ffffffc050204a30:	00002717          	auipc	a4,0x2
ffffffc050204a34:	08f73c23          	sd	a5,152(a4) # ffffffc050206ac8 <time_elapsed>
ffffffc050204a38:	02a7d533          	divu	a0,a5,a0
ffffffc050204a3c:	8082                	ret

ffffffc050204a3e <get_time_base>:
ffffffc050204a3e:	00002517          	auipc	a0,0x2
ffffffc050204a42:	08253503          	ld	a0,130(a0) # ffffffc050206ac0 <time_base>
ffffffc050204a46:	8082                	ret

ffffffc050204a48 <latency>:
ffffffc050204a48:	c01026f3          	rdtime	a3
ffffffc050204a4c:	00002617          	auipc	a2,0x2
ffffffc050204a50:	07460613          	addi	a2,a2,116 # ffffffc050206ac0 <time_base>
ffffffc050204a54:	621c                	ld	a5,0(a2)
ffffffc050204a56:	02f6d6b3          	divu	a3,a3,a5
ffffffc050204a5a:	c01027f3          	rdtime	a5
ffffffc050204a5e:	6218                	ld	a4,0(a2)
ffffffc050204a60:	00002597          	auipc	a1,0x2
ffffffc050204a64:	06f5b423          	sd	a5,104(a1) # ffffffc050206ac8 <time_elapsed>
ffffffc050204a68:	02e7d7b3          	divu	a5,a5,a4
ffffffc050204a6c:	8f95                	sub	a5,a5,a3
ffffffc050204a6e:	fea7e6e3          	bltu	a5,a0,ffffffc050204a5a <latency+0x12>
ffffffc050204a72:	8082                	ret

ffffffc050204a74 <smp_init>:
ffffffc050204a74:	00002517          	auipc	a0,0x2
ffffffc050204a78:	05c50513          	addi	a0,a0,92 # ffffffc050206ad0 <kernel_lock>
ffffffc050204a7c:	89dfe06f          	j	ffffffc050203318 <spin_lock_init>

ffffffc050204a80 <wakeup_other_hart>:
ffffffc050204a80:	4501                	li	a0,0
ffffffc050204a82:	912fe06f          	j	ffffffc050202b94 <send_ipi>

ffffffc050204a86 <lock_kernel>:
ffffffc050204a86:	00002517          	auipc	a0,0x2
ffffffc050204a8a:	04a50513          	addi	a0,a0,74 # ffffffc050206ad0 <kernel_lock>
ffffffc050204a8e:	8a1fe06f          	j	ffffffc05020332e <spin_lock_acquire>

ffffffc050204a92 <unlock_kernel>:
ffffffc050204a92:	00002517          	auipc	a0,0x2
ffffffc050204a96:	03e50513          	addi	a0,a0,62 # ffffffc050206ad0 <kernel_lock>
ffffffc050204a9a:	8a5fe06f          	j	ffffffc05020333e <spin_lock_release>

ffffffc050204a9e <handle_syscall>:
ffffffc050204a9e:	6558                	ld	a4,136(a0)
ffffffc050204aa0:	00007797          	auipc	a5,0x7
ffffffc050204aa4:	f6878793          	addi	a5,a5,-152 # ffffffc05020ba08 <syscall>
ffffffc050204aa8:	1141                	addi	sp,sp,-16
ffffffc050204aaa:	070e                	slli	a4,a4,0x3
ffffffc050204aac:	97ba                	add	a5,a5,a4
ffffffc050204aae:	e022                	sd	s0,0(sp)
ffffffc050204ab0:	7130                	ld	a2,96(a0)
ffffffc050204ab2:	842a                	mv	s0,a0
ffffffc050204ab4:	639c                	ld	a5,0(a5)
ffffffc050204ab6:	6d2c                	ld	a1,88(a0)
ffffffc050204ab8:	6928                	ld	a0,80(a0)
ffffffc050204aba:	e406                	sd	ra,8(sp)
ffffffc050204abc:	9782                	jalr	a5
ffffffc050204abe:	10843783          	ld	a5,264(s0)
ffffffc050204ac2:	60a2                	ld	ra,8(sp)
ffffffc050204ac4:	e828                	sd	a0,80(s0)
ffffffc050204ac6:	0791                	addi	a5,a5,4
ffffffc050204ac8:	10f43423          	sd	a5,264(s0)
ffffffc050204acc:	6402                	ld	s0,0(sp)
ffffffc050204ace:	0141                	addi	sp,sp,16
ffffffc050204ad0:	8082                	ret

ffffffc050204ad2 <bios_putstr>:
ffffffc050204ad2:	fe0297b7          	lui	a5,0xfe029
ffffffc050204ad6:	07b6                	slli	a5,a5,0xd
ffffffc050204ad8:	f0078793          	addi	a5,a5,-256 # fffffffffe028f00 <__BSS_END__+0x3fade1d0f8>
ffffffc050204adc:	639c                	ld	a5,0(a5)
ffffffc050204ade:	4701                	li	a4,0
ffffffc050204ae0:	4681                	li	a3,0
ffffffc050204ae2:	4601                	li	a2,0
ffffffc050204ae4:	4581                	li	a1,0
ffffffc050204ae6:	8782                	jr	a5

ffffffc050204ae8 <bios_logging>:
ffffffc050204ae8:	fe0297b7          	lui	a5,0xfe029
ffffffc050204aec:	07b6                	slli	a5,a5,0xd
ffffffc050204aee:	f2878793          	addi	a5,a5,-216 # fffffffffe028f28 <__BSS_END__+0x3fade1d120>
ffffffc050204af2:	639c                	ld	a5,0(a5)
ffffffc050204af4:	4701                	li	a4,0
ffffffc050204af6:	4681                	li	a3,0
ffffffc050204af8:	4601                	li	a2,0
ffffffc050204afa:	4581                	li	a1,0
ffffffc050204afc:	8782                	jr	a5

ffffffc050204afe <_output_wrapper>:
ffffffc050204afe:	1141                	addi	sp,sp,-16
ffffffc050204b00:	e406                	sd	ra,8(sp)
ffffffc050204b02:	a86fe0ef          	jal	ffffffc050202d88 <screen_write>
ffffffc050204b06:	60a2                	ld	ra,8(sp)
ffffffc050204b08:	0141                	addi	sp,sp,16
ffffffc050204b0a:	90cfe06f          	j	ffffffc050202c16 <screen_reflush>

ffffffc050204b0e <mini_itoa.part.0>:
ffffffc050204b0e:	12055c63          	bgez	a0,ffffffc050204c46 <mini_itoa.part.0+0x138>
ffffffc050204b12:	03f69313          	slli	t1,a3,0x3f
ffffffc050204b16:	03f35893          	srli	a7,t1,0x3f
ffffffc050204b1a:	12089663          	bnez	a7,ffffffc050204c46 <mini_itoa.part.0+0x138>
ffffffc050204b1e:	40a00533          	neg	a0,a0
ffffffc050204b22:	4f05                	li	t5,1
ffffffc050204b24:	0016f893          	andi	a7,a3,1
ffffffc050204b28:	06100e93          	li	t4,97
ffffffc050204b2c:	00088463          	beqz	a7,ffffffc050204b34 <mini_itoa.part.0+0x26>
ffffffc050204b30:	04100e93          	li	t4,65
ffffffc050204b34:	1582                	slli	a1,a1,0x20
ffffffc050204b36:	3ed9                	addiw	t4,t4,-10
ffffffc050204b38:	00170893          	addi	a7,a4,1
ffffffc050204b3c:	9181                	srli	a1,a1,0x20
ffffffc050204b3e:	4fa5                	li	t6,9
ffffffc050204b40:	4e25                	li	t3,9
ffffffc050204b42:	ce81                	beqz	a3,ffffffc050204b5a <mini_itoa.part.0+0x4c>
ffffffc050204b44:	a85d                	j	ffffffc050204bfa <mini_itoa.part.0+0xec>
ffffffc050204b46:	01d68fbb          	addw	t6,a3,t4
ffffffc050204b4a:	ea65                	bnez	a2,ffffffc050204c3a <mini_itoa.part.0+0x12c>
ffffffc050204b4c:	4341                	li	t1,16
ffffffc050204b4e:	02654533          	div	a0,a0,t1
ffffffc050204b52:	fff88fa3          	sb	t6,-1(a7)
ffffffc050204b56:	cd11                	beqz	a0,ffffffc050204b72 <mini_itoa.part.0+0x64>
ffffffc050204b58:	0885                	addi	a7,a7,1
ffffffc050204b5a:	02b566b3          	rem	a3,a0,a1
ffffffc050204b5e:	832e                	mv	t1,a1
ffffffc050204b60:	fede43e3          	blt	t3,a3,ffffffc050204b46 <mini_itoa.part.0+0x38>
ffffffc050204b64:	0306869b          	addiw	a3,a3,48
ffffffc050204b68:	fed88fa3          	sb	a3,-1(a7)
ffffffc050204b6c:	02654533          	div	a0,a0,t1
ffffffc050204b70:	f565                	bnez	a0,ffffffc050204b58 <mini_itoa.part.0+0x4a>
ffffffc050204b72:	40e886bb          	subw	a3,a7,a4
ffffffc050204b76:	02f6f263          	bgeu	a3,a5,ffffffc050204b9a <mini_itoa.part.0+0x8c>
ffffffc050204b7a:	fff7861b          	addiw	a2,a5,-1
ffffffc050204b7e:	9e15                	subw	a2,a2,a3
ffffffc050204b80:	1602                	slli	a2,a2,0x20
ffffffc050204b82:	9201                	srli	a2,a2,0x20
ffffffc050204b84:	00160693          	addi	a3,a2,1
ffffffc050204b88:	87c6                	mv	a5,a7
ffffffc050204b8a:	96c6                	add	a3,a3,a7
ffffffc050204b8c:	0785                	addi	a5,a5,1
ffffffc050204b8e:	ff078fa3          	sb	a6,-1(a5)
ffffffc050204b92:	fed79de3          	bne	a5,a3,ffffffc050204b8c <mini_itoa.part.0+0x7e>
ffffffc050204b96:	0885                	addi	a7,a7,1
ffffffc050204b98:	98b2                	add	a7,a7,a2
ffffffc050204b9a:	000f0763          	beqz	t5,ffffffc050204ba8 <mini_itoa.part.0+0x9a>
ffffffc050204b9e:	02d00793          	li	a5,45
ffffffc050204ba2:	00f88023          	sb	a5,0(a7)
ffffffc050204ba6:	0885                	addi	a7,a7,1
ffffffc050204ba8:	40e8853b          	subw	a0,a7,a4
ffffffc050204bac:	00088023          	sb	zero,0(a7)
ffffffc050204bb0:	0015589b          	srliw	a7,a0,0x1
ffffffc050204bb4:	08088863          	beqz	a7,ffffffc050204c44 <mini_itoa.part.0+0x136>
ffffffc050204bb8:	fff7081b          	addiw	a6,a4,-1
ffffffc050204bbc:	98ba                	add	a7,a7,a4
ffffffc050204bbe:	00a8083b          	addw	a6,a6,a0
ffffffc050204bc2:	86ba                	mv	a3,a4
ffffffc050204bc4:	40d807bb          	subw	a5,a6,a3
ffffffc050204bc8:	1782                	slli	a5,a5,0x20
ffffffc050204bca:	9381                	srli	a5,a5,0x20
ffffffc050204bcc:	97ba                	add	a5,a5,a4
ffffffc050204bce:	0007c583          	lbu	a1,0(a5)
ffffffc050204bd2:	0006c603          	lbu	a2,0(a3)
ffffffc050204bd6:	0685                	addi	a3,a3,1
ffffffc050204bd8:	feb68fa3          	sb	a1,-1(a3)
ffffffc050204bdc:	00c78023          	sb	a2,0(a5)
ffffffc050204be0:	fed892e3          	bne	a7,a3,ffffffc050204bc4 <mini_itoa.part.0+0xb6>
ffffffc050204be4:	8082                	ret
ffffffc050204be6:	4e41                	li	t3,16
ffffffc050204be8:	0306869b          	addiw	a3,a3,48
ffffffc050204bec:	fed88fa3          	sb	a3,-1(a7)
ffffffc050204bf0:	f9c361e3          	bltu	t1,t3,ffffffc050204b72 <mini_itoa.part.0+0x64>
ffffffc050204bf4:	03c35533          	divu	a0,t1,t3
ffffffc050204bf8:	0885                	addi	a7,a7,1
ffffffc050204bfa:	832a                	mv	t1,a0
ffffffc050204bfc:	8e2e                	mv	t3,a1
ffffffc050204bfe:	02b576b3          	remu	a3,a0,a1
ffffffc050204c02:	fedff3e3          	bgeu	t6,a3,ffffffc050204be8 <mini_itoa.part.0+0xda>
ffffffc050204c06:	c605                	beqz	a2,ffffffc050204c2e <mini_itoa.part.0+0x120>
ffffffc050204c08:	01d686bb          	addw	a3,a3,t4
ffffffc050204c0c:	fed88fa3          	sb	a3,-1(a7)
ffffffc050204c10:	00455313          	srli	t1,a0,0x4
ffffffc050204c14:	00f37693          	andi	a3,t1,15
ffffffc050204c18:	f4030de3          	beqz	t1,ffffffc050204b72 <mini_itoa.part.0+0x64>
ffffffc050204c1c:	0885                	addi	a7,a7,1
ffffffc050204c1e:	fcdff4e3          	bgeu	t6,a3,ffffffc050204be6 <mini_itoa.part.0+0xd8>
ffffffc050204c22:	01d686bb          	addw	a3,a3,t4
ffffffc050204c26:	fed88fa3          	sb	a3,-1(a7)
ffffffc050204c2a:	851a                	mv	a0,t1
ffffffc050204c2c:	b7d5                	j	ffffffc050204c10 <mini_itoa.part.0+0x102>
ffffffc050204c2e:	0576869b          	addiw	a3,a3,87
ffffffc050204c32:	fed88fa3          	sb	a3,-1(a7)
ffffffc050204c36:	4e41                	li	t3,16
ffffffc050204c38:	bf65                	j	ffffffc050204bf0 <mini_itoa.part.0+0xe2>
ffffffc050204c3a:	0376869b          	addiw	a3,a3,55
ffffffc050204c3e:	fed88fa3          	sb	a3,-1(a7)
ffffffc050204c42:	b72d                	j	ffffffc050204b6c <mini_itoa.part.0+0x5e>
ffffffc050204c44:	8082                	ret
ffffffc050204c46:	4f01                	li	t5,0
ffffffc050204c48:	bdf1                	j	ffffffc050204b24 <mini_itoa.part.0+0x16>

ffffffc050204c4a <_vprint>:
ffffffc050204c4a:	7125                	addi	sp,sp,-416
ffffffc050204c4c:	fece                	sd	s3,376(sp)
ffffffc050204c4e:	ef06                	sd	ra,408(sp)
ffffffc050204c50:	fad2                	sd	s4,368(sp)
ffffffc050204c52:	f6d6                	sd	s5,360(sp)
ffffffc050204c54:	00054783          	lbu	a5,0(a0)
ffffffc050204c58:	89b2                	mv	s3,a2
ffffffc050204c5a:	38078363          	beqz	a5,ffffffc050204fe0 <_vprint+0x396>
ffffffc050204c5e:	03010a13          	addi	s4,sp,48
ffffffc050204c62:	eb22                	sd	s0,400(sp)
ffffffc050204c64:	e726                	sd	s1,392(sp)
ffffffc050204c66:	f2da                	sd	s6,352(sp)
ffffffc050204c68:	eede                	sd	s7,344(sp)
ffffffc050204c6a:	eae2                	sd	s8,336(sp)
ffffffc050204c6c:	e6e6                	sd	s9,328(sp)
ffffffc050204c6e:	e2ea                	sd	s10,320(sp)
ffffffc050204c70:	fe6e                	sd	s11,312(sp)
ffffffc050204c72:	e34a                	sd	s2,384(sp)
ffffffc050204c74:	842a                	mv	s0,a0
ffffffc050204c76:	84d2                	mv	s1,s4
ffffffc050204c78:	00150613          	addi	a2,a0,1
ffffffc050204c7c:	0ff00b13          	li	s6,255
ffffffc050204c80:	02500b93          	li	s7,37
ffffffc050204c84:	4ca5                	li	s9,9
ffffffc050204c86:	02000d13          	li	s10,32
ffffffc050204c8a:	00001c17          	auipc	s8,0x1
ffffffc050204c8e:	a8ec0c13          	addi	s8,s8,-1394 # ffffffc050205718 <status_str+0x20>
ffffffc050204c92:	06c00d93          	li	s11,108
ffffffc050204c96:	a005                	j	ffffffc050204cb6 <_vprint+0x6c>
ffffffc050204c98:	00148713          	addi	a4,s1,1
ffffffc050204c9c:	00f48023          	sb	a5,0(s1)
ffffffc050204ca0:	000480a3          	sb	zero,1(s1)
ffffffc050204ca4:	8432                	mv	s0,a2
ffffffc050204ca6:	41470933          	sub	s2,a4,s4
ffffffc050204caa:	84ba                	mv	s1,a4
ffffffc050204cac:	00044783          	lbu	a5,0(s0)
ffffffc050204cb0:	00140613          	addi	a2,s0,1
ffffffc050204cb4:	c3cd                	beqz	a5,ffffffc050204d56 <_vprint+0x10c>
ffffffc050204cb6:	41448933          	sub	s2,s1,s4
ffffffc050204cba:	0019071b          	addiw	a4,s2,1
ffffffc050204cbe:	00090a9b          	sext.w	s5,s2
ffffffc050204cc2:	08eb6c63          	bltu	s6,a4,ffffffc050204d5a <_vprint+0x110>
ffffffc050204cc6:	fd7799e3          	bne	a5,s7,ffffffc050204c98 <_vprint+0x4e>
ffffffc050204cca:	00144683          	lbu	a3,1(s0)
ffffffc050204cce:	fd06879b          	addiw	a5,a3,-48
ffffffc050204cd2:	0ff7f793          	zext.b	a5,a5
ffffffc050204cd6:	02fcf563          	bgeu	s9,a5,ffffffc050204d00 <_vprint+0xb6>
ffffffc050204cda:	0409                	addi	s0,s0,2
ffffffc050204cdc:	02000813          	li	a6,32
ffffffc050204ce0:	4781                	li	a5,0
ffffffc050204ce2:	4601                	li	a2,0
ffffffc050204ce4:	07b68463          	beq	a3,s11,ffffffc050204d4c <_vprint+0x102>
ffffffc050204ce8:	caad                	beqz	a3,ffffffc050204d5a <_vprint+0x110>
ffffffc050204cea:	fa86871b          	addiw	a4,a3,-88
ffffffc050204cee:	0ff77713          	zext.b	a4,a4
ffffffc050204cf2:	08ed6a63          	bltu	s10,a4,ffffffc050204d86 <_vprint+0x13c>
ffffffc050204cf6:	070a                	slli	a4,a4,0x2
ffffffc050204cf8:	9762                	add	a4,a4,s8
ffffffc050204cfa:	4318                	lw	a4,0(a4)
ffffffc050204cfc:	9762                	add	a4,a4,s8
ffffffc050204cfe:	8702                	jr	a4
ffffffc050204d00:	03000793          	li	a5,48
ffffffc050204d04:	02000813          	li	a6,32
ffffffc050204d08:	00f69363          	bne	a3,a5,ffffffc050204d0e <_vprint+0xc4>
ffffffc050204d0c:	8836                	mv	a6,a3
ffffffc050204d0e:	00064683          	lbu	a3,0(a2)
ffffffc050204d12:	c6a1                	beqz	a3,ffffffc050204d5a <_vprint+0x110>
ffffffc050204d14:	00160413          	addi	s0,a2,1
ffffffc050204d18:	4781                	li	a5,0
ffffffc050204d1a:	4625                	li	a2,9
ffffffc050204d1c:	a829                	j	ffffffc050204d36 <_vprint+0xec>
ffffffc050204d1e:	0027971b          	slliw	a4,a5,0x2
ffffffc050204d22:	9f3d                	addw	a4,a4,a5
ffffffc050204d24:	0405                	addi	s0,s0,1
ffffffc050204d26:	0017171b          	slliw	a4,a4,0x1
ffffffc050204d2a:	9f35                	addw	a4,a4,a3
ffffffc050204d2c:	fff44683          	lbu	a3,-1(s0)
ffffffc050204d30:	fd07079b          	addiw	a5,a4,-48
ffffffc050204d34:	c29d                	beqz	a3,ffffffc050204d5a <_vprint+0x110>
ffffffc050204d36:	fd06871b          	addiw	a4,a3,-48
ffffffc050204d3a:	0ff77713          	zext.b	a4,a4
ffffffc050204d3e:	fee670e3          	bgeu	a2,a4,ffffffc050204d1e <_vprint+0xd4>
ffffffc050204d42:	06c00713          	li	a4,108
ffffffc050204d46:	4601                	li	a2,0
ffffffc050204d48:	fae691e3          	bne	a3,a4,ffffffc050204cea <_vprint+0xa0>
ffffffc050204d4c:	4605                	li	a2,1
ffffffc050204d4e:	00044683          	lbu	a3,0(s0)
ffffffc050204d52:	9432                	add	s0,s0,a2
ffffffc050204d54:	bf51                	j	ffffffc050204ce8 <_vprint+0x9e>
ffffffc050204d56:	00090a9b          	sext.w	s5,s2
ffffffc050204d5a:	645a                	ld	s0,400(sp)
ffffffc050204d5c:	64ba                	ld	s1,392(sp)
ffffffc050204d5e:	691a                	ld	s2,384(sp)
ffffffc050204d60:	7b16                	ld	s6,352(sp)
ffffffc050204d62:	6bf6                	ld	s7,344(sp)
ffffffc050204d64:	6c56                	ld	s8,336(sp)
ffffffc050204d66:	6cb6                	ld	s9,328(sp)
ffffffc050204d68:	6d16                	ld	s10,320(sp)
ffffffc050204d6a:	7df2                	ld	s11,312(sp)
ffffffc050204d6c:	002a87b3          	add	a5,s5,sp
ffffffc050204d70:	8552                	mv	a0,s4
ffffffc050204d72:	02078823          	sb	zero,48(a5)
ffffffc050204d76:	9982                	jalr	s3
ffffffc050204d78:	60fa                	ld	ra,408(sp)
ffffffc050204d7a:	79f6                	ld	s3,376(sp)
ffffffc050204d7c:	7a56                	ld	s4,368(sp)
ffffffc050204d7e:	8556                	mv	a0,s5
ffffffc050204d80:	7ab6                	ld	s5,360(sp)
ffffffc050204d82:	611d                	addi	sp,sp,416
ffffffc050204d84:	8082                	ret
ffffffc050204d86:	00148793          	addi	a5,s1,1
ffffffc050204d8a:	00d48023          	sb	a3,0(s1)
ffffffc050204d8e:	000480a3          	sb	zero,1(s1)
ffffffc050204d92:	41478933          	sub	s2,a5,s4
ffffffc050204d96:	84be                	mv	s1,a5
ffffffc050204d98:	bf11                	j	ffffffc050204cac <_vprint+0x62>
ffffffc050204d9a:	00858893          	addi	a7,a1,8
ffffffc050204d9e:	1e061963          	bnez	a2,ffffffc050204f90 <_vprint+0x346>
ffffffc050204da2:	0005e503          	lwu	a0,0(a1)
ffffffc050204da6:	fa868693          	addi	a3,a3,-88
ffffffc050204daa:	0838                	addi	a4,sp,24
ffffffc050204dac:	0016b613          	seqz	a2,a3
ffffffc050204db0:	45c1                	li	a1,16
ffffffc050204db2:	4685                	li	a3,1
ffffffc050204db4:	e446                	sd	a7,8(sp)
ffffffc050204db6:	e03a                	sd	a4,0(sp)
ffffffc050204db8:	d57ff0ef          	jal	ffffffc050204b0e <mini_itoa.part.0>
ffffffc050204dbc:	02051613          	slli	a2,a0,0x20
ffffffc050204dc0:	10000793          	li	a5,256
ffffffc050204dc4:	9201                	srli	a2,a2,0x20
ffffffc050204dc6:	412787b3          	sub	a5,a5,s2
ffffffc050204dca:	6702                	ld	a4,0(sp)
ffffffc050204dcc:	68a2                	ld	a7,8(sp)
ffffffc050204dce:	1af64e63          	blt	a2,a5,ffffffc050204f8a <_vprint+0x340>
ffffffc050204dd2:	0ff00513          	li	a0,255
ffffffc050204dd6:	4155053b          	subw	a0,a0,s5
ffffffc050204dda:	02051613          	slli	a2,a0,0x20
ffffffc050204dde:	9201                	srli	a2,a2,0x20
ffffffc050204de0:	963a                	add	a2,a2,a4
ffffffc050204de2:	87a6                	mv	a5,s1
ffffffc050204de4:	00074683          	lbu	a3,0(a4)
ffffffc050204de8:	0705                	addi	a4,a4,1
ffffffc050204dea:	0785                	addi	a5,a5,1
ffffffc050204dec:	fed78fa3          	sb	a3,-1(a5)
ffffffc050204df0:	fee61ae3          	bne	a2,a4,ffffffc050204de4 <_vprint+0x19a>
ffffffc050204df4:	357d                	addiw	a0,a0,-1
ffffffc050204df6:	1502                	slli	a0,a0,0x20
ffffffc050204df8:	9101                	srli	a0,a0,0x20
ffffffc050204dfa:	0485                	addi	s1,s1,1
ffffffc050204dfc:	94aa                	add	s1,s1,a0
ffffffc050204dfe:	41448933          	sub	s2,s1,s4
ffffffc050204e02:	00048023          	sb	zero,0(s1)
ffffffc050204e06:	85c6                	mv	a1,a7
ffffffc050204e08:	b555                	j	ffffffc050204cac <_vprint+0x62>
ffffffc050204e0a:	00858893          	addi	a7,a1,8
ffffffc050204e0e:	18061663          	bnez	a2,ffffffc050204f9a <_vprint+0x350>
ffffffc050204e12:	0005e503          	lwu	a0,0(a1)
ffffffc050204e16:	0838                	addi	a4,sp,24
ffffffc050204e18:	4601                	li	a2,0
ffffffc050204e1a:	4685                	li	a3,1
ffffffc050204e1c:	45a9                	li	a1,10
ffffffc050204e1e:	e446                	sd	a7,8(sp)
ffffffc050204e20:	e03a                	sd	a4,0(sp)
ffffffc050204e22:	cedff0ef          	jal	ffffffc050204b0e <mini_itoa.part.0>
ffffffc050204e26:	02051613          	slli	a2,a0,0x20
ffffffc050204e2a:	10000793          	li	a5,256
ffffffc050204e2e:	9201                	srli	a2,a2,0x20
ffffffc050204e30:	412787b3          	sub	a5,a5,s2
ffffffc050204e34:	6702                	ld	a4,0(sp)
ffffffc050204e36:	68a2                	ld	a7,8(sp)
ffffffc050204e38:	14f64e63          	blt	a2,a5,ffffffc050204f94 <_vprint+0x34a>
ffffffc050204e3c:	0ff00513          	li	a0,255
ffffffc050204e40:	4155053b          	subw	a0,a0,s5
ffffffc050204e44:	02051613          	slli	a2,a0,0x20
ffffffc050204e48:	9201                	srli	a2,a2,0x20
ffffffc050204e4a:	963a                	add	a2,a2,a4
ffffffc050204e4c:	87a6                	mv	a5,s1
ffffffc050204e4e:	00074683          	lbu	a3,0(a4)
ffffffc050204e52:	0705                	addi	a4,a4,1
ffffffc050204e54:	0785                	addi	a5,a5,1
ffffffc050204e56:	fed78fa3          	sb	a3,-1(a5)
ffffffc050204e5a:	fec71ae3          	bne	a4,a2,ffffffc050204e4e <_vprint+0x204>
ffffffc050204e5e:	bf59                	j	ffffffc050204df4 <_vprint+0x1aa>
ffffffc050204e60:	6198                	ld	a4,0(a1)
ffffffc050204e62:	00858813          	addi	a6,a1,8
ffffffc050204e66:	00074683          	lbu	a3,0(a4)
ffffffc050204e6a:	14068a63          	beqz	a3,ffffffc050204fbe <_vprint+0x374>
ffffffc050204e6e:	4681                	li	a3,0
ffffffc050204e70:	2685                	addiw	a3,a3,1
ffffffc050204e72:	02069613          	slli	a2,a3,0x20
ffffffc050204e76:	9201                	srli	a2,a2,0x20
ffffffc050204e78:	00c705b3          	add	a1,a4,a2
ffffffc050204e7c:	0005c583          	lbu	a1,0(a1)
ffffffc050204e80:	f9e5                	bnez	a1,ffffffc050204e70 <_vprint+0x226>
ffffffc050204e82:	10000593          	li	a1,256
ffffffc050204e86:	412585b3          	sub	a1,a1,s2
ffffffc050204e8a:	10b64e63          	blt	a2,a1,ffffffc050204fa6 <_vprint+0x35c>
ffffffc050204e8e:	0ff00893          	li	a7,255
ffffffc050204e92:	415888bb          	subw	a7,a7,s5
ffffffc050204e96:	02089513          	slli	a0,a7,0x20
ffffffc050204e9a:	9101                	srli	a0,a0,0x20
ffffffc050204e9c:	8626                	mv	a2,s1
ffffffc050204e9e:	9526                	add	a0,a0,s1
ffffffc050204ea0:	00074583          	lbu	a1,0(a4)
ffffffc050204ea4:	0605                	addi	a2,a2,1
ffffffc050204ea6:	0705                	addi	a4,a4,1
ffffffc050204ea8:	feb60fa3          	sb	a1,-1(a2)
ffffffc050204eac:	fea61ae3          	bne	a2,a0,ffffffc050204ea0 <_vprint+0x256>
ffffffc050204eb0:	38fd                	addiw	a7,a7,-1
ffffffc050204eb2:	1882                	slli	a7,a7,0x20
ffffffc050204eb4:	0208d893          	srli	a7,a7,0x20
ffffffc050204eb8:	0485                	addi	s1,s1,1
ffffffc050204eba:	94c6                	add	s1,s1,a7
ffffffc050204ebc:	00048023          	sb	zero,0(s1)
ffffffc050204ec0:	85c2                	mv	a1,a6
ffffffc050204ec2:	41448933          	sub	s2,s1,s4
ffffffc050204ec6:	def6f3e3          	bgeu	a3,a5,ffffffc050204cac <_vprint+0x62>
ffffffc050204eca:	9f95                	subw	a5,a5,a3
ffffffc050204ecc:	02079693          	slli	a3,a5,0x20
ffffffc050204ed0:	10000713          	li	a4,256
ffffffc050204ed4:	9281                	srli	a3,a3,0x20
ffffffc050204ed6:	41270733          	sub	a4,a4,s2
ffffffc050204eda:	00e6cf63          	blt	a3,a4,ffffffc050204ef8 <_vprint+0x2ae>
ffffffc050204ede:	00090a9b          	sext.w	s5,s2
ffffffc050204ee2:	0ff00793          	li	a5,255
ffffffc050204ee6:	02fa8963          	beq	s5,a5,ffffffc050204f18 <_vprint+0x2ce>
ffffffc050204eea:	0ff00793          	li	a5,255
ffffffc050204eee:	415787bb          	subw	a5,a5,s5
ffffffc050204ef2:	02079693          	slli	a3,a5,0x20
ffffffc050204ef6:	9281                	srli	a3,a3,0x20
ffffffc050204ef8:	96a6                	add	a3,a3,s1
ffffffc050204efa:	8726                	mv	a4,s1
ffffffc050204efc:	02000613          	li	a2,32
ffffffc050204f00:	00c70023          	sb	a2,0(a4)
ffffffc050204f04:	0705                	addi	a4,a4,1
ffffffc050204f06:	fee69de3          	bne	a3,a4,ffffffc050204f00 <_vprint+0x2b6>
ffffffc050204f0a:	37fd                	addiw	a5,a5,-1
ffffffc050204f0c:	1782                	slli	a5,a5,0x20
ffffffc050204f0e:	9381                	srli	a5,a5,0x20
ffffffc050204f10:	0485                	addi	s1,s1,1
ffffffc050204f12:	94be                	add	s1,s1,a5
ffffffc050204f14:	41448933          	sub	s2,s1,s4
ffffffc050204f18:	00048023          	sb	zero,0(s1)
ffffffc050204f1c:	85c2                	mv	a1,a6
ffffffc050204f1e:	b379                	j	ffffffc050204cac <_vprint+0x62>
ffffffc050204f20:	00858893          	addi	a7,a1,8
ffffffc050204f24:	ee3d                	bnez	a2,ffffffc050204fa2 <_vprint+0x358>
ffffffc050204f26:	4188                	lw	a0,0(a1)
ffffffc050204f28:	0838                	addi	a4,sp,24
ffffffc050204f2a:	4601                	li	a2,0
ffffffc050204f2c:	4681                	li	a3,0
ffffffc050204f2e:	45a9                	li	a1,10
ffffffc050204f30:	e446                	sd	a7,8(sp)
ffffffc050204f32:	e03a                	sd	a4,0(sp)
ffffffc050204f34:	bdbff0ef          	jal	ffffffc050204b0e <mini_itoa.part.0>
ffffffc050204f38:	02051613          	slli	a2,a0,0x20
ffffffc050204f3c:	10000793          	li	a5,256
ffffffc050204f40:	9201                	srli	a2,a2,0x20
ffffffc050204f42:	412787b3          	sub	a5,a5,s2
ffffffc050204f46:	6702                	ld	a4,0(sp)
ffffffc050204f48:	68a2                	ld	a7,8(sp)
ffffffc050204f4a:	04f64a63          	blt	a2,a5,ffffffc050204f9e <_vprint+0x354>
ffffffc050204f4e:	0ff00513          	li	a0,255
ffffffc050204f52:	4155053b          	subw	a0,a0,s5
ffffffc050204f56:	02051613          	slli	a2,a0,0x20
ffffffc050204f5a:	9201                	srli	a2,a2,0x20
ffffffc050204f5c:	963a                	add	a2,a2,a4
ffffffc050204f5e:	87a6                	mv	a5,s1
ffffffc050204f60:	00074683          	lbu	a3,0(a4)
ffffffc050204f64:	0705                	addi	a4,a4,1
ffffffc050204f66:	0785                	addi	a5,a5,1
ffffffc050204f68:	fed78fa3          	sb	a3,-1(a5)
ffffffc050204f6c:	fec71ae3          	bne	a4,a2,ffffffc050204f60 <_vprint+0x316>
ffffffc050204f70:	b551                	j	ffffffc050204df4 <_vprint+0x1aa>
ffffffc050204f72:	4198                	lw	a4,0(a1)
ffffffc050204f74:	00148793          	addi	a5,s1,1
ffffffc050204f78:	000480a3          	sb	zero,1(s1)
ffffffc050204f7c:	00e48023          	sb	a4,0(s1)
ffffffc050204f80:	05a1                	addi	a1,a1,8
ffffffc050204f82:	41478933          	sub	s2,a5,s4
ffffffc050204f86:	84be                	mv	s1,a5
ffffffc050204f88:	b315                	j	ffffffc050204cac <_vprint+0x62>
ffffffc050204f8a:	e4051be3          	bnez	a0,ffffffc050204de0 <_vprint+0x196>
ffffffc050204f8e:	bd95                	j	ffffffc050204e02 <_vprint+0x1b8>
ffffffc050204f90:	6188                	ld	a0,0(a1)
ffffffc050204f92:	bd11                	j	ffffffc050204da6 <_vprint+0x15c>
ffffffc050204f94:	ea051be3          	bnez	a0,ffffffc050204e4a <_vprint+0x200>
ffffffc050204f98:	b5ad                	j	ffffffc050204e02 <_vprint+0x1b8>
ffffffc050204f9a:	6188                	ld	a0,0(a1)
ffffffc050204f9c:	bdad                	j	ffffffc050204e16 <_vprint+0x1cc>
ffffffc050204f9e:	fd5d                	bnez	a0,ffffffc050204f5c <_vprint+0x312>
ffffffc050204fa0:	b58d                	j	ffffffc050204e02 <_vprint+0x1b8>
ffffffc050204fa2:	6188                	ld	a0,0(a1)
ffffffc050204fa4:	b751                	j	ffffffc050204f28 <_vprint+0x2de>
ffffffc050204fa6:	88b6                	mv	a7,a3
ffffffc050204fa8:	ee0697e3          	bnez	a3,ffffffc050204e96 <_vprint+0x24c>
ffffffc050204fac:	00048023          	sb	zero,0(s1)
ffffffc050204fb0:	d7b5                	beqz	a5,ffffffc050204f1c <_vprint+0x2d2>
ffffffc050204fb2:	02079693          	slli	a3,a5,0x20
ffffffc050204fb6:	9281                	srli	a3,a3,0x20
ffffffc050204fb8:	f4b6c0e3          	blt	a3,a1,ffffffc050204ef8 <_vprint+0x2ae>
ffffffc050204fbc:	b73d                	j	ffffffc050204eea <_vprint+0x2a0>
ffffffc050204fbe:	0ff00893          	li	a7,255
ffffffc050204fc2:	0328c363          	blt	a7,s2,ffffffc050204fe8 <_vprint+0x39e>
ffffffc050204fc6:	00048023          	sb	zero,0(s1)
ffffffc050204fca:	dba9                	beqz	a5,ffffffc050204f1c <_vprint+0x2d2>
ffffffc050204fcc:	10000713          	li	a4,256
ffffffc050204fd0:	02079693          	slli	a3,a5,0x20
ffffffc050204fd4:	41270733          	sub	a4,a4,s2
ffffffc050204fd8:	9281                	srli	a3,a3,0x20
ffffffc050204fda:	f0e6cfe3          	blt	a3,a4,ffffffc050204ef8 <_vprint+0x2ae>
ffffffc050204fde:	b731                	j	ffffffc050204eea <_vprint+0x2a0>
ffffffc050204fe0:	4a81                	li	s5,0
ffffffc050204fe2:	03010a13          	addi	s4,sp,48
ffffffc050204fe6:	b359                	j	ffffffc050204d6c <_vprint+0x122>
ffffffc050204fe8:	415888bb          	subw	a7,a7,s5
ffffffc050204fec:	4681                	li	a3,0
ffffffc050204fee:	b565                	j	ffffffc050204e96 <_vprint+0x24c>

ffffffc050204ff0 <vprintk>:
ffffffc050204ff0:	00000617          	auipc	a2,0x0
ffffffc050204ff4:	b0e60613          	addi	a2,a2,-1266 # ffffffc050204afe <_output_wrapper>
ffffffc050204ff8:	b989                	j	ffffffc050204c4a <_vprint>

ffffffc050204ffa <printk>:
ffffffc050204ffa:	711d                	addi	sp,sp,-96
ffffffc050204ffc:	02810313          	addi	t1,sp,40
ffffffc050205000:	f42e                	sd	a1,40(sp)
ffffffc050205002:	f832                	sd	a2,48(sp)
ffffffc050205004:	859a                	mv	a1,t1
ffffffc050205006:	00000617          	auipc	a2,0x0
ffffffc05020500a:	af860613          	addi	a2,a2,-1288 # ffffffc050204afe <_output_wrapper>
ffffffc05020500e:	ec06                	sd	ra,24(sp)
ffffffc050205010:	fc36                	sd	a3,56(sp)
ffffffc050205012:	e0ba                	sd	a4,64(sp)
ffffffc050205014:	e4be                	sd	a5,72(sp)
ffffffc050205016:	e8c2                	sd	a6,80(sp)
ffffffc050205018:	ecc6                	sd	a7,88(sp)
ffffffc05020501a:	e41a                	sd	t1,8(sp)
ffffffc05020501c:	c2fff0ef          	jal	ffffffc050204c4a <_vprint>
ffffffc050205020:	60e2                	ld	ra,24(sp)
ffffffc050205022:	6125                	addi	sp,sp,96
ffffffc050205024:	8082                	ret

ffffffc050205026 <printv>:
ffffffc050205026:	711d                	addi	sp,sp,-96
ffffffc050205028:	02810313          	addi	t1,sp,40
ffffffc05020502c:	f42e                	sd	a1,40(sp)
ffffffc05020502e:	f832                	sd	a2,48(sp)
ffffffc050205030:	859a                	mv	a1,t1
ffffffc050205032:	00000617          	auipc	a2,0x0
ffffffc050205036:	aa060613          	addi	a2,a2,-1376 # ffffffc050204ad2 <bios_putstr>
ffffffc05020503a:	ec06                	sd	ra,24(sp)
ffffffc05020503c:	fc36                	sd	a3,56(sp)
ffffffc05020503e:	e0ba                	sd	a4,64(sp)
ffffffc050205040:	e4be                	sd	a5,72(sp)
ffffffc050205042:	e8c2                	sd	a6,80(sp)
ffffffc050205044:	ecc6                	sd	a7,88(sp)
ffffffc050205046:	e41a                	sd	t1,8(sp)
ffffffc050205048:	c03ff0ef          	jal	ffffffc050204c4a <_vprint>
ffffffc05020504c:	60e2                	ld	ra,24(sp)
ffffffc05020504e:	6125                	addi	sp,sp,96
ffffffc050205050:	8082                	ret

ffffffc050205052 <printl>:
ffffffc050205052:	711d                	addi	sp,sp,-96
ffffffc050205054:	02810313          	addi	t1,sp,40
ffffffc050205058:	f42e                	sd	a1,40(sp)
ffffffc05020505a:	f832                	sd	a2,48(sp)
ffffffc05020505c:	859a                	mv	a1,t1
ffffffc05020505e:	00000617          	auipc	a2,0x0
ffffffc050205062:	a8a60613          	addi	a2,a2,-1398 # ffffffc050204ae8 <bios_logging>
ffffffc050205066:	ec06                	sd	ra,24(sp)
ffffffc050205068:	fc36                	sd	a3,56(sp)
ffffffc05020506a:	e0ba                	sd	a4,64(sp)
ffffffc05020506c:	e4be                	sd	a5,72(sp)
ffffffc05020506e:	e8c2                	sd	a6,80(sp)
ffffffc050205070:	ecc6                	sd	a7,88(sp)
ffffffc050205072:	e41a                	sd	t1,8(sp)
ffffffc050205074:	bd7ff0ef          	jal	ffffffc050204c4a <_vprint>
ffffffc050205078:	60e2                	ld	ra,24(sp)
ffffffc05020507a:	6125                	addi	sp,sp,96
ffffffc05020507c:	8082                	ret

ffffffc05020507e <memcpy>:
ffffffc05020507e:	ce01                	beqz	a2,ffffffc050205096 <memcpy+0x18>
ffffffc050205080:	1602                	slli	a2,a2,0x20
ffffffc050205082:	9201                	srli	a2,a2,0x20
ffffffc050205084:	962a                	add	a2,a2,a0
ffffffc050205086:	0005c783          	lbu	a5,0(a1)
ffffffc05020508a:	0505                	addi	a0,a0,1
ffffffc05020508c:	0585                	addi	a1,a1,1
ffffffc05020508e:	fef50fa3          	sb	a5,-1(a0)
ffffffc050205092:	fec51ae3          	bne	a0,a2,ffffffc050205086 <memcpy+0x8>
ffffffc050205096:	8082                	ret

ffffffc050205098 <memset>:
ffffffc050205098:	ca09                	beqz	a2,ffffffc0502050aa <memset+0x12>
ffffffc05020509a:	1602                	slli	a2,a2,0x20
ffffffc05020509c:	9201                	srli	a2,a2,0x20
ffffffc05020509e:	962a                	add	a2,a2,a0
ffffffc0502050a0:	0505                	addi	a0,a0,1
ffffffc0502050a2:	feb50fa3          	sb	a1,-1(a0)
ffffffc0502050a6:	fec51de3          	bne	a0,a2,ffffffc0502050a0 <memset+0x8>
ffffffc0502050aa:	8082                	ret

ffffffc0502050ac <bzero>:
ffffffc0502050ac:	c989                	beqz	a1,ffffffc0502050be <bzero+0x12>
ffffffc0502050ae:	1582                	slli	a1,a1,0x20
ffffffc0502050b0:	9181                	srli	a1,a1,0x20
ffffffc0502050b2:	95aa                	add	a1,a1,a0
ffffffc0502050b4:	0505                	addi	a0,a0,1
ffffffc0502050b6:	fe050fa3          	sb	zero,-1(a0)
ffffffc0502050ba:	feb51de3          	bne	a0,a1,ffffffc0502050b4 <bzero+0x8>
ffffffc0502050be:	8082                	ret

ffffffc0502050c0 <strlen>:
ffffffc0502050c0:	00054783          	lbu	a5,0(a0)
ffffffc0502050c4:	cb99                	beqz	a5,ffffffc0502050da <strlen+0x1a>
ffffffc0502050c6:	00150793          	addi	a5,a0,1
ffffffc0502050ca:	86be                	mv	a3,a5
ffffffc0502050cc:	0007c703          	lbu	a4,0(a5)
ffffffc0502050d0:	0785                	addi	a5,a5,1
ffffffc0502050d2:	ff65                	bnez	a4,ffffffc0502050ca <strlen+0xa>
ffffffc0502050d4:	40a6853b          	subw	a0,a3,a0
ffffffc0502050d8:	8082                	ret
ffffffc0502050da:	4501                	li	a0,0
ffffffc0502050dc:	8082                	ret

ffffffc0502050de <strcmp>:
ffffffc0502050de:	00054703          	lbu	a4,0(a0)
ffffffc0502050e2:	eb01                	bnez	a4,ffffffc0502050f2 <strcmp+0x14>
ffffffc0502050e4:	a025                	j	ffffffc05020510c <strcmp+0x2e>
ffffffc0502050e6:	00e79b63          	bne	a5,a4,ffffffc0502050fc <strcmp+0x1e>
ffffffc0502050ea:	00054703          	lbu	a4,0(a0)
ffffffc0502050ee:	cb11                	beqz	a4,ffffffc050205102 <strcmp+0x24>
ffffffc0502050f0:	0585                	addi	a1,a1,1
ffffffc0502050f2:	0005c783          	lbu	a5,0(a1)
ffffffc0502050f6:	0505                	addi	a0,a0,1
ffffffc0502050f8:	f7fd                	bnez	a5,ffffffc0502050e6 <strcmp+0x8>
ffffffc0502050fa:	2701                	sext.w	a4,a4
ffffffc0502050fc:	40f7053b          	subw	a0,a4,a5
ffffffc050205100:	8082                	ret
ffffffc050205102:	0015c783          	lbu	a5,1(a1)
ffffffc050205106:	40f7053b          	subw	a0,a4,a5
ffffffc05020510a:	8082                	ret
ffffffc05020510c:	0005c783          	lbu	a5,0(a1)
ffffffc050205110:	b7f5                	j	ffffffc0502050fc <strcmp+0x1e>

ffffffc050205112 <strncmp>:
ffffffc050205112:	c21d                	beqz	a2,ffffffc050205138 <strncmp+0x26>
ffffffc050205114:	1602                	slli	a2,a2,0x20
ffffffc050205116:	9201                	srli	a2,a2,0x20
ffffffc050205118:	962a                	add	a2,a2,a0
ffffffc05020511a:	a031                	j	ffffffc050205126 <strncmp+0x14>
ffffffc05020511c:	0585                	addi	a1,a1,1
ffffffc05020511e:	00e79f63          	bne	a5,a4,ffffffc05020513c <strncmp+0x2a>
ffffffc050205122:	00c50b63          	beq	a0,a2,ffffffc050205138 <strncmp+0x26>
ffffffc050205126:	00054783          	lbu	a5,0(a0)
ffffffc05020512a:	0005c703          	lbu	a4,0(a1)
ffffffc05020512e:	0505                	addi	a0,a0,1
ffffffc050205130:	f7f5                	bnez	a5,ffffffc05020511c <strncmp+0xa>
ffffffc050205132:	4501                	li	a0,0
ffffffc050205134:	9d19                	subw	a0,a0,a4
ffffffc050205136:	8082                	ret
ffffffc050205138:	4501                	li	a0,0
ffffffc05020513a:	8082                	ret
ffffffc05020513c:	0007851b          	sext.w	a0,a5
ffffffc050205140:	9d19                	subw	a0,a0,a4
ffffffc050205142:	8082                	ret

ffffffc050205144 <strcpy>:
ffffffc050205144:	0005c783          	lbu	a5,0(a1)
ffffffc050205148:	872a                	mv	a4,a0
ffffffc05020514a:	cb81                	beqz	a5,ffffffc05020515a <strcpy+0x16>
ffffffc05020514c:	0585                	addi	a1,a1,1
ffffffc05020514e:	00f70023          	sb	a5,0(a4)
ffffffc050205152:	0005c783          	lbu	a5,0(a1)
ffffffc050205156:	0705                	addi	a4,a4,1
ffffffc050205158:	fbf5                	bnez	a5,ffffffc05020514c <strcpy+0x8>
ffffffc05020515a:	00070023          	sb	zero,0(a4)
ffffffc05020515e:	8082                	ret

ffffffc050205160 <strncpy>:
ffffffc050205160:	0005c683          	lbu	a3,0(a1)
ffffffc050205164:	88b2                	mv	a7,a2
ffffffc050205166:	87aa                	mv	a5,a0
ffffffc050205168:	c685                	beqz	a3,ffffffc050205190 <strncpy+0x30>
ffffffc05020516a:	fff6081b          	addiw	a6,a2,-1
ffffffc05020516e:	0105083b          	addw	a6,a0,a6
ffffffc050205172:	9e29                	addw	a2,a2,a0
ffffffc050205174:	a039                	j	ffffffc050205182 <strncpy+0x22>
ffffffc050205176:	00d78023          	sb	a3,0(a5)
ffffffc05020517a:	0005c683          	lbu	a3,0(a1)
ffffffc05020517e:	0785                	addi	a5,a5,1
ffffffc050205180:	ca81                	beqz	a3,ffffffc050205190 <strncpy+0x30>
ffffffc050205182:	40f6073b          	subw	a4,a2,a5
ffffffc050205186:	0585                	addi	a1,a1,1
ffffffc050205188:	40f808bb          	subw	a7,a6,a5
ffffffc05020518c:	fee045e3          	bgtz	a4,ffffffc050205176 <strncpy+0x16>
ffffffc050205190:	02089713          	slli	a4,a7,0x20
ffffffc050205194:	9301                	srli	a4,a4,0x20
ffffffc050205196:	973e                	add	a4,a4,a5
ffffffc050205198:	01105863          	blez	a7,ffffffc0502051a8 <strncpy+0x48>
ffffffc05020519c:	0785                	addi	a5,a5,1
ffffffc05020519e:	fe078fa3          	sb	zero,-1(a5)
ffffffc0502051a2:	fef71de3          	bne	a4,a5,ffffffc05020519c <strncpy+0x3c>
ffffffc0502051a6:	8082                	ret
ffffffc0502051a8:	8082                	ret

ffffffc0502051aa <strcat>:
ffffffc0502051aa:	00054783          	lbu	a5,0(a0)
ffffffc0502051ae:	c39d                	beqz	a5,ffffffc0502051d4 <strcat+0x2a>
ffffffc0502051b0:	87aa                	mv	a5,a0
ffffffc0502051b2:	0017c703          	lbu	a4,1(a5)
ffffffc0502051b6:	0785                	addi	a5,a5,1
ffffffc0502051b8:	ff6d                	bnez	a4,ffffffc0502051b2 <strcat+0x8>
ffffffc0502051ba:	0005c703          	lbu	a4,0(a1)
ffffffc0502051be:	cb01                	beqz	a4,ffffffc0502051ce <strcat+0x24>
ffffffc0502051c0:	0785                	addi	a5,a5,1
ffffffc0502051c2:	0585                	addi	a1,a1,1
ffffffc0502051c4:	fee78fa3          	sb	a4,-1(a5)
ffffffc0502051c8:	0005c703          	lbu	a4,0(a1)
ffffffc0502051cc:	fb75                	bnez	a4,ffffffc0502051c0 <strcat+0x16>
ffffffc0502051ce:	00078023          	sb	zero,0(a5)
ffffffc0502051d2:	8082                	ret
ffffffc0502051d4:	87aa                	mv	a5,a0
ffffffc0502051d6:	bfcd                	j	ffffffc0502051c8 <strcat+0x1e>
