
build/main:     file format elf64-littleriscv


Disassembly of section .text:

0000000050201000 <_start>:
    50201000:	10401073          	csrw	sie,zero
    50201004:	14401073          	csrw	sip,zero
    50201008:	00001297          	auipc	t0,0x1
    5020100c:	ed028293          	addi	t0,t0,-304 # 50201ed8 <tasknum>
    50201010:	00001317          	auipc	t1,0x1
    50201014:	29030313          	addi	t1,t1,656 # 502022a0 <__BSS_END__>

0000000050201018 <clear_bss>:
    50201018:	0002a023          	sw	zero,0(t0)
    5020101c:	0291                	addi	t0,t0,4
    5020101e:	fe62cde3          	blt	t0,t1,50201018 <clear_bss>

0000000050201022 <end_clear_bss>:
    50201022:	50500137          	lui	sp,0x50500
    50201026:	00c000ef          	jal	50201032 <main>

000000005020102a <loop>:
    5020102a:	10500073          	wfi
    5020102e:	bff5                	j	5020102a <loop>
    50201030:	0001                	nop

0000000050201032 <main>:
    50201032:	7155                	addi	sp,sp,-208
    50201034:	e1a2                	sd	s0,192(sp)
    50201036:	00001417          	auipc	s0,0x1
    5020103a:	fb240413          	addi	s0,s0,-78 # 50201fe8 <buf>
    5020103e:	e586                	sd	ra,200(sp)
    50201040:	fd26                	sd	s1,184(sp)
    50201042:	f94a                	sd	s2,176(sp)
    50201044:	f54e                	sd	s3,168(sp)
    50201046:	f152                	sd	s4,160(sp)
    50201048:	ed56                	sd	s5,152(sp)
    5020104a:	e95a                	sd	s6,144(sp)
    5020104c:	e55e                	sd	s7,136(sp)
    5020104e:	e162                	sd	s8,128(sp)
    50201050:	fce6                	sd	s9,120(sp)
    50201052:	f8ea                	sd	s10,112(sp)
    50201054:	f4ee                	sd	s11,104(sp)
    50201056:	87a2                	mv	a5,s0
    50201058:	00001697          	auipc	a3,0x1
    5020105c:	fc268693          	addi	a3,a3,-62 # 5020201a <buf+0x32>
    50201060:	a019                	j	50201066 <main+0x34>
    50201062:	48f68163          	beq	a3,a5,502014e4 <main+0x4b2>
    50201066:	0007c703          	lbu	a4,0(a5)
    5020106a:	0785                	addi	a5,a5,1
    5020106c:	db7d                	beqz	a4,50201062 <main+0x30>
    5020106e:	4a01                	li	s4,0
    50201070:	502007b7          	lui	a5,0x50200
    50201074:	1fe79703          	lh	a4,510(a5) # 502001fe <_start-0xe02>
    50201078:	520009b7          	lui	s3,0x52000
    5020107c:	00000597          	auipc	a1,0x0
    50201080:	64c58593          	addi	a1,a1,1612 # 502016c8 <port_write>
    50201084:	00271793          	slli	a5,a4,0x2
    50201088:	97ba                	add	a5,a5,a4
    5020108a:	078e                	slli	a5,a5,0x3
    5020108c:	f0b9b023          	sd	a1,-256(s3) # 51ffff00 <__BSS_END__+0x1dfdc60>
    50201090:	52000837          	lui	a6,0x52000
    50201094:	00000e97          	auipc	t4,0x0
    50201098:	620e8e93          	addi	t4,t4,1568 # 502016b4 <port_write_ch>
    5020109c:	00000e17          	auipc	t3,0x0
    502010a0:	640e0e13          	addi	t3,t3,1600 # 502016dc <port_read_ch>
    502010a4:	00000317          	auipc	t1,0x0
    502010a8:	65a30313          	addi	t1,t1,1626 # 502016fe <sd_read>
    502010ac:	00000897          	auipc	a7,0x0
    502010b0:	67a88893          	addi	a7,a7,1658 # 50201726 <sd_write>
    502010b4:	1f87f593          	andi	a1,a5,504
    502010b8:	f1d83423          	sd	t4,-248(a6) # 51ffff08 <__BSS_END__+0x1dfdc68>
    502010bc:	f1c83823          	sd	t3,-240(a6)
    502010c0:	f0683c23          	sd	t1,-232(a6)
    502010c4:	f3183023          	sd	a7,-224(a6)
    502010c8:	83a5                	srli	a5,a5,0x9
    502010ca:	00b035b3          	snez	a1,a1
    502010ce:	00001697          	auipc	a3,0x1
    502010d2:	e0e6a523          	sw	a4,-502(a3) # 50201ed8 <tasknum>
    502010d6:	9dbd                	addw	a1,a1,a5
    502010d8:	502007b7          	lui	a5,0x50200
    502010dc:	1f87e603          	lwu	a2,504(a5) # 502001f8 <_start-0xe08>
    502010e0:	00001517          	auipc	a0,0x1
    502010e4:	f4050513          	addi	a0,a0,-192 # 50202020 <tasks>
    502010e8:	1582                	slli	a1,a1,0x20
    502010ea:	1502                	slli	a0,a0,0x20
    502010ec:	9181                	srli	a1,a1,0x20
    502010ee:	4701                	li	a4,0
    502010f0:	4681                	li	a3,0
    502010f2:	9101                	srli	a0,a0,0x20
    502010f4:	60a000ef          	jal	502016fe <sd_read>
    502010f8:	00001517          	auipc	a0,0x1
    502010fc:	9c050513          	addi	a0,a0,-1600 # 50201ab8 <strcat+0xcc>
    50201100:	3e8000ef          	jal	502014e8 <bios_putstr>
    50201104:	00001797          	auipc	a5,0x1
    50201108:	dd47a783          	lw	a5,-556(a5) # 50201ed8 <tasknum>
    5020110c:	f0098993          	addi	s3,s3,-256
    50201110:	00001917          	auipc	s2,0x1
    50201114:	f2490913          	addi	s2,s2,-220 # 50202034 <tasks+0x14>
    50201118:	4481                	li	s1,0
    5020111a:	02f05e63          	blez	a5,50201156 <main+0x124>
    5020111e:	0009b783          	ld	a5,0(s3)
    50201122:	4701                	li	a4,0
    50201124:	4681                	li	a3,0
    50201126:	4601                	li	a2,0
    50201128:	4581                	li	a1,0
    5020112a:	854a                	mv	a0,s2
    5020112c:	9782                	jalr	a5
    5020112e:	0009b783          	ld	a5,0(s3)
    50201132:	4701                	li	a4,0
    50201134:	4681                	li	a3,0
    50201136:	4601                	li	a2,0
    50201138:	4581                	li	a1,0
    5020113a:	00001517          	auipc	a0,0x1
    5020113e:	93650513          	addi	a0,a0,-1738 # 50201a70 <strcat+0x84>
    50201142:	9782                	jalr	a5
    50201144:	00001797          	auipc	a5,0x1
    50201148:	d947a783          	lw	a5,-620(a5) # 50201ed8 <tasknum>
    5020114c:	2485                	addiw	s1,s1,1
    5020114e:	02890913          	addi	s2,s2,40
    50201152:	fcf4c6e3          	blt	s1,a5,5020111e <main+0xec>
    50201156:	00001517          	auipc	a0,0x1
    5020115a:	91a50513          	addi	a0,a0,-1766 # 50201a70 <strcat+0x84>
    5020115e:	38a000ef          	jal	502014e8 <bios_putstr>
    50201162:	00001797          	auipc	a5,0x1
    50201166:	a1e78793          	addi	a5,a5,-1506 # 50201b80 <strcat+0x194>
    5020116a:	6390                	ld	a2,0(a5)
    5020116c:	6794                	ld	a3,8(a5)
    5020116e:	6b98                	ld	a4,16(a5)
    50201170:	00001797          	auipc	a5,0x1
    50201174:	a287d783          	lhu	a5,-1496(a5) # 50201b98 <strcat+0x1ac>
    50201178:	e0b2                	sd	a2,64(sp)
    5020117a:	e4b6                	sd	a3,72(sp)
    5020117c:	04f11c23          	sh	a5,88(sp) # 50500058 <__BSS_END__+0x2fddb8>
    50201180:	e8ba                	sd	a4,80(sp)
    50201182:	06600793          	li	a5,102
    50201186:	000a0463          	beqz	s4,5020118e <main+0x15c>
    5020118a:	07400793          	li	a5,116
    5020118e:	00001717          	auipc	a4,0x1
    50201192:	d4672703          	lw	a4,-698(a4) # 50201ed4 <version>
    50201196:	00f10c23          	sb	a5,24(sp)
    5020119a:	00001597          	auipc	a1,0x1
    5020119e:	e6858593          	addi	a1,a1,-408 # 50202002 <buf+0x1a>
    502011a2:	0307071b          	addiw	a4,a4,48
    502011a6:	009c                	addi	a5,sp,64
    502011a8:	00e10ca3          	sb	a4,25(sp)
    502011ac:	4601                	li	a2,0
    502011ae:	05f00693          	li	a3,95
    502011b2:	0007c703          	lbu	a4,0(a5)
    502011b6:	0785                	addi	a5,a5,1
    502011b8:	00e40023          	sb	a4,0(s0)
    502011bc:	00d71963          	bne	a4,a3,502011ce <main+0x19c>
    502011c0:	00260733          	add	a4,a2,sp
    502011c4:	01874703          	lbu	a4,24(a4)
    502011c8:	2605                	addiw	a2,a2,1
    502011ca:	00e40023          	sb	a4,0(s0)
    502011ce:	0405                	addi	s0,s0,1
    502011d0:	fe8591e3          	bne	a1,s0,502011b2 <main+0x180>
    502011d4:	00001517          	auipc	a0,0x1
    502011d8:	8f450513          	addi	a0,a0,-1804 # 50201ac8 <strcat+0xdc>
    502011dc:	30c000ef          	jal	502014e8 <bios_putstr>
    502011e0:	00001517          	auipc	a0,0x1
    502011e4:	e0850513          	addi	a0,a0,-504 # 50201fe8 <buf>
    502011e8:	300000ef          	jal	502014e8 <bios_putstr>
    502011ec:	00001c97          	auipc	s9,0x1
    502011f0:	cf4c8c93          	addi	s9,s9,-780 # 50201ee0 <batchfiles>
    502011f4:	020c9793          	slli	a5,s9,0x20
    502011f8:	9381                	srli	a5,a5,0x20
    502011fa:	520004b7          	lui	s1,0x52000
    502011fe:	52000b37          	lui	s6,0x52000
    50201202:	02010023          	sb	zero,32(sp)
    50201206:	e43e                	sd	a5,8(sp)
    50201208:	f1048493          	addi	s1,s1,-240 # 51ffff10 <__BSS_END__+0x1dfdc70>
    5020120c:	f08b0b13          	addi	s6,s6,-248 # 51ffff08 <__BSS_END__+0x1dfdc68>
    50201210:	4981                	li	s3,0
    50201212:	02000b93          	li	s7,32
    50201216:	4c41                	li	s8,16
    50201218:	597d                	li	s2,-1
    5020121a:	609c                	ld	a5,0(s1)
    5020121c:	4701                	li	a4,0
    5020121e:	4681                	li	a3,0
    50201220:	4601                	li	a2,0
    50201222:	4581                	li	a1,0
    50201224:	4501                	li	a0,0
    50201226:	9782                	jalr	a5
    50201228:	842a                	mv	s0,a0
    5020122a:	2501                	sext.w	a0,a0
    5020122c:	ff2507e3          	beq	a0,s2,5020121a <main+0x1e8>
    50201230:	ff350793          	addi	a5,a0,-13
    50201234:	c39d                	beqz	a5,5020125a <main+0x228>
    50201236:	ff650793          	addi	a5,a0,-10
    5020123a:	c385                	beqz	a5,5020125a <main+0x228>
    5020123c:	000b3783          	ld	a5,0(s6)
    50201240:	4701                	li	a4,0
    50201242:	4681                	li	a3,0
    50201244:	4601                	li	a2,0
    50201246:	4581                	li	a1,0
    50201248:	9782                	jalr	a5
    5020124a:	15898863          	beq	s3,s8,5020139a <main+0x368>
    5020124e:	002987b3          	add	a5,s3,sp
    50201252:	02878023          	sb	s0,32(a5)
    50201256:	2985                	addiw	s3,s3,1
    50201258:	b7c1                	j	50201218 <main+0x1e6>
    5020125a:	52000ab7          	lui	s5,0x52000
    5020125e:	f00ab783          	ld	a5,-256(s5) # 51ffff00 <__BSS_END__+0x1dfdc60>
    50201262:	4701                	li	a4,0
    50201264:	4681                	li	a3,0
    50201266:	4601                	li	a2,0
    50201268:	4581                	li	a1,0
    5020126a:	00001517          	auipc	a0,0x1
    5020126e:	80650513          	addi	a0,a0,-2042 # 50201a70 <strcat+0x84>
    50201272:	f00a8a93          	addi	s5,s5,-256
    50201276:	9782                	jalr	a5
    50201278:	0a098663          	beqz	s3,50201324 <main+0x2f2>
    5020127c:	998a                	add	s3,s3,sp
    5020127e:	00001597          	auipc	a1,0x1
    50201282:	85a58593          	addi	a1,a1,-1958 # 50201ad8 <strcat+0xec>
    50201286:	1008                	addi	a0,sp,32
    50201288:	02098023          	sb	zero,32(s3)
    5020128c:	694000ef          	jal	50201920 <strcmp>
    50201290:	8a2a                	mv	s4,a0
    50201292:	ed71                	bnez	a0,5020136e <main+0x33c>
    50201294:	502007b7          	lui	a5,0x50200
    50201298:	1f47ad03          	lw	s10,500(a5) # 502001f4 <_start-0xe0c>
    5020129c:	4981                	li	s3,0
    5020129e:	00001797          	auipc	a5,0x1
    502012a2:	c407a123          	sw	zero,-958(a5) # 50201ee0 <batchfiles>
    502012a6:	597d                	li	s2,-1
    502012a8:	609c                	ld	a5,0(s1)
    502012aa:	4701                	li	a4,0
    502012ac:	4681                	li	a3,0
    502012ae:	4601                	li	a2,0
    502012b0:	4581                	li	a1,0
    502012b2:	4501                	li	a0,0
    502012b4:	9782                	jalr	a5
    502012b6:	0005041b          	sext.w	s0,a0
    502012ba:	8daa                	mv	s11,a0
    502012bc:	ff2406e3          	beq	s0,s2,502012a8 <main+0x276>
    502012c0:	ff340713          	addi	a4,s0,-13
    502012c4:	10070563          	beqz	a4,502013ce <main+0x39c>
    502012c8:	ff640713          	addi	a4,s0,-10
    502012cc:	10070163          	beqz	a4,502013ce <main+0x39c>
    502012d0:	000b3803          	ld	a6,0(s6)
    502012d4:	4701                	li	a4,0
    502012d6:	4681                	li	a3,0
    502012d8:	4601                	li	a2,0
    502012da:	4581                	li	a1,0
    502012dc:	8522                	mv	a0,s0
    502012de:	9802                	jalr	a6
    502012e0:	01740a63          	beq	s0,s7,502012f4 <main+0x2c2>
    502012e4:	05898d63          	beq	s3,s8,5020133e <main+0x30c>
    502012e8:	00298733          	add	a4,s3,sp
    502012ec:	03b70823          	sb	s11,48(a4)
    502012f0:	2985                	addiw	s3,s3,1
    502012f2:	bf5d                	j	502012a8 <main+0x276>
    502012f4:	02098663          	beqz	s3,50201320 <main+0x2ee>
    502012f8:	00001797          	auipc	a5,0x1
    502012fc:	be87a783          	lw	a5,-1048(a5) # 50201ee0 <batchfiles>
    50201300:	998a                	add	s3,s3,sp
    50201302:	02098823          	sb	zero,48(s3)
    50201306:	473d                	li	a4,15
    50201308:	1af74a63          	blt	a4,a5,502014bc <main+0x48a>
    5020130c:	00479513          	slli	a0,a5,0x4
    50201310:	0511                	addi	a0,a0,4
    50201312:	2785                	addiw	a5,a5,1
    50201314:	9566                	add	a0,a0,s9
    50201316:	180c                	addi	a1,sp,48
    50201318:	00fca023          	sw	a5,0(s9)
    5020131c:	66a000ef          	jal	50201986 <strcpy>
    50201320:	4981                	li	s3,0
    50201322:	b759                	j	502012a8 <main+0x276>
    50201324:	000ab783          	ld	a5,0(s5)
    50201328:	4701                	li	a4,0
    5020132a:	4681                	li	a3,0
    5020132c:	4601                	li	a2,0
    5020132e:	4581                	li	a1,0
    50201330:	00001517          	auipc	a0,0x1
    50201334:	84050513          	addi	a0,a0,-1984 # 50201b70 <strcat+0x184>
    50201338:	9782                	jalr	a5
    5020133a:	4981                	li	s3,0
    5020133c:	bdf1                	j	50201218 <main+0x1e6>
    5020133e:	000ab783          	ld	a5,0(s5)
    50201342:	4701                	li	a4,0
    50201344:	4681                	li	a3,0
    50201346:	4601                	li	a2,0
    50201348:	4581                	li	a1,0
    5020134a:	00000517          	auipc	a0,0x0
    5020134e:	72650513          	addi	a0,a0,1830 # 50201a70 <strcat+0x84>
    50201352:	9782                	jalr	a5
    50201354:	000ab783          	ld	a5,0(s5)
    50201358:	4701                	li	a4,0
    5020135a:	4681                	li	a3,0
    5020135c:	4601                	li	a2,0
    5020135e:	4581                	li	a1,0
    50201360:	00000517          	auipc	a0,0x0
    50201364:	7d850513          	addi	a0,a0,2008 # 50201b38 <strcat+0x14c>
    50201368:	9782                	jalr	a5
    5020136a:	4981                	li	s3,0
    5020136c:	bf35                	j	502012a8 <main+0x276>
    5020136e:	00000597          	auipc	a1,0x0
    50201372:	7fa58593          	addi	a1,a1,2042 # 50201b68 <strcat+0x17c>
    50201376:	1008                	addi	a0,sp,32
    50201378:	5a8000ef          	jal	50201920 <strcmp>
    5020137c:	00001617          	auipc	a2,0x1
    50201380:	b5c62603          	lw	a2,-1188(a2) # 50201ed8 <tasknum>
    50201384:	10051363          	bnez	a0,5020148a <main+0x458>
    50201388:	85b2                	mv	a1,a2
    5020138a:	00001517          	auipc	a0,0x1
    5020138e:	c9650513          	addi	a0,a0,-874 # 50202020 <tasks>
    50201392:	16a000ef          	jal	502014fc <excute_batchfiles>
    50201396:	4981                	li	s3,0
    50201398:	b541                	j	50201218 <main+0x1e6>
    5020139a:	52000437          	lui	s0,0x52000
    5020139e:	f0043783          	ld	a5,-256(s0) # 51ffff00 <__BSS_END__+0x1dfdc60>
    502013a2:	4701                	li	a4,0
    502013a4:	4681                	li	a3,0
    502013a6:	4601                	li	a2,0
    502013a8:	4581                	li	a1,0
    502013aa:	00000517          	auipc	a0,0x0
    502013ae:	6c650513          	addi	a0,a0,1734 # 50201a70 <strcat+0x84>
    502013b2:	9782                	jalr	a5
    502013b4:	f0043783          	ld	a5,-256(s0)
    502013b8:	4701                	li	a4,0
    502013ba:	4681                	li	a3,0
    502013bc:	4601                	li	a2,0
    502013be:	4581                	li	a1,0
    502013c0:	00000517          	auipc	a0,0x0
    502013c4:	77850513          	addi	a0,a0,1912 # 50201b38 <strcat+0x14c>
    502013c8:	9782                	jalr	a5
    502013ca:	4981                	li	s3,0
    502013cc:	b5b1                	j	50201218 <main+0x1e6>
    502013ce:	0c098863          	beqz	s3,5020149e <main+0x46c>
    502013d2:	00001797          	auipc	a5,0x1
    502013d6:	b0e7a783          	lw	a5,-1266(a5) # 50201ee0 <batchfiles>
    502013da:	998a                	add	s3,s3,sp
    502013dc:	180c                	addi	a1,sp,48
    502013de:	00479513          	slli	a0,a5,0x4
    502013e2:	0511                	addi	a0,a0,4
    502013e4:	2785                	addiw	a5,a5,1
    502013e6:	9566                	add	a0,a0,s9
    502013e8:	02098823          	sb	zero,48(s3)
    502013ec:	00fca023          	sw	a5,0(s9)
    502013f0:	596000ef          	jal	50201986 <strcpy>
    502013f4:	52000437          	lui	s0,0x52000
    502013f8:	f0043783          	ld	a5,-256(s0) # 51ffff00 <__BSS_END__+0x1dfdc60>
    502013fc:	4701                	li	a4,0
    502013fe:	4681                	li	a3,0
    50201400:	4601                	li	a2,0
    50201402:	4581                	li	a1,0
    50201404:	00000517          	auipc	a0,0x0
    50201408:	66c50513          	addi	a0,a0,1644 # 50201a70 <strcat+0x84>
    5020140c:	9782                	jalr	a5
    5020140e:	00001797          	auipc	a5,0x1
    50201412:	ad27a783          	lw	a5,-1326(a5) # 50201ee0 <batchfiles>
    50201416:	f0040413          	addi	s0,s0,-256
    5020141a:	00001917          	auipc	s2,0x1
    5020141e:	aca90913          	addi	s2,s2,-1334 # 50201ee4 <batchfiles+0x4>
    50201422:	04f05563          	blez	a5,5020146c <main+0x43a>
    50201426:	601c                	ld	a5,0(s0)
    50201428:	4701                	li	a4,0
    5020142a:	4681                	li	a3,0
    5020142c:	4601                	li	a2,0
    5020142e:	4581                	li	a1,0
    50201430:	00000517          	auipc	a0,0x0
    50201434:	72850513          	addi	a0,a0,1832 # 50201b58 <strcat+0x16c>
    50201438:	9782                	jalr	a5
    5020143a:	601c                	ld	a5,0(s0)
    5020143c:	854a                	mv	a0,s2
    5020143e:	4701                	li	a4,0
    50201440:	4681                	li	a3,0
    50201442:	4601                	li	a2,0
    50201444:	4581                	li	a1,0
    50201446:	9782                	jalr	a5
    50201448:	601c                	ld	a5,0(s0)
    5020144a:	4701                	li	a4,0
    5020144c:	4681                	li	a3,0
    5020144e:	4601                	li	a2,0
    50201450:	4581                	li	a1,0
    50201452:	00000517          	auipc	a0,0x0
    50201456:	61e50513          	addi	a0,a0,1566 # 50201a70 <strcat+0x84>
    5020145a:	9782                	jalr	a5
    5020145c:	00001797          	auipc	a5,0x1
    50201460:	a847a783          	lw	a5,-1404(a5) # 50201ee0 <batchfiles>
    50201464:	2a05                	addiw	s4,s4,1
    50201466:	0941                	addi	s2,s2,16
    50201468:	fafa4fe3          	blt	s4,a5,50201426 <main+0x3f4>
    5020146c:	520007b7          	lui	a5,0x52000
    50201470:	f2078793          	addi	a5,a5,-224 # 51ffff20 <__BSS_END__+0x1dfdc80>
    50201474:	639c                	ld	a5,0(a5)
    50201476:	6522                	ld	a0,8(sp)
    50201478:	020d1613          	slli	a2,s10,0x20
    5020147c:	9201                	srli	a2,a2,0x20
    5020147e:	4701                	li	a4,0
    50201480:	4681                	li	a3,0
    50201482:	4585                	li	a1,1
    50201484:	9782                	jalr	a5
    50201486:	4981                	li	s3,0
    50201488:	bb41                	j	50201218 <main+0x1e6>
    5020148a:	4681                	li	a3,0
    5020148c:	00001597          	auipc	a1,0x1
    50201490:	b9458593          	addi	a1,a1,-1132 # 50202020 <tasks>
    50201494:	1008                	addi	a0,sp,32
    50201496:	2f6000ef          	jal	5020178c <load_task_img_name>
    5020149a:	4981                	li	s3,0
    5020149c:	bbb5                	j	50201218 <main+0x1e6>
    5020149e:	520007b7          	lui	a5,0x52000
    502014a2:	f0078793          	addi	a5,a5,-256 # 51ffff00 <__BSS_END__+0x1dfdc60>
    502014a6:	639c                	ld	a5,0(a5)
    502014a8:	4701                	li	a4,0
    502014aa:	4681                	li	a3,0
    502014ac:	4601                	li	a2,0
    502014ae:	4581                	li	a1,0
    502014b0:	00000517          	auipc	a0,0x0
    502014b4:	63850513          	addi	a0,a0,1592 # 50201ae8 <strcat+0xfc>
    502014b8:	9782                	jalr	a5
    502014ba:	bf2d                	j	502013f4 <main+0x3c2>
    502014bc:	520007b7          	lui	a5,0x52000
    502014c0:	f0078793          	addi	a5,a5,-256 # 51ffff00 <__BSS_END__+0x1dfdc60>
    502014c4:	639c                	ld	a5,0(a5)
    502014c6:	4701                	li	a4,0
    502014c8:	4681                	li	a3,0
    502014ca:	4601                	li	a2,0
    502014cc:	4581                	li	a1,0
    502014ce:	00000517          	auipc	a0,0x0
    502014d2:	64250513          	addi	a0,a0,1602 # 50201b10 <strcat+0x124>
    502014d6:	9782                	jalr	a5
    502014d8:	4981                	li	s3,0
    502014da:	00001797          	auipc	a5,0x1
    502014de:	a007a323          	sw	zero,-1530(a5) # 50201ee0 <batchfiles>
    502014e2:	bb1d                	j	50201218 <main+0x1e6>
    502014e4:	4a05                	li	s4,1
    502014e6:	b669                	j	50201070 <main+0x3e>

00000000502014e8 <bios_putstr>:
    502014e8:	520007b7          	lui	a5,0x52000
    502014ec:	f0078793          	addi	a5,a5,-256 # 51ffff00 <__BSS_END__+0x1dfdc60>
    502014f0:	639c                	ld	a5,0(a5)
    502014f2:	4701                	li	a4,0
    502014f4:	4681                	li	a3,0
    502014f6:	4601                	li	a2,0
    502014f8:	4581                	li	a1,0
    502014fa:	8782                	jr	a5

00000000502014fc <excute_batchfiles>:
    502014fc:	18058f63          	beqz	a1,5020169a <excute_batchfiles+0x19e>
    50201500:	520007b7          	lui	a5,0x52000
    50201504:	50200737          	lui	a4,0x50200
    50201508:	f1878793          	addi	a5,a5,-232 # 51ffff18 <__BSS_END__+0x1dfdc78>
    5020150c:	1f476603          	lwu	a2,500(a4) # 502001f4 <_start-0xe0c>
    50201510:	639c                	ld	a5,0(a5)
    50201512:	711d                	addi	sp,sp,-96
    50201514:	ec86                	sd	ra,88(sp)
    50201516:	4701                	li	a4,0
    50201518:	4681                	li	a3,0
    5020151a:	e0ca                	sd	s2,64(sp)
    5020151c:	fc4e                	sd	s3,56(sp)
    5020151e:	f852                	sd	s4,48(sp)
    50201520:	f456                	sd	s5,40(sp)
    50201522:	f05a                	sd	s6,32(sp)
    50201524:	ec5e                	sd	s7,24(sp)
    50201526:	e862                	sd	s8,16(sp)
    50201528:	e466                	sd	s9,8(sp)
    5020152a:	e8a2                	sd	s0,80(sp)
    5020152c:	e4a6                	sd	s1,72(sp)
    5020152e:	8aaa                	mv	s5,a0
    50201530:	8a2e                	mv	s4,a1
    50201532:	55000537          	lui	a0,0x55000
    50201536:	4585                	li	a1,1
    50201538:	9782                	jalr	a5
    5020153a:	10400613          	li	a2,260
    5020153e:	550005b7          	lui	a1,0x55000
    50201542:	00001517          	auipc	a0,0x1
    50201546:	99e50513          	addi	a0,a0,-1634 # 50201ee0 <batchfiles>
    5020154a:	52000c37          	lui	s8,0x52000
    5020154e:	372000ef          	jal	502018c0 <memcpy>
    50201552:	f00c3783          	ld	a5,-256(s8) # 51ffff00 <__BSS_END__+0x1dfdc60>
    50201556:	4701                	li	a4,0
    50201558:	4681                	li	a3,0
    5020155a:	4601                	li	a2,0
    5020155c:	4581                	li	a1,0
    5020155e:	00000517          	auipc	a0,0x0
    50201562:	4e250513          	addi	a0,a0,1250 # 50201a40 <strcat+0x54>
    50201566:	52000937          	lui	s2,0x52000
    5020156a:	52000b37          	lui	s6,0x52000
    5020156e:	f00c0c13          	addi	s8,s8,-256
    50201572:	9782                	jalr	a5
    50201574:	f1090913          	addi	s2,s2,-240 # 51ffff10 <__BSS_END__+0x1dfdc70>
    50201578:	f08b0b13          	addi	s6,s6,-248 # 51ffff08 <__BSS_END__+0x1dfdc68>
    5020157c:	4c81                	li	s9,0
    5020157e:	59fd                	li	s3,-1
    50201580:	4ba5                	li	s7,9
    50201582:	00093783          	ld	a5,0(s2)
    50201586:	4701                	li	a4,0
    50201588:	4681                	li	a3,0
    5020158a:	4601                	li	a2,0
    5020158c:	4581                	li	a1,0
    5020158e:	4501                	li	a0,0
    50201590:	9782                	jalr	a5
    50201592:	0005041b          	sext.w	s0,a0
    50201596:	84aa                	mv	s1,a0
    50201598:	ff3405e3          	beq	s0,s3,50201582 <excute_batchfiles+0x86>
    5020159c:	ff640793          	addi	a5,s0,-10
    502015a0:	4701                	li	a4,0
    502015a2:	4681                	li	a3,0
    502015a4:	4601                	li	a2,0
    502015a6:	4581                	li	a1,0
    502015a8:	8522                	mv	a0,s0
    502015aa:	ff340813          	addi	a6,s0,-13
    502015ae:	c3b1                	beqz	a5,502015f2 <excute_batchfiles+0xf6>
    502015b0:	04080163          	beqz	a6,502015f2 <excute_batchfiles+0xf6>
    502015b4:	000b3783          	ld	a5,0(s6)
    502015b8:	fd04849b          	addiw	s1,s1,-48
    502015bc:	fd04041b          	addiw	s0,s0,-48
    502015c0:	9782                	jalr	a5
    502015c2:	002c979b          	slliw	a5,s9,0x2
    502015c6:	019787bb          	addw	a5,a5,s9
    502015ca:	0017979b          	slliw	a5,a5,0x1
    502015ce:	009be563          	bltu	s7,s1,502015d8 <excute_batchfiles+0xdc>
    502015d2:	00f40cbb          	addw	s9,s0,a5
    502015d6:	b775                	j	50201582 <excute_batchfiles+0x86>
    502015d8:	000c3783          	ld	a5,0(s8)
    502015dc:	4701                	li	a4,0
    502015de:	4681                	li	a3,0
    502015e0:	4601                	li	a2,0
    502015e2:	4581                	li	a1,0
    502015e4:	00000517          	auipc	a0,0x0
    502015e8:	49450513          	addi	a0,a0,1172 # 50201a78 <strcat+0x8c>
    502015ec:	9782                	jalr	a5
    502015ee:	4c81                	li	s9,0
    502015f0:	bf49                	j	50201582 <excute_batchfiles+0x86>
    502015f2:	520004b7          	lui	s1,0x52000
    502015f6:	f004b783          	ld	a5,-256(s1) # 51ffff00 <__BSS_END__+0x1dfdc60>
    502015fa:	4701                	li	a4,0
    502015fc:	4681                	li	a3,0
    502015fe:	4601                	li	a2,0
    50201600:	4581                	li	a1,0
    50201602:	00000517          	auipc	a0,0x0
    50201606:	46e50513          	addi	a0,a0,1134 # 50201a70 <strcat+0x84>
    5020160a:	9782                	jalr	a5
    5020160c:	560007b7          	lui	a5,0x56000
    50201610:	0197a023          	sw	s9,0(a5) # 56000000 <__BSS_END__+0x5dfdd60>
    50201614:	00001797          	auipc	a5,0x1
    50201618:	8cc7a783          	lw	a5,-1844(a5) # 50201ee0 <batchfiles>
    5020161c:	f0048493          	addi	s1,s1,-256
    50201620:	00001417          	auipc	s0,0x1
    50201624:	8c440413          	addi	s0,s0,-1852 # 50201ee4 <batchfiles+0x4>
    50201628:	4901                	li	s2,0
    5020162a:	04f05b63          	blez	a5,50201680 <excute_batchfiles+0x184>
    5020162e:	609c                	ld	a5,0(s1)
    50201630:	4701                	li	a4,0
    50201632:	4681                	li	a3,0
    50201634:	4601                	li	a2,0
    50201636:	4581                	li	a1,0
    50201638:	00000517          	auipc	a0,0x0
    5020163c:	46850513          	addi	a0,a0,1128 # 50201aa0 <strcat+0xb4>
    50201640:	9782                	jalr	a5
    50201642:	609c                	ld	a5,0(s1)
    50201644:	8522                	mv	a0,s0
    50201646:	4701                	li	a4,0
    50201648:	4681                	li	a3,0
    5020164a:	4601                	li	a2,0
    5020164c:	4581                	li	a1,0
    5020164e:	9782                	jalr	a5
    50201650:	609c                	ld	a5,0(s1)
    50201652:	4701                	li	a4,0
    50201654:	4681                	li	a3,0
    50201656:	4601                	li	a2,0
    50201658:	4581                	li	a1,0
    5020165a:	00000517          	auipc	a0,0x0
    5020165e:	41650513          	addi	a0,a0,1046 # 50201a70 <strcat+0x84>
    50201662:	9782                	jalr	a5
    50201664:	8522                	mv	a0,s0
    50201666:	8652                	mv	a2,s4
    50201668:	85d6                	mv	a1,s5
    5020166a:	4685                	li	a3,1
    5020166c:	120000ef          	jal	5020178c <load_task_img_name>
    50201670:	00001797          	auipc	a5,0x1
    50201674:	8707a783          	lw	a5,-1936(a5) # 50201ee0 <batchfiles>
    50201678:	2905                	addiw	s2,s2,1
    5020167a:	0441                	addi	s0,s0,16
    5020167c:	faf949e3          	blt	s2,a5,5020162e <excute_batchfiles+0x132>
    50201680:	60e6                	ld	ra,88(sp)
    50201682:	6446                	ld	s0,80(sp)
    50201684:	64a6                	ld	s1,72(sp)
    50201686:	6906                	ld	s2,64(sp)
    50201688:	79e2                	ld	s3,56(sp)
    5020168a:	7a42                	ld	s4,48(sp)
    5020168c:	7aa2                	ld	s5,40(sp)
    5020168e:	7b02                	ld	s6,32(sp)
    50201690:	6be2                	ld	s7,24(sp)
    50201692:	6c42                	ld	s8,16(sp)
    50201694:	6ca2                	ld	s9,8(sp)
    50201696:	6125                	addi	sp,sp,96
    50201698:	8082                	ret
    5020169a:	520007b7          	lui	a5,0x52000
    5020169e:	f0078793          	addi	a5,a5,-256 # 51ffff00 <__BSS_END__+0x1dfdc60>
    502016a2:	639c                	ld	a5,0(a5)
    502016a4:	4701                	li	a4,0
    502016a6:	4681                	li	a3,0
    502016a8:	4601                	li	a2,0
    502016aa:	00000517          	auipc	a0,0x0
    502016ae:	37650513          	addi	a0,a0,886 # 50201a20 <strcat+0x34>
    502016b2:	8782                	jr	a5

00000000502016b4 <port_write_ch>:
    502016b4:	50150337          	lui	t1,0x50150
    502016b8:	4885                	li	a7,1
    502016ba:	4801                	li	a6,0
    502016bc:	4781                	li	a5,0
    502016be:	4701                	li	a4,0
    502016c0:	4681                	li	a3,0
    502016c2:	4601                	li	a2,0
    502016c4:	4581                	li	a1,0
    502016c6:	8302                	jr	t1

00000000502016c8 <port_write>:
    502016c8:	50150337          	lui	t1,0x50150
    502016cc:	48a5                	li	a7,9
    502016ce:	4801                	li	a6,0
    502016d0:	4781                	li	a5,0
    502016d2:	4701                	li	a4,0
    502016d4:	4681                	li	a3,0
    502016d6:	4601                	li	a2,0
    502016d8:	4581                	li	a1,0
    502016da:	8302                	jr	t1

00000000502016dc <port_read_ch>:
    502016dc:	1141                	addi	sp,sp,-16
    502016de:	e406                	sd	ra,8(sp)
    502016e0:	50150337          	lui	t1,0x50150
    502016e4:	4889                	li	a7,2
    502016e6:	4801                	li	a6,0
    502016e8:	4781                	li	a5,0
    502016ea:	4701                	li	a4,0
    502016ec:	4681                	li	a3,0
    502016ee:	4601                	li	a2,0
    502016f0:	4581                	li	a1,0
    502016f2:	4501                	li	a0,0
    502016f4:	9302                	jalr	t1
    502016f6:	60a2                	ld	ra,8(sp)
    502016f8:	2501                	sext.w	a0,a0
    502016fa:	0141                	addi	sp,sp,16
    502016fc:	8082                	ret

00000000502016fe <sd_read>:
    502016fe:	1141                	addi	sp,sp,-16
    50201700:	1502                	slli	a0,a0,0x20
    50201702:	1582                	slli	a1,a1,0x20
    50201704:	1602                	slli	a2,a2,0x20
    50201706:	e406                	sd	ra,8(sp)
    50201708:	9101                	srli	a0,a0,0x20
    5020170a:	9181                	srli	a1,a1,0x20
    5020170c:	9201                	srli	a2,a2,0x20
    5020170e:	50150337          	lui	t1,0x50150
    50201712:	48ad                	li	a7,11
    50201714:	4801                	li	a6,0
    50201716:	4781                	li	a5,0
    50201718:	4701                	li	a4,0
    5020171a:	4681                	li	a3,0
    5020171c:	9302                	jalr	t1
    5020171e:	60a2                	ld	ra,8(sp)
    50201720:	2501                	sext.w	a0,a0
    50201722:	0141                	addi	sp,sp,16
    50201724:	8082                	ret

0000000050201726 <sd_write>:
    50201726:	1141                	addi	sp,sp,-16
    50201728:	1502                	slli	a0,a0,0x20
    5020172a:	1582                	slli	a1,a1,0x20
    5020172c:	1602                	slli	a2,a2,0x20
    5020172e:	e406                	sd	ra,8(sp)
    50201730:	9101                	srli	a0,a0,0x20
    50201732:	9181                	srli	a1,a1,0x20
    50201734:	9201                	srli	a2,a2,0x20
    50201736:	50150337          	lui	t1,0x50150
    5020173a:	48a9                	li	a7,10
    5020173c:	4801                	li	a6,0
    5020173e:	4781                	li	a5,0
    50201740:	4701                	li	a4,0
    50201742:	4681                	li	a3,0
    50201744:	9302                	jalr	t1
    50201746:	60a2                	ld	ra,8(sp)
    50201748:	2501                	sext.w	a0,a0
    5020174a:	0141                	addi	sp,sp,16
    5020174c:	8082                	ret

000000005020174e <load_task_img>:
    5020174e:	1141                	addi	sp,sp,-16
    50201750:	e022                	sd	s0,0(sp)
    50201752:	51ff07b7          	lui	a5,0x51ff0
    50201756:	01051413          	slli	s0,a0,0x10
    5020175a:	9c3d                	addw	s0,s0,a5
    5020175c:	0045161b          	slliw	a2,a0,0x4
    50201760:	520007b7          	lui	a5,0x52000
    50201764:	9e09                	subw	a2,a2,a0
    50201766:	f1878793          	addi	a5,a5,-232 # 51ffff18 <__BSS_END__+0x1dfdc78>
    5020176a:	639c                	ld	a5,0(a5)
    5020176c:	2605                	addiw	a2,a2,1
    5020176e:	02041513          	slli	a0,s0,0x20
    50201772:	1602                	slli	a2,a2,0x20
    50201774:	e406                	sd	ra,8(sp)
    50201776:	9101                	srli	a0,a0,0x20
    50201778:	9201                	srli	a2,a2,0x20
    5020177a:	4701                	li	a4,0
    5020177c:	4681                	li	a3,0
    5020177e:	45bd                	li	a1,15
    50201780:	9782                	jalr	a5
    50201782:	60a2                	ld	ra,8(sp)
    50201784:	8522                	mv	a0,s0
    50201786:	6402                	ld	s0,0(sp)
    50201788:	0141                	addi	sp,sp,16
    5020178a:	8082                	ret

000000005020178c <load_task_img_name>:
    5020178c:	711d                	addi	sp,sp,-96
    5020178e:	e8a2                	sd	s0,80(sp)
    50201790:	f05a                	sd	s6,32(sp)
    50201792:	ec86                	sd	ra,88(sp)
    50201794:	1080                	addi	s0,sp,96
    50201796:	8b0a                	mv	s6,sp
    50201798:	10c05063          	blez	a2,50201898 <load_task_img_name+0x10c>
    5020179c:	e4a6                	sd	s1,72(sp)
    5020179e:	e0ca                	sd	s2,64(sp)
    502017a0:	fc4e                	sd	s3,56(sp)
    502017a2:	f852                	sd	s4,48(sp)
    502017a4:	f456                	sd	s5,40(sp)
    502017a6:	ec5e                	sd	s7,24(sp)
    502017a8:	8932                	mv	s2,a2
    502017aa:	89aa                	mv	s3,a0
    502017ac:	8a2e                	mv	s4,a1
    502017ae:	8bb6                	mv	s7,a3
    502017b0:	01458493          	addi	s1,a1,20 # 55000014 <__BSS_END__+0x4dfdd74>
    502017b4:	4a81                	li	s5,0
    502017b6:	a801                	j	502017c6 <load_task_img_name+0x3a>
    502017b8:	001a879b          	addiw	a5,s5,1
    502017bc:	8abe                	mv	s5,a5
    502017be:	02848493          	addi	s1,s1,40
    502017c2:	0cf90563          	beq	s2,a5,5020188c <load_task_img_name+0x100>
    502017c6:	85ce                	mv	a1,s3
    502017c8:	8526                	mv	a0,s1
    502017ca:	156000ef          	jal	50201920 <strcmp>
    502017ce:	f56d                	bnez	a0,502017b8 <load_task_img_name+0x2c>
    502017d0:	002a9793          	slli	a5,s5,0x2
    502017d4:	97d6                	add	a5,a5,s5
    502017d6:	078e                	slli	a5,a5,0x3
    502017d8:	9a3e                	add	s4,s4,a5
    502017da:	00ca2683          	lw	a3,12(s4)
    502017de:	010a2783          	lw	a5,16(s4)
    502017e2:	52000737          	lui	a4,0x52000
    502017e6:	41f6d61b          	sraiw	a2,a3,0x1f
    502017ea:	9fb5                	addw	a5,a5,a3
    502017ec:	41f7d59b          	sraiw	a1,a5,0x1f
    502017f0:	0175d59b          	srliw	a1,a1,0x17
    502017f4:	0176561b          	srliw	a2,a2,0x17
    502017f8:	9dbd                	addw	a1,a1,a5
    502017fa:	9e35                	addw	a2,a2,a3
    502017fc:	4096561b          	sraiw	a2,a2,0x9
    50201800:	4095d59b          	sraiw	a1,a1,0x9
    50201804:	9d91                	subw	a1,a1,a2
    50201806:	f1873783          	ld	a5,-232(a4) # 51ffff18 <__BSS_END__+0x1dfdc78>
    5020180a:	2585                	addiw	a1,a1,1
    5020180c:	1582                	slli	a1,a1,0x20
    5020180e:	1602                	slli	a2,a2,0x20
    50201810:	9181                	srli	a1,a1,0x20
    50201812:	9201                	srli	a2,a2,0x20
    50201814:	4701                	li	a4,0
    50201816:	4681                	li	a3,0
    50201818:	55000537          	lui	a0,0x55000
    5020181c:	000a3483          	ld	s1,0(s4)
    50201820:	9782                	jalr	a5
    50201822:	00ca2783          	lw	a5,12(s4)
    50201826:	010a2603          	lw	a2,16(s4)
    5020182a:	550005b7          	lui	a1,0x55000
    5020182e:	41f7d71b          	sraiw	a4,a5,0x1f
    50201832:	0177571b          	srliw	a4,a4,0x17
    50201836:	9fb9                	addw	a5,a5,a4
    50201838:	1ff7f793          	andi	a5,a5,511
    5020183c:	9f99                	subw	a5,a5,a4
    5020183e:	9dbd                	addw	a1,a1,a5
    50201840:	8526                	mv	a0,s1
    50201842:	07e000ef          	jal	502018c0 <memcpy>
    50201846:	00000797          	auipc	a5,0x0
    5020184a:	38278793          	addi	a5,a5,898 # 50201bc8 <strcat+0x1dc>
    5020184e:	faf43023          	sd	a5,-96(s0)
    50201852:	00000797          	auipc	a5,0x0
    50201856:	34e78793          	addi	a5,a5,846 # 50201ba0 <strcat+0x1b4>
    5020185a:	020b8463          	beqz	s7,50201882 <load_task_img_name+0xf6>
    5020185e:	faf43423          	sd	a5,-88(s0)
    50201862:	fa040593          	addi	a1,s0,-96
    50201866:	4509                	li	a0,2
    50201868:	9482                	jalr	s1
    5020186a:	815a                	mv	sp,s6
    5020186c:	60e6                	ld	ra,88(sp)
    5020186e:	6446                	ld	s0,80(sp)
    50201870:	64a6                	ld	s1,72(sp)
    50201872:	6906                	ld	s2,64(sp)
    50201874:	79e2                	ld	s3,56(sp)
    50201876:	7a42                	ld	s4,48(sp)
    50201878:	7aa2                	ld	s5,40(sp)
    5020187a:	6be2                	ld	s7,24(sp)
    5020187c:	7b02                	ld	s6,32(sp)
    5020187e:	6125                	addi	sp,sp,96
    50201880:	8082                	ret
    50201882:	00000797          	auipc	a5,0x0
    50201886:	32678793          	addi	a5,a5,806 # 50201ba8 <strcat+0x1bc>
    5020188a:	bfd1                	j	5020185e <load_task_img_name+0xd2>
    5020188c:	64a6                	ld	s1,72(sp)
    5020188e:	6906                	ld	s2,64(sp)
    50201890:	79e2                	ld	s3,56(sp)
    50201892:	7a42                	ld	s4,48(sp)
    50201894:	7aa2                	ld	s5,40(sp)
    50201896:	6be2                	ld	s7,24(sp)
    50201898:	520007b7          	lui	a5,0x52000
    5020189c:	f0078793          	addi	a5,a5,-256 # 51ffff00 <__BSS_END__+0x1dfdc60>
    502018a0:	639c                	ld	a5,0(a5)
    502018a2:	4701                	li	a4,0
    502018a4:	4681                	li	a3,0
    502018a6:	4601                	li	a2,0
    502018a8:	4581                	li	a1,0
    502018aa:	00000517          	auipc	a0,0x0
    502018ae:	30650513          	addi	a0,a0,774 # 50201bb0 <strcat+0x1c4>
    502018b2:	9782                	jalr	a5
    502018b4:	815a                	mv	sp,s6
    502018b6:	60e6                	ld	ra,88(sp)
    502018b8:	6446                	ld	s0,80(sp)
    502018ba:	7b02                	ld	s6,32(sp)
    502018bc:	6125                	addi	sp,sp,96
    502018be:	8082                	ret

00000000502018c0 <memcpy>:
    502018c0:	ce01                	beqz	a2,502018d8 <memcpy+0x18>
    502018c2:	1602                	slli	a2,a2,0x20
    502018c4:	9201                	srli	a2,a2,0x20
    502018c6:	962a                	add	a2,a2,a0
    502018c8:	0005c783          	lbu	a5,0(a1) # 55000000 <__BSS_END__+0x4dfdd60>
    502018cc:	0505                	addi	a0,a0,1
    502018ce:	0585                	addi	a1,a1,1
    502018d0:	fef50fa3          	sb	a5,-1(a0)
    502018d4:	fec51ae3          	bne	a0,a2,502018c8 <memcpy+0x8>
    502018d8:	8082                	ret

00000000502018da <memset>:
    502018da:	ca09                	beqz	a2,502018ec <memset+0x12>
    502018dc:	1602                	slli	a2,a2,0x20
    502018de:	9201                	srli	a2,a2,0x20
    502018e0:	962a                	add	a2,a2,a0
    502018e2:	0505                	addi	a0,a0,1
    502018e4:	feb50fa3          	sb	a1,-1(a0)
    502018e8:	fec51de3          	bne	a0,a2,502018e2 <memset+0x8>
    502018ec:	8082                	ret

00000000502018ee <bzero>:
    502018ee:	c989                	beqz	a1,50201900 <bzero+0x12>
    502018f0:	1582                	slli	a1,a1,0x20
    502018f2:	9181                	srli	a1,a1,0x20
    502018f4:	95aa                	add	a1,a1,a0
    502018f6:	0505                	addi	a0,a0,1
    502018f8:	fe050fa3          	sb	zero,-1(a0)
    502018fc:	feb51de3          	bne	a0,a1,502018f6 <bzero+0x8>
    50201900:	8082                	ret

0000000050201902 <strlen>:
    50201902:	00054783          	lbu	a5,0(a0)
    50201906:	cb99                	beqz	a5,5020191c <strlen+0x1a>
    50201908:	00150793          	addi	a5,a0,1
    5020190c:	86be                	mv	a3,a5
    5020190e:	0007c703          	lbu	a4,0(a5)
    50201912:	0785                	addi	a5,a5,1
    50201914:	ff65                	bnez	a4,5020190c <strlen+0xa>
    50201916:	40a6853b          	subw	a0,a3,a0
    5020191a:	8082                	ret
    5020191c:	4501                	li	a0,0
    5020191e:	8082                	ret

0000000050201920 <strcmp>:
    50201920:	00054703          	lbu	a4,0(a0)
    50201924:	eb01                	bnez	a4,50201934 <strcmp+0x14>
    50201926:	a025                	j	5020194e <strcmp+0x2e>
    50201928:	00e79b63          	bne	a5,a4,5020193e <strcmp+0x1e>
    5020192c:	00054703          	lbu	a4,0(a0)
    50201930:	cb11                	beqz	a4,50201944 <strcmp+0x24>
    50201932:	0585                	addi	a1,a1,1
    50201934:	0005c783          	lbu	a5,0(a1)
    50201938:	0505                	addi	a0,a0,1
    5020193a:	f7fd                	bnez	a5,50201928 <strcmp+0x8>
    5020193c:	2701                	sext.w	a4,a4
    5020193e:	40f7053b          	subw	a0,a4,a5
    50201942:	8082                	ret
    50201944:	0015c783          	lbu	a5,1(a1)
    50201948:	40f7053b          	subw	a0,a4,a5
    5020194c:	8082                	ret
    5020194e:	0005c783          	lbu	a5,0(a1)
    50201952:	b7f5                	j	5020193e <strcmp+0x1e>

0000000050201954 <strncmp>:
    50201954:	c21d                	beqz	a2,5020197a <strncmp+0x26>
    50201956:	1602                	slli	a2,a2,0x20
    50201958:	9201                	srli	a2,a2,0x20
    5020195a:	962a                	add	a2,a2,a0
    5020195c:	a031                	j	50201968 <strncmp+0x14>
    5020195e:	0585                	addi	a1,a1,1
    50201960:	00e79f63          	bne	a5,a4,5020197e <strncmp+0x2a>
    50201964:	00c50b63          	beq	a0,a2,5020197a <strncmp+0x26>
    50201968:	00054783          	lbu	a5,0(a0)
    5020196c:	0005c703          	lbu	a4,0(a1)
    50201970:	0505                	addi	a0,a0,1
    50201972:	f7f5                	bnez	a5,5020195e <strncmp+0xa>
    50201974:	4501                	li	a0,0
    50201976:	9d19                	subw	a0,a0,a4
    50201978:	8082                	ret
    5020197a:	4501                	li	a0,0
    5020197c:	8082                	ret
    5020197e:	0007851b          	sext.w	a0,a5
    50201982:	9d19                	subw	a0,a0,a4
    50201984:	8082                	ret

0000000050201986 <strcpy>:
    50201986:	0005c783          	lbu	a5,0(a1)
    5020198a:	872a                	mv	a4,a0
    5020198c:	cb81                	beqz	a5,5020199c <strcpy+0x16>
    5020198e:	0585                	addi	a1,a1,1
    50201990:	00f70023          	sb	a5,0(a4)
    50201994:	0005c783          	lbu	a5,0(a1)
    50201998:	0705                	addi	a4,a4,1
    5020199a:	fbf5                	bnez	a5,5020198e <strcpy+0x8>
    5020199c:	00070023          	sb	zero,0(a4)
    502019a0:	8082                	ret

00000000502019a2 <strncpy>:
    502019a2:	0005c683          	lbu	a3,0(a1)
    502019a6:	88b2                	mv	a7,a2
    502019a8:	87aa                	mv	a5,a0
    502019aa:	c685                	beqz	a3,502019d2 <strncpy+0x30>
    502019ac:	fff6081b          	addiw	a6,a2,-1
    502019b0:	0105083b          	addw	a6,a0,a6
    502019b4:	9e29                	addw	a2,a2,a0
    502019b6:	a039                	j	502019c4 <strncpy+0x22>
    502019b8:	00d78023          	sb	a3,0(a5)
    502019bc:	0005c683          	lbu	a3,0(a1)
    502019c0:	0785                	addi	a5,a5,1
    502019c2:	ca81                	beqz	a3,502019d2 <strncpy+0x30>
    502019c4:	40f6073b          	subw	a4,a2,a5
    502019c8:	0585                	addi	a1,a1,1
    502019ca:	40f808bb          	subw	a7,a6,a5
    502019ce:	fee045e3          	bgtz	a4,502019b8 <strncpy+0x16>
    502019d2:	02089713          	slli	a4,a7,0x20
    502019d6:	9301                	srli	a4,a4,0x20
    502019d8:	973e                	add	a4,a4,a5
    502019da:	01105863          	blez	a7,502019ea <strncpy+0x48>
    502019de:	0785                	addi	a5,a5,1
    502019e0:	fe078fa3          	sb	zero,-1(a5)
    502019e4:	fef71de3          	bne	a4,a5,502019de <strncpy+0x3c>
    502019e8:	8082                	ret
    502019ea:	8082                	ret

00000000502019ec <strcat>:
    502019ec:	00054783          	lbu	a5,0(a0)
    502019f0:	c39d                	beqz	a5,50201a16 <strcat+0x2a>
    502019f2:	87aa                	mv	a5,a0
    502019f4:	0017c703          	lbu	a4,1(a5)
    502019f8:	0785                	addi	a5,a5,1
    502019fa:	ff6d                	bnez	a4,502019f4 <strcat+0x8>
    502019fc:	0005c703          	lbu	a4,0(a1)
    50201a00:	cb01                	beqz	a4,50201a10 <strcat+0x24>
    50201a02:	0785                	addi	a5,a5,1
    50201a04:	0585                	addi	a1,a1,1
    50201a06:	fee78fa3          	sb	a4,-1(a5)
    50201a0a:	0005c703          	lbu	a4,0(a1)
    50201a0e:	fb75                	bnez	a4,50201a02 <strcat+0x16>
    50201a10:	00078023          	sb	zero,0(a5)
    50201a14:	8082                	ret
    50201a16:	87aa                	mv	a5,a0
    50201a18:	bfcd                	j	50201a0a <strcat+0x1e>
