
build/main:     file format elf64-littleriscv


Disassembly of section .text:

0000000050201000 <_start>:
    50201000:	10401073          	csrw	sie,zero
    50201004:	14401073          	csrw	sip,zero
    50201008:	00005297          	auipc	t0,0x5
    5020100c:	7d828293          	addi	t0,t0,2008 # 502067e0 <tasknum>
    50201010:	00009317          	auipc	t1,0x9
    50201014:	9c830313          	addi	t1,t1,-1592 # 502099d8 <__BSS_END__>

0000000050201018 <clear_bss>:
    50201018:	0002a023          	sw	zero,0(t0)
    5020101c:	0291                	addi	t0,t0,4
    5020101e:	fe62cde3          	blt	t0,t1,50201018 <clear_bss>

0000000050201022 <end_clear_bss>:
    50201022:	50500137          	lui	sp,0x50500
    50201026:	617000ef          	jal	50201e3c <main>

000000005020102a <loop>:
    5020102a:	10500073          	wfi
    5020102e:	bff5                	j	5020102a <loop>
    50201030:	0001                	nop
	...

0000000050201034 <enable_preempt>:
    50201034:	fff04293          	not	t0,zero
    50201038:	1042a073          	csrs	sie,t0
    5020103c:	8082                	ret
    5020103e:	0001                	nop

0000000050201040 <disable_preempt>:
    50201040:	10401073          	csrw	sie,zero
    50201044:	8082                	ret
    50201046:	0001                	nop

0000000050201048 <enable_interrupt>:
    50201048:	4289                	li	t0,2
    5020104a:	1002a073          	csrs	sstatus,t0
    5020104e:	8082                	ret

0000000050201050 <disable_interrupt>:
    50201050:	4289                	li	t0,2
    50201052:	1002b073          	csrc	sstatus,t0
    50201056:	8082                	ret

0000000050201058 <enable_time_preempt>:
    50201058:	02000293          	li	t0,32
    5020105c:	1042a073          	csrs	sie,t0
    50201060:	8082                	ret
    50201062:	0001                	nop

0000000050201064 <disable_time_preempt>:
    50201064:	02000293          	li	t0,32
    50201068:	1042b073          	csrc	sie,t0
    5020106c:	8082                	ret
    5020106e:	0001                	nop

0000000050201070 <switch_to>:
    50201070:	7159                	addi	sp,sp,-112
    50201072:	00153023          	sd	ra,0(a0)
    50201076:	00253423          	sd	sp,8(a0)
    5020107a:	e900                	sd	s0,16(a0)
    5020107c:	ed04                	sd	s1,24(a0)
    5020107e:	03253023          	sd	s2,32(a0)
    50201082:	03353423          	sd	s3,40(a0)
    50201086:	03453823          	sd	s4,48(a0)
    5020108a:	03553c23          	sd	s5,56(a0)
    5020108e:	05653023          	sd	s6,64(a0)
    50201092:	05753423          	sd	s7,72(a0)
    50201096:	05853823          	sd	s8,80(a0)
    5020109a:	05953c23          	sd	s9,88(a0)
    5020109e:	07a53023          	sd	s10,96(a0)
    502010a2:	07b53423          	sd	s11,104(a0)
    502010a6:	0005b083          	ld	ra,0(a1)
    502010aa:	0085b103          	ld	sp,8(a1)
    502010ae:	6980                	ld	s0,16(a1)
    502010b0:	6d84                	ld	s1,24(a1)
    502010b2:	0205b903          	ld	s2,32(a1)
    502010b6:	0285b983          	ld	s3,40(a1)
    502010ba:	0305ba03          	ld	s4,48(a1)
    502010be:	0385ba83          	ld	s5,56(a1)
    502010c2:	0405bb03          	ld	s6,64(a1)
    502010c6:	0485bb83          	ld	s7,72(a1)
    502010ca:	0505bc03          	ld	s8,80(a1)
    502010ce:	0585bc83          	ld	s9,88(a1)
    502010d2:	0605bd03          	ld	s10,96(a1)
    502010d6:	0685bd83          	ld	s11,104(a1)
    502010da:	6165                	addi	sp,sp,112
    502010dc:	8082                	ret
    502010de:	0001                	nop

00000000502010e0 <ret_from_exception>:
    502010e0:	6292                	ld	t0,256(sp)
    502010e2:	10029073          	csrw	sstatus,t0
    502010e6:	62b2                	ld	t0,264(sp)
    502010e8:	14129073          	csrw	sepc,t0
    502010ec:	62d2                	ld	t0,272(sp)
    502010ee:	14329073          	csrw	stval,t0
    502010f2:	62f2                	ld	t0,280(sp)
    502010f4:	14229073          	csrw	scause,t0
    502010f8:	72a2                	ld	t0,40(sp)
    502010fa:	7342                	ld	t1,48(sp)
    502010fc:	73e2                	ld	t2,56(sp)
    502010fe:	00013003          	ld	zero,0(sp) # 50500000 <__BSS_END__+0x2f6628>
    50201102:	60a2                	ld	ra,8(sp)
    50201104:	61e2                	ld	gp,24(sp)
    50201106:	7202                	ld	tp,32(sp)
    50201108:	6406                	ld	s0,64(sp)
    5020110a:	64a6                	ld	s1,72(sp)
    5020110c:	6546                	ld	a0,80(sp)
    5020110e:	65e6                	ld	a1,88(sp)
    50201110:	7606                	ld	a2,96(sp)
    50201112:	76a6                	ld	a3,104(sp)
    50201114:	7746                	ld	a4,112(sp)
    50201116:	77e6                	ld	a5,120(sp)
    50201118:	680a                	ld	a6,128(sp)
    5020111a:	68aa                	ld	a7,136(sp)
    5020111c:	694a                	ld	s2,144(sp)
    5020111e:	69ea                	ld	s3,152(sp)
    50201120:	7a0a                	ld	s4,160(sp)
    50201122:	7aaa                	ld	s5,168(sp)
    50201124:	7b4a                	ld	s6,176(sp)
    50201126:	7bea                	ld	s7,184(sp)
    50201128:	6c0e                	ld	s8,192(sp)
    5020112a:	6cae                	ld	s9,200(sp)
    5020112c:	6d4e                	ld	s10,208(sp)
    5020112e:	6dee                	ld	s11,216(sp)
    50201130:	7e0e                	ld	t3,224(sp)
    50201132:	7eae                	ld	t4,232(sp)
    50201134:	7f4e                	ld	t5,240(sp)
    50201136:	7fee                	ld	t6,248(sp)
    50201138:	6115                	addi	sp,sp,288
    5020113a:	00223023          	sd	sp,0(tp) # 0 <_start-0x50201000>
    5020113e:	00823103          	ld	sp,8(tp) # 8 <_start-0x50200ff8>
    50201142:	10200073          	sret
    50201146:	0001                	nop

0000000050201148 <exception_handler_entry>:
    50201148:	00223423          	sd	sp,8(tp) # 8 <_start-0x50200ff8>
    5020114c:	00023103          	ld	sp,0(tp) # 0 <_start-0x50201000>
    50201150:	712d                	addi	sp,sp,-288
    50201152:	f416                	sd	t0,40(sp)
    50201154:	f81a                	sd	t1,48(sp)
    50201156:	fc1e                	sd	t2,56(sp)
    50201158:	e002                	sd	zero,0(sp)
    5020115a:	e406                	sd	ra,8(sp)
    5020115c:	ec0e                	sd	gp,24(sp)
    5020115e:	f012                	sd	tp,32(sp)
    50201160:	e0a2                	sd	s0,64(sp)
    50201162:	e4a6                	sd	s1,72(sp)
    50201164:	e8aa                	sd	a0,80(sp)
    50201166:	ecae                	sd	a1,88(sp)
    50201168:	f0b2                	sd	a2,96(sp)
    5020116a:	f4b6                	sd	a3,104(sp)
    5020116c:	f8ba                	sd	a4,112(sp)
    5020116e:	fcbe                	sd	a5,120(sp)
    50201170:	e142                	sd	a6,128(sp)
    50201172:	e546                	sd	a7,136(sp)
    50201174:	e94a                	sd	s2,144(sp)
    50201176:	ed4e                	sd	s3,152(sp)
    50201178:	f152                	sd	s4,160(sp)
    5020117a:	f556                	sd	s5,168(sp)
    5020117c:	f95a                	sd	s6,176(sp)
    5020117e:	fd5e                	sd	s7,184(sp)
    50201180:	e1e2                	sd	s8,192(sp)
    50201182:	e5e6                	sd	s9,200(sp)
    50201184:	e9ea                	sd	s10,208(sp)
    50201186:	edee                	sd	s11,216(sp)
    50201188:	f1f2                	sd	t3,224(sp)
    5020118a:	f5f6                	sd	t4,232(sp)
    5020118c:	f9fa                	sd	t5,240(sp)
    5020118e:	fdfe                	sd	t6,248(sp)
    50201190:	000462b7          	lui	t0,0x46
    50201194:	10002373          	csrr	t1,sstatus
    50201198:	e21a                	sd	t1,256(sp)
    5020119a:	14102373          	csrr	t1,sepc
    5020119e:	e61a                	sd	t1,264(sp)
    502011a0:	14302373          	csrr	t1,stval
    502011a4:	ea1a                	sd	t1,272(sp)
    502011a6:	14202373          	csrr	t1,scause
    502011aa:	ee1a                	sd	t1,280(sp)
    502011ac:	00000097          	auipc	ra,0x0
    502011b0:	f3408093          	addi	ra,ra,-204 # 502010e0 <ret_from_exception>
    502011b4:	850a                	mv	a0,sp
    502011b6:	143025f3          	csrr	a1,stval
    502011ba:	14202673          	csrr	a2,scause
    502011be:	55a010ef          	jal	50202718 <interrupt_helper>
    502011c2:	bf39                	j	502010e0 <ret_from_exception>
    502011c4:	0001                	nop
	...

00000000502011c8 <get_current_cpu_id>:
    502011c8:	f1402573          	csrr	a0,mhartid
    502011cc:	8082                	ret
	...

00000000502011d0 <setup_exception>:
    502011d0:	00000297          	auipc	t0,0x0
    502011d4:	f7828293          	addi	t0,t0,-136 # 50201148 <exception_handler_entry>
    502011d8:	10529073          	csrw	stvec,t0
    502011dc:	1161                	addi	sp,sp,-8
    502011de:	e006                	sd	ra,0(sp)
    502011e0:	e69ff0ef          	jal	50201048 <enable_interrupt>
    502011e4:	6082                	ld	ra,0(sp)
    502011e6:	0121                	addi	sp,sp,8
    502011e8:	8082                	ret

00000000502011ea <call_jmptab>:
    502011ea:	715d                	addi	sp,sp,-80
    502011ec:	e486                	sd	ra,72(sp)
    502011ee:	e0a2                	sd	s0,64(sp)
    502011f0:	0880                	addi	s0,sp,80
    502011f2:	fca43c23          	sd	a0,-40(s0)
    502011f6:	fcb43823          	sd	a1,-48(s0)
    502011fa:	fcc43423          	sd	a2,-56(s0)
    502011fe:	fcd43023          	sd	a3,-64(s0)
    50201202:	fae43c23          	sd	a4,-72(s0)
    50201206:	faf43823          	sd	a5,-80(s0)
    5020120a:	fd843703          	ld	a4,-40(s0)
    5020120e:	0a4007b7          	lui	a5,0xa400
    50201212:	1781                	addi	a5,a5,-32 # a3fffe0 <_start-0x45e01020>
    50201214:	97ba                	add	a5,a5,a4
    50201216:	078e                	slli	a5,a5,0x3
    50201218:	639c                	ld	a5,0(a5)
    5020121a:	fef43423          	sd	a5,-24(s0)
    5020121e:	fe843783          	ld	a5,-24(s0)
    50201222:	fef43023          	sd	a5,-32(s0)
    50201226:	fe043783          	ld	a5,-32(s0)
    5020122a:	fb043703          	ld	a4,-80(s0)
    5020122e:	fb843683          	ld	a3,-72(s0)
    50201232:	fc043603          	ld	a2,-64(s0)
    50201236:	fc843583          	ld	a1,-56(s0)
    5020123a:	fd043503          	ld	a0,-48(s0)
    5020123e:	9782                	jalr	a5
    50201240:	87aa                	mv	a5,a0
    50201242:	853e                	mv	a0,a5
    50201244:	60a6                	ld	ra,72(sp)
    50201246:	6406                	ld	s0,64(sp)
    50201248:	6161                	addi	sp,sp,80
    5020124a:	8082                	ret

000000005020124c <bios_putstr>:
    5020124c:	1101                	addi	sp,sp,-32
    5020124e:	ec06                	sd	ra,24(sp)
    50201250:	e822                	sd	s0,16(sp)
    50201252:	1000                	addi	s0,sp,32
    50201254:	fea43423          	sd	a0,-24(s0)
    50201258:	fe843583          	ld	a1,-24(s0)
    5020125c:	4781                	li	a5,0
    5020125e:	4701                	li	a4,0
    50201260:	4681                	li	a3,0
    50201262:	4601                	li	a2,0
    50201264:	4501                	li	a0,0
    50201266:	f85ff0ef          	jal	502011ea <call_jmptab>
    5020126a:	0001                	nop
    5020126c:	60e2                	ld	ra,24(sp)
    5020126e:	6442                	ld	s0,16(sp)
    50201270:	6105                	addi	sp,sp,32
    50201272:	8082                	ret

0000000050201274 <bios_putchar>:
    50201274:	1101                	addi	sp,sp,-32
    50201276:	ec06                	sd	ra,24(sp)
    50201278:	e822                	sd	s0,16(sp)
    5020127a:	1000                	addi	s0,sp,32
    5020127c:	87aa                	mv	a5,a0
    5020127e:	fef42623          	sw	a5,-20(s0)
    50201282:	fec42583          	lw	a1,-20(s0)
    50201286:	4781                	li	a5,0
    50201288:	4701                	li	a4,0
    5020128a:	4681                	li	a3,0
    5020128c:	4601                	li	a2,0
    5020128e:	4505                	li	a0,1
    50201290:	f5bff0ef          	jal	502011ea <call_jmptab>
    50201294:	0001                	nop
    50201296:	60e2                	ld	ra,24(sp)
    50201298:	6442                	ld	s0,16(sp)
    5020129a:	6105                	addi	sp,sp,32
    5020129c:	8082                	ret

000000005020129e <bios_getchar>:
    5020129e:	1141                	addi	sp,sp,-16
    502012a0:	e406                	sd	ra,8(sp)
    502012a2:	e022                	sd	s0,0(sp)
    502012a4:	0800                	addi	s0,sp,16
    502012a6:	4781                	li	a5,0
    502012a8:	4701                	li	a4,0
    502012aa:	4681                	li	a3,0
    502012ac:	4601                	li	a2,0
    502012ae:	4581                	li	a1,0
    502012b0:	4509                	li	a0,2
    502012b2:	f39ff0ef          	jal	502011ea <call_jmptab>
    502012b6:	87aa                	mv	a5,a0
    502012b8:	2781                	sext.w	a5,a5
    502012ba:	853e                	mv	a0,a5
    502012bc:	60a2                	ld	ra,8(sp)
    502012be:	6402                	ld	s0,0(sp)
    502012c0:	0141                	addi	sp,sp,16
    502012c2:	8082                	ret

00000000502012c4 <bios_sd_read>:
    502012c4:	1101                	addi	sp,sp,-32
    502012c6:	ec06                	sd	ra,24(sp)
    502012c8:	e822                	sd	s0,16(sp)
    502012ca:	1000                	addi	s0,sp,32
    502012cc:	87aa                	mv	a5,a0
    502012ce:	86ae                	mv	a3,a1
    502012d0:	8732                	mv	a4,a2
    502012d2:	fef42623          	sw	a5,-20(s0)
    502012d6:	87b6                	mv	a5,a3
    502012d8:	fef42423          	sw	a5,-24(s0)
    502012dc:	87ba                	mv	a5,a4
    502012de:	fef42223          	sw	a5,-28(s0)
    502012e2:	fec46583          	lwu	a1,-20(s0)
    502012e6:	fe846603          	lwu	a2,-24(s0)
    502012ea:	fe446683          	lwu	a3,-28(s0)
    502012ee:	4781                	li	a5,0
    502012f0:	4701                	li	a4,0
    502012f2:	450d                	li	a0,3
    502012f4:	ef7ff0ef          	jal	502011ea <call_jmptab>
    502012f8:	87aa                	mv	a5,a0
    502012fa:	2781                	sext.w	a5,a5
    502012fc:	853e                	mv	a0,a5
    502012fe:	60e2                	ld	ra,24(sp)
    50201300:	6442                	ld	s0,16(sp)
    50201302:	6105                	addi	sp,sp,32
    50201304:	8082                	ret

0000000050201306 <bios_sd_write>:
    50201306:	1101                	addi	sp,sp,-32
    50201308:	ec06                	sd	ra,24(sp)
    5020130a:	e822                	sd	s0,16(sp)
    5020130c:	1000                	addi	s0,sp,32
    5020130e:	87aa                	mv	a5,a0
    50201310:	86ae                	mv	a3,a1
    50201312:	8732                	mv	a4,a2
    50201314:	fef42623          	sw	a5,-20(s0)
    50201318:	87b6                	mv	a5,a3
    5020131a:	fef42423          	sw	a5,-24(s0)
    5020131e:	87ba                	mv	a5,a4
    50201320:	fef42223          	sw	a5,-28(s0)
    50201324:	fec46583          	lwu	a1,-20(s0)
    50201328:	fe846603          	lwu	a2,-24(s0)
    5020132c:	fe446683          	lwu	a3,-28(s0)
    50201330:	4781                	li	a5,0
    50201332:	4701                	li	a4,0
    50201334:	4511                	li	a0,4
    50201336:	eb5ff0ef          	jal	502011ea <call_jmptab>
    5020133a:	87aa                	mv	a5,a0
    5020133c:	2781                	sext.w	a5,a5
    5020133e:	853e                	mv	a0,a5
    50201340:	60e2                	ld	ra,24(sp)
    50201342:	6442                	ld	s0,16(sp)
    50201344:	6105                	addi	sp,sp,32
    50201346:	8082                	ret

0000000050201348 <bios_read_fdt>:
    50201348:	1101                	addi	sp,sp,-32
    5020134a:	ec06                	sd	ra,24(sp)
    5020134c:	e822                	sd	s0,16(sp)
    5020134e:	1000                	addi	s0,sp,32
    50201350:	87aa                	mv	a5,a0
    50201352:	fef42623          	sw	a5,-20(s0)
    50201356:	fec46583          	lwu	a1,-20(s0)
    5020135a:	4781                	li	a5,0
    5020135c:	4701                	li	a4,0
    5020135e:	4681                	li	a3,0
    50201360:	4601                	li	a2,0
    50201362:	451d                	li	a0,7
    50201364:	e87ff0ef          	jal	502011ea <call_jmptab>
    50201368:	87aa                	mv	a5,a0
    5020136a:	853e                	mv	a0,a5
    5020136c:	60e2                	ld	ra,24(sp)
    5020136e:	6442                	ld	s0,16(sp)
    50201370:	6105                	addi	sp,sp,32
    50201372:	8082                	ret

0000000050201374 <bss_check>:
    50201374:	1101                	addi	sp,sp,-32
    50201376:	ec06                	sd	ra,24(sp)
    50201378:	e822                	sd	s0,16(sp)
    5020137a:	1000                	addi	s0,sp,32
    5020137c:	fe042623          	sw	zero,-20(s0)
    50201380:	a015                	j	502013a4 <bss_check+0x30>
    50201382:	00005717          	auipc	a4,0x5
    50201386:	47670713          	addi	a4,a4,1142 # 502067f8 <buf>
    5020138a:	fec42783          	lw	a5,-20(s0)
    5020138e:	97ba                	add	a5,a5,a4
    50201390:	0007c783          	lbu	a5,0(a5)
    50201394:	c399                	beqz	a5,5020139a <bss_check+0x26>
    50201396:	4781                	li	a5,0
    50201398:	a839                	j	502013b6 <bss_check+0x42>
    5020139a:	fec42783          	lw	a5,-20(s0)
    5020139e:	2785                	addiw	a5,a5,1
    502013a0:	fef42623          	sw	a5,-20(s0)
    502013a4:	fec42783          	lw	a5,-20(s0)
    502013a8:	0007871b          	sext.w	a4,a5
    502013ac:	03100793          	li	a5,49
    502013b0:	fce7d9e3          	bge	a5,a4,50201382 <bss_check+0xe>
    502013b4:	4785                	li	a5,1
    502013b6:	853e                	mv	a0,a5
    502013b8:	60e2                	ld	ra,24(sp)
    502013ba:	6442                	ld	s0,16(sp)
    502013bc:	6105                	addi	sp,sp,32
    502013be:	8082                	ret

00000000502013c0 <init_jmptab>:
    502013c0:	1101                	addi	sp,sp,-32
    502013c2:	ec06                	sd	ra,24(sp)
    502013c4:	e822                	sd	s0,16(sp)
    502013c6:	1000                	addi	s0,sp,32
    502013c8:	520007b7          	lui	a5,0x52000
    502013cc:	f0078793          	addi	a5,a5,-256 # 51ffff00 <__BSS_END__+0x1df6528>
    502013d0:	fef43423          	sd	a5,-24(s0)
    502013d4:	fe843783          	ld	a5,-24(s0)
    502013d8:	00001717          	auipc	a4,0x1
    502013dc:	c5c70713          	addi	a4,a4,-932 # 50202034 <port_write>
    502013e0:	e398                	sd	a4,0(a5)
    502013e2:	fe843783          	ld	a5,-24(s0)
    502013e6:	07a1                	addi	a5,a5,8
    502013e8:	00001717          	auipc	a4,0x1
    502013ec:	c2270713          	addi	a4,a4,-990 # 5020200a <port_write_ch>
    502013f0:	e398                	sd	a4,0(a5)
    502013f2:	fe843783          	ld	a5,-24(s0)
    502013f6:	07c1                	addi	a5,a5,16
    502013f8:	00001717          	auipc	a4,0x1
    502013fc:	c6470713          	addi	a4,a4,-924 # 5020205c <port_read_ch>
    50201400:	e398                	sd	a4,0(a5)
    50201402:	fe843783          	ld	a5,-24(s0)
    50201406:	07e1                	addi	a5,a5,24
    50201408:	00001717          	auipc	a4,0x1
    5020140c:	c7a70713          	addi	a4,a4,-902 # 50202082 <sd_read>
    50201410:	e398                	sd	a4,0(a5)
    50201412:	fe843783          	ld	a5,-24(s0)
    50201416:	02078793          	addi	a5,a5,32
    5020141a:	00001717          	auipc	a4,0x1
    5020141e:	caa70713          	addi	a4,a4,-854 # 502020c4 <sd_write>
    50201422:	e398                	sd	a4,0(a5)
    50201424:	fe843783          	ld	a5,-24(s0)
    50201428:	02878793          	addi	a5,a5,40
    5020142c:	00001717          	auipc	a4,0x1
    50201430:	d2e70713          	addi	a4,a4,-722 # 5020215a <qemu_logging>
    50201434:	e398                	sd	a4,0(a5)
    50201436:	fe843783          	ld	a5,-24(s0)
    5020143a:	03078793          	addi	a5,a5,48
    5020143e:	00001717          	auipc	a4,0x1
    50201442:	cc870713          	addi	a4,a4,-824 # 50202106 <set_timer>
    50201446:	e398                	sd	a4,0(a5)
    50201448:	fe843783          	ld	a5,-24(s0)
    5020144c:	03878793          	addi	a5,a5,56
    50201450:	00001717          	auipc	a4,0x1
    50201454:	cde70713          	addi	a4,a4,-802 # 5020212e <read_fdt>
    50201458:	e398                	sd	a4,0(a5)
    5020145a:	fe843783          	ld	a5,-24(s0)
    5020145e:	04078793          	addi	a5,a5,64
    50201462:	00001717          	auipc	a4,0x1
    50201466:	02470713          	addi	a4,a4,36 # 50202486 <screen_move_cursor>
    5020146a:	e398                	sd	a4,0(a5)
    5020146c:	fe843783          	ld	a5,-24(s0)
    50201470:	05878793          	addi	a5,a5,88
    50201474:	00003717          	auipc	a4,0x3
    50201478:	37270713          	addi	a4,a4,882 # 502047e6 <printk>
    5020147c:	e398                	sd	a4,0(a5)
    5020147e:	fe843783          	ld	a5,-24(s0)
    50201482:	06078793          	addi	a5,a5,96
    50201486:	00002717          	auipc	a4,0x2
    5020148a:	dd070713          	addi	a4,a4,-560 # 50203256 <do_scheduler>
    5020148e:	e398                	sd	a4,0(a5)
    50201490:	fe843783          	ld	a5,-24(s0)
    50201494:	06878793          	addi	a5,a5,104
    50201498:	00002717          	auipc	a4,0x2
    5020149c:	9dc70713          	addi	a4,a4,-1572 # 50202e74 <do_mutex_lock_init>
    502014a0:	e398                	sd	a4,0(a5)
    502014a2:	fe843783          	ld	a5,-24(s0)
    502014a6:	07078793          	addi	a5,a5,112
    502014aa:	00002717          	auipc	a4,0x2
    502014ae:	b0270713          	addi	a4,a4,-1278 # 50202fac <do_mutex_lock_acquire>
    502014b2:	e398                	sd	a4,0(a5)
    502014b4:	fe843783          	ld	a5,-24(s0)
    502014b8:	07878793          	addi	a5,a5,120
    502014bc:	00002717          	auipc	a4,0x2
    502014c0:	b7070713          	addi	a4,a4,-1168 # 5020302c <do_mutex_lock_release>
    502014c4:	e398                	sd	a4,0(a5)
    502014c6:	fe843783          	ld	a5,-24(s0)
    502014ca:	04878793          	addi	a5,a5,72
    502014ce:	00001717          	auipc	a4,0x1
    502014d2:	05070713          	addi	a4,a4,80 # 5020251e <screen_write>
    502014d6:	e398                	sd	a4,0(a5)
    502014d8:	fe843783          	ld	a5,-24(s0)
    502014dc:	05078793          	addi	a5,a5,80
    502014e0:	00001717          	auipc	a4,0x1
    502014e4:	09e70713          	addi	a4,a4,158 # 5020257e <screen_reflush>
    502014e8:	e398                	sd	a4,0(a5)
    502014ea:	0001                	nop
    502014ec:	60e2                	ld	ra,24(sp)
    502014ee:	6442                	ld	s0,16(sp)
    502014f0:	6105                	addi	sp,sp,32
    502014f2:	8082                	ret

00000000502014f4 <init_task_info>:
    502014f4:	1101                	addi	sp,sp,-32
    502014f6:	ec06                	sd	ra,24(sp)
    502014f8:	e822                	sd	s0,16(sp)
    502014fa:	1000                	addi	s0,sp,32
    502014fc:	502007b7          	lui	a5,0x50200
    50201500:	1fe78793          	addi	a5,a5,510 # 502001fe <_start-0xe02>
    50201504:	00079783          	lh	a5,0(a5)
    50201508:	873e                	mv	a4,a5
    5020150a:	00005797          	auipc	a5,0x5
    5020150e:	2d678793          	addi	a5,a5,726 # 502067e0 <tasknum>
    50201512:	c398                	sw	a4,0(a5)
    50201514:	502007b7          	lui	a5,0x50200
    50201518:	1f878793          	addi	a5,a5,504 # 502001f8 <_start-0xe08>
    5020151c:	439c                	lw	a5,0(a5)
    5020151e:	fef42623          	sw	a5,-20(s0)
    50201522:	00005797          	auipc	a5,0x5
    50201526:	2be78793          	addi	a5,a5,702 # 502067e0 <tasknum>
    5020152a:	439c                	lw	a5,0(a5)
    5020152c:	873e                	mv	a4,a5
    5020152e:	87ba                	mv	a5,a4
    50201530:	078a                	slli	a5,a5,0x2
    50201532:	97ba                	add	a5,a5,a4
    50201534:	078e                	slli	a5,a5,0x3
    50201536:	83a5                	srli	a5,a5,0x9
    50201538:	0007871b          	sext.w	a4,a5
    5020153c:	00005797          	auipc	a5,0x5
    50201540:	2a478793          	addi	a5,a5,676 # 502067e0 <tasknum>
    50201544:	439c                	lw	a5,0(a5)
    50201546:	86be                	mv	a3,a5
    50201548:	87b6                	mv	a5,a3
    5020154a:	078a                	slli	a5,a5,0x2
    5020154c:	97b6                	add	a5,a5,a3
    5020154e:	078e                	slli	a5,a5,0x3
    50201550:	1f87f793          	andi	a5,a5,504
    50201554:	00f037b3          	snez	a5,a5
    50201558:	0ff7f793          	zext.b	a5,a5
    5020155c:	2781                	sext.w	a5,a5
    5020155e:	9fb9                	addw	a5,a5,a4
    50201560:	fef42423          	sw	a5,-24(s0)
    50201564:	00005797          	auipc	a5,0x5
    50201568:	2cc78793          	addi	a5,a5,716 # 50206830 <tasks>
    5020156c:	2781                	sext.w	a5,a5
    5020156e:	fec42683          	lw	a3,-20(s0)
    50201572:	fe842703          	lw	a4,-24(s0)
    50201576:	8636                	mv	a2,a3
    50201578:	85ba                	mv	a1,a4
    5020157a:	853e                	mv	a0,a5
    5020157c:	d49ff0ef          	jal	502012c4 <bios_sd_read>
    50201580:	0001                	nop
    50201582:	60e2                	ld	ra,24(sp)
    50201584:	6442                	ld	s0,16(sp)
    50201586:	6105                	addi	sp,sp,32
    50201588:	8082                	ret

000000005020158a <load_batchfiles>:
    5020158a:	7179                	addi	sp,sp,-48
    5020158c:	f406                	sd	ra,40(sp)
    5020158e:	f022                	sd	s0,32(sp)
    50201590:	1800                	addi	s0,sp,48
    50201592:	502007b7          	lui	a5,0x50200
    50201596:	1f478793          	addi	a5,a5,500 # 502001f4 <_start-0xe0c>
    5020159a:	439c                	lw	a5,0(a5)
    5020159c:	fef42623          	sw	a5,-20(s0)
    502015a0:	fe042223          	sw	zero,-28(s0)
    502015a4:	00005797          	auipc	a5,0x5
    502015a8:	50c78793          	addi	a5,a5,1292 # 50206ab0 <batchfiles>
    502015ac:	0007a023          	sw	zero,0(a5)
    502015b0:	0001                	nop
    502015b2:	cedff0ef          	jal	5020129e <bios_getchar>
    502015b6:	87aa                	mv	a5,a0
    502015b8:	fef42423          	sw	a5,-24(s0)
    502015bc:	fe842783          	lw	a5,-24(s0)
    502015c0:	0007871b          	sext.w	a4,a5
    502015c4:	57fd                	li	a5,-1
    502015c6:	fef706e3          	beq	a4,a5,502015b2 <load_batchfiles+0x28>
    502015ca:	fe842783          	lw	a5,-24(s0)
    502015ce:	0007871b          	sext.w	a4,a5
    502015d2:	47b5                	li	a5,13
    502015d4:	00f70963          	beq	a4,a5,502015e6 <load_batchfiles+0x5c>
    502015d8:	fe842783          	lw	a5,-24(s0)
    502015dc:	0007871b          	sext.w	a4,a5
    502015e0:	47a9                	li	a5,10
    502015e2:	08f71463          	bne	a4,a5,5020166a <load_batchfiles+0xe0>
    502015e6:	fe442783          	lw	a5,-28(s0)
    502015ea:	c7b1                	beqz	a5,50201636 <load_batchfiles+0xac>
    502015ec:	fe442783          	lw	a5,-28(s0)
    502015f0:	17c1                	addi	a5,a5,-16
    502015f2:	97a2                	add	a5,a5,s0
    502015f4:	fe078023          	sb	zero,-32(a5)
    502015f8:	00005797          	auipc	a5,0x5
    502015fc:	4b878793          	addi	a5,a5,1208 # 50206ab0 <batchfiles>
    50201600:	439c                	lw	a5,0(a5)
    50201602:	0017871b          	addiw	a4,a5,1
    50201606:	0007069b          	sext.w	a3,a4
    5020160a:	00005717          	auipc	a4,0x5
    5020160e:	4a670713          	addi	a4,a4,1190 # 50206ab0 <batchfiles>
    50201612:	c314                	sw	a3,0(a4)
    50201614:	00479713          	slli	a4,a5,0x4
    50201618:	00005797          	auipc	a5,0x5
    5020161c:	49878793          	addi	a5,a5,1176 # 50206ab0 <batchfiles>
    50201620:	97ba                	add	a5,a5,a4
    50201622:	0791                	addi	a5,a5,4
    50201624:	fd040713          	addi	a4,s0,-48
    50201628:	85ba                	mv	a1,a4
    5020162a:	853e                	mv	a0,a5
    5020162c:	516030ef          	jal	50204b42 <strcpy>
    50201630:	fe042223          	sw	zero,-28(s0)
    50201634:	a039                	j	50201642 <load_batchfiles+0xb8>
    50201636:	00003517          	auipc	a0,0x3
    5020163a:	66250513          	addi	a0,a0,1634 # 50204c98 <strcat+0x72>
    5020163e:	c0fff0ef          	jal	5020124c <bios_putstr>
    50201642:	00003517          	auipc	a0,0x3
    50201646:	67e50513          	addi	a0,a0,1662 # 50204cc0 <strcat+0x9a>
    5020164a:	c03ff0ef          	jal	5020124c <bios_putstr>
    5020164e:	0001                	nop
    50201650:	00005797          	auipc	a5,0x5
    50201654:	46078793          	addi	a5,a5,1120 # 50206ab0 <batchfiles>
    50201658:	2781                	sext.w	a5,a5
    5020165a:	fec42703          	lw	a4,-20(s0)
    5020165e:	863a                	mv	a2,a4
    50201660:	4585                	li	a1,1
    50201662:	853e                	mv	a0,a5
    50201664:	ca3ff0ef          	jal	50201306 <bios_sd_write>
    50201668:	a231                	j	50201774 <load_batchfiles+0x1ea>
    5020166a:	fe842783          	lw	a5,-24(s0)
    5020166e:	0007871b          	sext.w	a4,a5
    50201672:	47a1                	li	a5,8
    50201674:	00f70a63          	beq	a4,a5,50201688 <load_batchfiles+0xfe>
    50201678:	fe842783          	lw	a5,-24(s0)
    5020167c:	0007871b          	sext.w	a4,a5
    50201680:	07f00793          	li	a5,127
    50201684:	00f71863          	bne	a4,a5,50201694 <load_batchfiles+0x10a>
    50201688:	fe440793          	addi	a5,s0,-28
    5020168c:	853e                	mv	a0,a5
    5020168e:	30c000ef          	jal	5020199a <Backspace>
    50201692:	a0c5                	j	50201772 <load_batchfiles+0x1e8>
    50201694:	fe842783          	lw	a5,-24(s0)
    50201698:	853e                	mv	a0,a5
    5020169a:	bdbff0ef          	jal	50201274 <bios_putchar>
    5020169e:	fe842783          	lw	a5,-24(s0)
    502016a2:	0007871b          	sext.w	a4,a5
    502016a6:	02000793          	li	a5,32
    502016aa:	06f71f63          	bne	a4,a5,50201728 <load_batchfiles+0x19e>
    502016ae:	fe442783          	lw	a5,-28(s0)
    502016b2:	cfdd                	beqz	a5,50201770 <load_batchfiles+0x1e6>
    502016b4:	fe442783          	lw	a5,-28(s0)
    502016b8:	17c1                	addi	a5,a5,-16
    502016ba:	97a2                	add	a5,a5,s0
    502016bc:	fe078023          	sb	zero,-32(a5)
    502016c0:	00005797          	auipc	a5,0x5
    502016c4:	3f078793          	addi	a5,a5,1008 # 50206ab0 <batchfiles>
    502016c8:	4398                	lw	a4,0(a5)
    502016ca:	47bd                	li	a5,15
    502016cc:	00e7df63          	bge	a5,a4,502016ea <load_batchfiles+0x160>
    502016d0:	00003517          	auipc	a0,0x3
    502016d4:	5f850513          	addi	a0,a0,1528 # 50204cc8 <strcat+0xa2>
    502016d8:	b75ff0ef          	jal	5020124c <bios_putstr>
    502016dc:	00005797          	auipc	a5,0x5
    502016e0:	3d478793          	addi	a5,a5,980 # 50206ab0 <batchfiles>
    502016e4:	0007a023          	sw	zero,0(a5)
    502016e8:	a071                	j	50201774 <load_batchfiles+0x1ea>
    502016ea:	00005797          	auipc	a5,0x5
    502016ee:	3c678793          	addi	a5,a5,966 # 50206ab0 <batchfiles>
    502016f2:	439c                	lw	a5,0(a5)
    502016f4:	0017871b          	addiw	a4,a5,1
    502016f8:	0007069b          	sext.w	a3,a4
    502016fc:	00005717          	auipc	a4,0x5
    50201700:	3b470713          	addi	a4,a4,948 # 50206ab0 <batchfiles>
    50201704:	c314                	sw	a3,0(a4)
    50201706:	00479713          	slli	a4,a5,0x4
    5020170a:	00005797          	auipc	a5,0x5
    5020170e:	3a678793          	addi	a5,a5,934 # 50206ab0 <batchfiles>
    50201712:	97ba                	add	a5,a5,a4
    50201714:	0791                	addi	a5,a5,4
    50201716:	fd040713          	addi	a4,s0,-48
    5020171a:	85ba                	mv	a1,a4
    5020171c:	853e                	mv	a0,a5
    5020171e:	424030ef          	jal	50204b42 <strcpy>
    50201722:	fe042223          	sw	zero,-28(s0)
    50201726:	b569                	j	502015b0 <load_batchfiles+0x26>
    50201728:	fe442703          	lw	a4,-28(s0)
    5020172c:	47bd                	li	a5,15
    5020172e:	02e7d163          	bge	a5,a4,50201750 <load_batchfiles+0x1c6>
    50201732:	00003517          	auipc	a0,0x3
    50201736:	58e50513          	addi	a0,a0,1422 # 50204cc0 <strcat+0x9a>
    5020173a:	b13ff0ef          	jal	5020124c <bios_putstr>
    5020173e:	00003517          	auipc	a0,0x3
    50201742:	5b250513          	addi	a0,a0,1458 # 50204cf0 <strcat+0xca>
    50201746:	b07ff0ef          	jal	5020124c <bios_putstr>
    5020174a:	fe042223          	sw	zero,-28(s0)
    5020174e:	b58d                	j	502015b0 <load_batchfiles+0x26>
    50201750:	fe442783          	lw	a5,-28(s0)
    50201754:	0017871b          	addiw	a4,a5,1
    50201758:	2701                	sext.w	a4,a4
    5020175a:	fee42223          	sw	a4,-28(s0)
    5020175e:	fe842703          	lw	a4,-24(s0)
    50201762:	0ff77713          	zext.b	a4,a4
    50201766:	17c1                	addi	a5,a5,-16
    50201768:	97a2                	add	a5,a5,s0
    5020176a:	fee78023          	sb	a4,-32(a5)
    5020176e:	b589                	j	502015b0 <load_batchfiles+0x26>
    50201770:	0001                	nop
    50201772:	bd3d                	j	502015b0 <load_batchfiles+0x26>
    50201774:	70a2                	ld	ra,40(sp)
    50201776:	7402                	ld	s0,32(sp)
    50201778:	6145                	addi	sp,sp,48
    5020177a:	8082                	ret

000000005020177c <read_batchfiles>:
    5020177c:	1101                	addi	sp,sp,-32
    5020177e:	ec06                	sd	ra,24(sp)
    50201780:	e822                	sd	s0,16(sp)
    50201782:	1000                	addi	s0,sp,32
    50201784:	502007b7          	lui	a5,0x50200
    50201788:	1f478793          	addi	a5,a5,500 # 502001f4 <_start-0xe0c>
    5020178c:	439c                	lw	a5,0(a5)
    5020178e:	fef42623          	sw	a5,-20(s0)
    50201792:	fec42783          	lw	a5,-20(s0)
    50201796:	863e                	mv	a2,a5
    50201798:	4585                	li	a1,1
    5020179a:	59000537          	lui	a0,0x59000
    5020179e:	b27ff0ef          	jal	502012c4 <bios_sd_read>
    502017a2:	10400613          	li	a2,260
    502017a6:	590005b7          	lui	a1,0x59000
    502017aa:	00005517          	auipc	a0,0x5
    502017ae:	30650513          	addi	a0,a0,774 # 50206ab0 <batchfiles>
    502017b2:	14c030ef          	jal	502048fe <memcpy>
    502017b6:	0001                	nop
    502017b8:	60e2                	ld	ra,24(sp)
    502017ba:	6442                	ld	s0,16(sp)
    502017bc:	6105                	addi	sp,sp,32
    502017be:	8082                	ret

00000000502017c0 <excute_batchfiles>:
    502017c0:	7179                	addi	sp,sp,-48
    502017c2:	f406                	sd	ra,40(sp)
    502017c4:	f022                	sd	s0,32(sp)
    502017c6:	1800                	addi	s0,sp,48
    502017c8:	fca43c23          	sd	a0,-40(s0)
    502017cc:	87ae                	mv	a5,a1
    502017ce:	fcf42a23          	sw	a5,-44(s0)
    502017d2:	fd442783          	lw	a5,-44(s0)
    502017d6:	2781                	sext.w	a5,a5
    502017d8:	eb81                	bnez	a5,502017e8 <excute_batchfiles+0x28>
    502017da:	00003517          	auipc	a0,0x3
    502017de:	53650513          	addi	a0,a0,1334 # 50204d10 <strcat+0xea>
    502017e2:	a6bff0ef          	jal	5020124c <bios_putstr>
    502017e6:	a275                	j	50201992 <excute_batchfiles+0x1d2>
    502017e8:	f95ff0ef          	jal	5020177c <read_batchfiles>
    502017ec:	fe042623          	sw	zero,-20(s0)
    502017f0:	00003517          	auipc	a0,0x3
    502017f4:	54050513          	addi	a0,a0,1344 # 50204d30 <strcat+0x10a>
    502017f8:	a55ff0ef          	jal	5020124c <bios_putstr>
    502017fc:	0001                	nop
    502017fe:	aa1ff0ef          	jal	5020129e <bios_getchar>
    50201802:	87aa                	mv	a5,a0
    50201804:	fef42223          	sw	a5,-28(s0)
    50201808:	fe442783          	lw	a5,-28(s0)
    5020180c:	0007871b          	sext.w	a4,a5
    50201810:	57fd                	li	a5,-1
    50201812:	fef706e3          	beq	a4,a5,502017fe <excute_batchfiles+0x3e>
    50201816:	fe442783          	lw	a5,-28(s0)
    5020181a:	0007871b          	sext.w	a4,a5
    5020181e:	47a9                	li	a5,10
    50201820:	00f70963          	beq	a4,a5,50201832 <excute_batchfiles+0x72>
    50201824:	fe442783          	lw	a5,-28(s0)
    50201828:	0007871b          	sext.w	a4,a5
    5020182c:	47b5                	li	a5,13
    5020182e:	02f71163          	bne	a4,a5,50201850 <excute_batchfiles+0x90>
    50201832:	00003517          	auipc	a0,0x3
    50201836:	48e50513          	addi	a0,a0,1166 # 50204cc0 <strcat+0x9a>
    5020183a:	a13ff0ef          	jal	5020124c <bios_putstr>
    5020183e:	0001                	nop
    50201840:	591007b7          	lui	a5,0x59100
    50201844:	fec42703          	lw	a4,-20(s0)
    50201848:	c398                	sw	a4,0(a5)
    5020184a:	fe042423          	sw	zero,-24(s0)
    5020184e:	aa05                	j	5020197e <excute_batchfiles+0x1be>
    50201850:	fe442783          	lw	a5,-28(s0)
    50201854:	0007871b          	sext.w	a4,a5
    50201858:	47a1                	li	a5,8
    5020185a:	00f70a63          	beq	a4,a5,5020186e <excute_batchfiles+0xae>
    5020185e:	fe442783          	lw	a5,-28(s0)
    50201862:	0007871b          	sext.w	a4,a5
    50201866:	07f00793          	li	a5,127
    5020186a:	04f71363          	bne	a4,a5,502018b0 <excute_batchfiles+0xf0>
    5020186e:	fec42783          	lw	a5,-20(s0)
    50201872:	2781                	sext.w	a5,a5
    50201874:	0af05263          	blez	a5,50201918 <excute_batchfiles+0x158>
    50201878:	fec42783          	lw	a5,-20(s0)
    5020187c:	86be                	mv	a3,a5
    5020187e:	0006871b          	sext.w	a4,a3
    50201882:	666667b7          	lui	a5,0x66666
    50201886:	66778793          	addi	a5,a5,1639 # 66666667 <__BSS_END__+0x1645cc8f>
    5020188a:	02f707b3          	mul	a5,a4,a5
    5020188e:	9381                	srli	a5,a5,0x20
    50201890:	4027d79b          	sraiw	a5,a5,0x2
    50201894:	873e                	mv	a4,a5
    50201896:	41f6d79b          	sraiw	a5,a3,0x1f
    5020189a:	40f707bb          	subw	a5,a4,a5
    5020189e:	fef42623          	sw	a5,-20(s0)
    502018a2:	00003517          	auipc	a0,0x3
    502018a6:	4be50513          	addi	a0,a0,1214 # 50204d60 <strcat+0x13a>
    502018aa:	9a3ff0ef          	jal	5020124c <bios_putstr>
    502018ae:	a0ad                	j	50201918 <excute_batchfiles+0x158>
    502018b0:	fe442783          	lw	a5,-28(s0)
    502018b4:	853e                	mv	a0,a5
    502018b6:	9bfff0ef          	jal	50201274 <bios_putchar>
    502018ba:	fe442783          	lw	a5,-28(s0)
    502018be:	0007871b          	sext.w	a4,a5
    502018c2:	02f00793          	li	a5,47
    502018c6:	04e7d063          	bge	a5,a4,50201906 <excute_batchfiles+0x146>
    502018ca:	fe442783          	lw	a5,-28(s0)
    502018ce:	0007871b          	sext.w	a4,a5
    502018d2:	03900793          	li	a5,57
    502018d6:	02e7c863          	blt	a5,a4,50201906 <excute_batchfiles+0x146>
    502018da:	fec42783          	lw	a5,-20(s0)
    502018de:	873e                	mv	a4,a5
    502018e0:	87ba                	mv	a5,a4
    502018e2:	0027979b          	slliw	a5,a5,0x2
    502018e6:	9fb9                	addw	a5,a5,a4
    502018e8:	0017979b          	slliw	a5,a5,0x1
    502018ec:	fef42623          	sw	a5,-20(s0)
    502018f0:	fe442783          	lw	a5,-28(s0)
    502018f4:	fd07879b          	addiw	a5,a5,-48
    502018f8:	2781                	sext.w	a5,a5
    502018fa:	fec42703          	lw	a4,-20(s0)
    502018fe:	9fb9                	addw	a5,a5,a4
    50201900:	fef42623          	sw	a5,-20(s0)
    50201904:	a819                	j	5020191a <excute_batchfiles+0x15a>
    50201906:	00003517          	auipc	a0,0x3
    5020190a:	46250513          	addi	a0,a0,1122 # 50204d68 <strcat+0x142>
    5020190e:	93fff0ef          	jal	5020124c <bios_putstr>
    50201912:	fe042623          	sw	zero,-20(s0)
    50201916:	a011                	j	5020191a <excute_batchfiles+0x15a>
    50201918:	0001                	nop
    5020191a:	b5cd                	j	502017fc <excute_batchfiles+0x3c>
    5020191c:	00003517          	auipc	a0,0x3
    50201920:	47450513          	addi	a0,a0,1140 # 50204d90 <strcat+0x16a>
    50201924:	929ff0ef          	jal	5020124c <bios_putstr>
    50201928:	fe842783          	lw	a5,-24(s0)
    5020192c:	00479713          	slli	a4,a5,0x4
    50201930:	00005797          	auipc	a5,0x5
    50201934:	18078793          	addi	a5,a5,384 # 50206ab0 <batchfiles>
    50201938:	97ba                	add	a5,a5,a4
    5020193a:	0791                	addi	a5,a5,4
    5020193c:	853e                	mv	a0,a5
    5020193e:	90fff0ef          	jal	5020124c <bios_putstr>
    50201942:	00003517          	auipc	a0,0x3
    50201946:	37e50513          	addi	a0,a0,894 # 50204cc0 <strcat+0x9a>
    5020194a:	903ff0ef          	jal	5020124c <bios_putstr>
    5020194e:	fe842783          	lw	a5,-24(s0)
    50201952:	00479713          	slli	a4,a5,0x4
    50201956:	00005797          	auipc	a5,0x5
    5020195a:	15a78793          	addi	a5,a5,346 # 50206ab0 <batchfiles>
    5020195e:	97ba                	add	a5,a5,a4
    50201960:	0791                	addi	a5,a5,4
    50201962:	fd442703          	lw	a4,-44(s0)
    50201966:	4685                	li	a3,1
    50201968:	863a                	mv	a2,a4
    5020196a:	fd843583          	ld	a1,-40(s0)
    5020196e:	853e                	mv	a0,a5
    50201970:	2d8010ef          	jal	50202c48 <excute_by_name>
    50201974:	fe842783          	lw	a5,-24(s0)
    50201978:	2785                	addiw	a5,a5,1
    5020197a:	fef42423          	sw	a5,-24(s0)
    5020197e:	00005797          	auipc	a5,0x5
    50201982:	13278793          	addi	a5,a5,306 # 50206ab0 <batchfiles>
    50201986:	439c                	lw	a5,0(a5)
    50201988:	fe842703          	lw	a4,-24(s0)
    5020198c:	2701                	sext.w	a4,a4
    5020198e:	f8f747e3          	blt	a4,a5,5020191c <excute_batchfiles+0x15c>
    50201992:	70a2                	ld	ra,40(sp)
    50201994:	7402                	ld	s0,32(sp)
    50201996:	6145                	addi	sp,sp,48
    50201998:	8082                	ret

000000005020199a <Backspace>:
    5020199a:	1101                	addi	sp,sp,-32
    5020199c:	ec06                	sd	ra,24(sp)
    5020199e:	e822                	sd	s0,16(sp)
    502019a0:	1000                	addi	s0,sp,32
    502019a2:	fea43423          	sd	a0,-24(s0)
    502019a6:	fe843783          	ld	a5,-24(s0)
    502019aa:	439c                	lw	a5,0(a5)
    502019ac:	02f05163          	blez	a5,502019ce <Backspace+0x34>
    502019b0:	fe843783          	ld	a5,-24(s0)
    502019b4:	439c                	lw	a5,0(a5)
    502019b6:	37fd                	addiw	a5,a5,-1
    502019b8:	0007871b          	sext.w	a4,a5
    502019bc:	fe843783          	ld	a5,-24(s0)
    502019c0:	c398                	sw	a4,0(a5)
    502019c2:	00003517          	auipc	a0,0x3
    502019c6:	39e50513          	addi	a0,a0,926 # 50204d60 <strcat+0x13a>
    502019ca:	883ff0ef          	jal	5020124c <bios_putstr>
    502019ce:	0001                	nop
    502019d0:	60e2                	ld	ra,24(sp)
    502019d2:	6442                	ld	s0,16(sp)
    502019d4:	6105                	addi	sp,sp,32
    502019d6:	8082                	ret

00000000502019d8 <list_files>:
    502019d8:	1101                	addi	sp,sp,-32
    502019da:	ec06                	sd	ra,24(sp)
    502019dc:	e822                	sd	s0,16(sp)
    502019de:	1000                	addi	s0,sp,32
    502019e0:	00003517          	auipc	a0,0x3
    502019e4:	3c850513          	addi	a0,a0,968 # 50204da8 <strcat+0x182>
    502019e8:	865ff0ef          	jal	5020124c <bios_putstr>
    502019ec:	00005797          	auipc	a5,0x5
    502019f0:	df478793          	addi	a5,a5,-524 # 502067e0 <tasknum>
    502019f4:	439c                	lw	a5,0(a5)
    502019f6:	eb81                	bnez	a5,50201a06 <list_files+0x2e>
    502019f8:	00003517          	auipc	a0,0x3
    502019fc:	3c850513          	addi	a0,a0,968 # 50204dc0 <strcat+0x19a>
    50201a00:	84dff0ef          	jal	5020124c <bios_putstr>
    50201a04:	a891                	j	50201a58 <list_files+0x80>
    50201a06:	fe042623          	sw	zero,-20(s0)
    50201a0a:	a82d                	j	50201a44 <list_files+0x6c>
    50201a0c:	fec42703          	lw	a4,-20(s0)
    50201a10:	87ba                	mv	a5,a4
    50201a12:	078a                	slli	a5,a5,0x2
    50201a14:	97ba                	add	a5,a5,a4
    50201a16:	078e                	slli	a5,a5,0x3
    50201a18:	01078713          	addi	a4,a5,16
    50201a1c:	00005797          	auipc	a5,0x5
    50201a20:	e1478793          	addi	a5,a5,-492 # 50206830 <tasks>
    50201a24:	97ba                	add	a5,a5,a4
    50201a26:	0791                	addi	a5,a5,4
    50201a28:	853e                	mv	a0,a5
    50201a2a:	823ff0ef          	jal	5020124c <bios_putstr>
    50201a2e:	00003517          	auipc	a0,0x3
    50201a32:	29250513          	addi	a0,a0,658 # 50204cc0 <strcat+0x9a>
    50201a36:	817ff0ef          	jal	5020124c <bios_putstr>
    50201a3a:	fec42783          	lw	a5,-20(s0)
    50201a3e:	2785                	addiw	a5,a5,1
    50201a40:	fef42623          	sw	a5,-20(s0)
    50201a44:	00005797          	auipc	a5,0x5
    50201a48:	d9c78793          	addi	a5,a5,-612 # 502067e0 <tasknum>
    50201a4c:	439c                	lw	a5,0(a5)
    50201a4e:	fec42703          	lw	a4,-20(s0)
    50201a52:	2701                	sext.w	a4,a4
    50201a54:	faf74ce3          	blt	a4,a5,50201a0c <list_files+0x34>
    50201a58:	00003517          	auipc	a0,0x3
    50201a5c:	37850513          	addi	a0,a0,888 # 50204dd0 <strcat+0x1aa>
    50201a60:	fecff0ef          	jal	5020124c <bios_putstr>
    50201a64:	00005797          	auipc	a5,0x5
    50201a68:	04c78793          	addi	a5,a5,76 # 50206ab0 <batchfiles>
    50201a6c:	439c                	lw	a5,0(a5)
    50201a6e:	eb81                	bnez	a5,50201a7e <list_files+0xa6>
    50201a70:	00003517          	auipc	a0,0x3
    50201a74:	2a050513          	addi	a0,a0,672 # 50204d10 <strcat+0xea>
    50201a78:	fd4ff0ef          	jal	5020124c <bios_putstr>
    50201a7c:	a0b1                	j	50201ac8 <list_files+0xf0>
    50201a7e:	fe042423          	sw	zero,-24(s0)
    50201a82:	a80d                	j	50201ab4 <list_files+0xdc>
    50201a84:	fe842783          	lw	a5,-24(s0)
    50201a88:	00479713          	slli	a4,a5,0x4
    50201a8c:	00005797          	auipc	a5,0x5
    50201a90:	02478793          	addi	a5,a5,36 # 50206ab0 <batchfiles>
    50201a94:	97ba                	add	a5,a5,a4
    50201a96:	0791                	addi	a5,a5,4
    50201a98:	853e                	mv	a0,a5
    50201a9a:	fb2ff0ef          	jal	5020124c <bios_putstr>
    50201a9e:	00003517          	auipc	a0,0x3
    50201aa2:	22250513          	addi	a0,a0,546 # 50204cc0 <strcat+0x9a>
    50201aa6:	fa6ff0ef          	jal	5020124c <bios_putstr>
    50201aaa:	fe842783          	lw	a5,-24(s0)
    50201aae:	2785                	addiw	a5,a5,1
    50201ab0:	fef42423          	sw	a5,-24(s0)
    50201ab4:	00005797          	auipc	a5,0x5
    50201ab8:	ffc78793          	addi	a5,a5,-4 # 50206ab0 <batchfiles>
    50201abc:	439c                	lw	a5,0(a5)
    50201abe:	fe842703          	lw	a4,-24(s0)
    50201ac2:	2701                	sext.w	a4,a4
    50201ac4:	fcf740e3          	blt	a4,a5,50201a84 <list_files+0xac>
    50201ac8:	00003517          	auipc	a0,0x3
    50201acc:	1f850513          	addi	a0,a0,504 # 50204cc0 <strcat+0x9a>
    50201ad0:	f7cff0ef          	jal	5020124c <bios_putstr>
    50201ad4:	0001                	nop
    50201ad6:	60e2                	ld	ra,24(sp)
    50201ad8:	6442                	ld	s0,16(sp)
    50201ada:	6105                	addi	sp,sp,32
    50201adc:	8082                	ret

0000000050201ade <init_pcb_stack>:
    50201ade:	7139                	addi	sp,sp,-64
    50201ae0:	fc06                	sd	ra,56(sp)
    50201ae2:	f822                	sd	s0,48(sp)
    50201ae4:	0080                	addi	s0,sp,64
    50201ae6:	fca43c23          	sd	a0,-40(s0)
    50201aea:	fcb43823          	sd	a1,-48(s0)
    50201aee:	fcc43423          	sd	a2,-56(s0)
    50201af2:	fcd43023          	sd	a3,-64(s0)
    50201af6:	fd843783          	ld	a5,-40(s0)
    50201afa:	ee078793          	addi	a5,a5,-288
    50201afe:	fef43423          	sd	a5,-24(s0)
    50201b02:	12000613          	li	a2,288
    50201b06:	4581                	li	a1,0
    50201b08:	fe843503          	ld	a0,-24(s0)
    50201b0c:	649020ef          	jal	50204954 <memset>
    50201b10:	fe843783          	ld	a5,-24(s0)
    50201b14:	fc843703          	ld	a4,-56(s0)
    50201b18:	10e7b423          	sd	a4,264(a5)
    50201b1c:	fe843783          	ld	a5,-24(s0)
    50201b20:	02000713          	li	a4,32
    50201b24:	10e7b023          	sd	a4,256(a5)
    50201b28:	fe843783          	ld	a5,-24(s0)
    50201b2c:	fd043703          	ld	a4,-48(s0)
    50201b30:	eb98                	sd	a4,16(a5)
    50201b32:	fc043703          	ld	a4,-64(s0)
    50201b36:	fe843783          	ld	a5,-24(s0)
    50201b3a:	f398                	sd	a4,32(a5)
    50201b3c:	fe843783          	ld	a5,-24(s0)
    50201b40:	f9078793          	addi	a5,a5,-112
    50201b44:	fef43023          	sd	a5,-32(s0)
    50201b48:	fe043703          	ld	a4,-32(s0)
    50201b4c:	fc043783          	ld	a5,-64(s0)
    50201b50:	e398                	sd	a4,0(a5)
    50201b52:	fc043783          	ld	a5,-64(s0)
    50201b56:	fd043703          	ld	a4,-48(s0)
    50201b5a:	e798                	sd	a4,8(a5)
    50201b5c:	fffff717          	auipc	a4,0xfffff
    50201b60:	58470713          	addi	a4,a4,1412 # 502010e0 <ret_from_exception>
    50201b64:	fe043783          	ld	a5,-32(s0)
    50201b68:	e398                	sd	a4,0(a5)
    50201b6a:	fe043703          	ld	a4,-32(s0)
    50201b6e:	fe043783          	ld	a5,-32(s0)
    50201b72:	e798                	sd	a4,8(a5)
    50201b74:	0001                	nop
    50201b76:	70e2                	ld	ra,56(sp)
    50201b78:	7442                	ld	s0,48(sp)
    50201b7a:	6121                	addi	sp,sp,64
    50201b7c:	8082                	ret

0000000050201b7e <init_pcb>:
    50201b7e:	1101                	addi	sp,sp,-32
    50201b80:	ec06                	sd	ra,24(sp)
    50201b82:	e822                	sd	s0,16(sp)
    50201b84:	1000                	addi	s0,sp,32
    50201b86:	00005797          	auipc	a5,0x5
    50201b8a:	c5e78793          	addi	a5,a5,-930 # 502067e4 <pcb_num>
    50201b8e:	0007a023          	sw	zero,0(a5)
    50201b92:	00005797          	auipc	a5,0x5
    50201b96:	b6678793          	addi	a5,a5,-1178 # 502066f8 <pid0_pcb>
    50201b9a:	0407a023          	sw	zero,64(a5)
    50201b9e:	00005797          	auipc	a5,0x5
    50201ba2:	b5a78793          	addi	a5,a5,-1190 # 502066f8 <pid0_pcb>
    50201ba6:	4705                	li	a4,1
    50201ba8:	c3f8                	sw	a4,68(a5)
    50201baa:	4505                	li	a0,1
    50201bac:	4d4010ef          	jal	50203080 <allocKernelPage>
    50201bb0:	872a                	mv	a4,a0
    50201bb2:	00005797          	auipc	a5,0x5
    50201bb6:	b4678793          	addi	a5,a5,-1210 # 502066f8 <pid0_pcb>
    50201bba:	e398                	sd	a4,0(a5)
    50201bbc:	00005797          	auipc	a5,0x5
    50201bc0:	b3c78793          	addi	a5,a5,-1220 # 502066f8 <pid0_pcb>
    50201bc4:	0007b423          	sd	zero,8(a5)
    50201bc8:	00005797          	auipc	a5,0x5
    50201bcc:	b3078793          	addi	a5,a5,-1232 # 502066f8 <pid0_pcb>
    50201bd0:	0407a623          	sw	zero,76(a5)
    50201bd4:	00005797          	auipc	a5,0x5
    50201bd8:	b2478793          	addi	a5,a5,-1244 # 502066f8 <pid0_pcb>
    50201bdc:	47f8                	lw	a4,76(a5)
    50201bde:	00005797          	auipc	a5,0x5
    50201be2:	b1a78793          	addi	a5,a5,-1254 # 502066f8 <pid0_pcb>
    50201be6:	c7b8                	sw	a4,72(a5)
    50201be8:	00005797          	auipc	a5,0x5
    50201bec:	b1078793          	addi	a5,a5,-1264 # 502066f8 <pid0_pcb>
    50201bf0:	6398                	ld	a4,0(a5)
    50201bf2:	00005797          	auipc	a5,0x5
    50201bf6:	b0678793          	addi	a5,a5,-1274 # 502066f8 <pid0_pcb>
    50201bfa:	679c                	ld	a5,8(a5)
    50201bfc:	00005697          	auipc	a3,0x5
    50201c00:	afc68693          	addi	a3,a3,-1284 # 502066f8 <pid0_pcb>
    50201c04:	4601                	li	a2,0
    50201c06:	85be                	mv	a1,a5
    50201c08:	853a                	mv	a0,a4
    50201c0a:	ed5ff0ef          	jal	50201ade <init_pcb_stack>
    50201c0e:	fe042623          	sw	zero,-20(s0)
    50201c12:	a895                	j	50201c86 <init_pcb+0x108>
    50201c14:	00007697          	auipc	a3,0x7
    50201c18:	24468693          	addi	a3,a3,580 # 50208e58 <pcb>
    50201c1c:	fec42703          	lw	a4,-20(s0)
    50201c20:	87ba                	mv	a5,a4
    50201c22:	0792                	slli	a5,a5,0x4
    50201c24:	97ba                	add	a5,a5,a4
    50201c26:	078e                	slli	a5,a5,0x3
    50201c28:	97b6                	add	a5,a5,a3
    50201c2a:	0407a023          	sw	zero,64(a5)
    50201c2e:	00007697          	auipc	a3,0x7
    50201c32:	22a68693          	addi	a3,a3,554 # 50208e58 <pcb>
    50201c36:	fec42703          	lw	a4,-20(s0)
    50201c3a:	87ba                	mv	a5,a4
    50201c3c:	0792                	slli	a5,a5,0x4
    50201c3e:	97ba                	add	a5,a5,a4
    50201c40:	078e                	slli	a5,a5,0x3
    50201c42:	97b6                	add	a5,a5,a3
    50201c44:	470d                	li	a4,3
    50201c46:	c3f8                	sw	a4,68(a5)
    50201c48:	00007697          	auipc	a3,0x7
    50201c4c:	21068693          	addi	a3,a3,528 # 50208e58 <pcb>
    50201c50:	fec42703          	lw	a4,-20(s0)
    50201c54:	87ba                	mv	a5,a4
    50201c56:	0792                	slli	a5,a5,0x4
    50201c58:	97ba                	add	a5,a5,a4
    50201c5a:	078e                	slli	a5,a5,0x3
    50201c5c:	97b6                	add	a5,a5,a3
    50201c5e:	0607aa23          	sw	zero,116(a5)
    50201c62:	00007697          	auipc	a3,0x7
    50201c66:	1f668693          	addi	a3,a3,502 # 50208e58 <pcb>
    50201c6a:	fec42703          	lw	a4,-20(s0)
    50201c6e:	87ba                	mv	a5,a4
    50201c70:	0792                	slli	a5,a5,0x4
    50201c72:	97ba                	add	a5,a5,a4
    50201c74:	078e                	slli	a5,a5,0x3
    50201c76:	97b6                	add	a5,a5,a3
    50201c78:	0607a823          	sw	zero,112(a5)
    50201c7c:	fec42783          	lw	a5,-20(s0)
    50201c80:	2785                	addiw	a5,a5,1
    50201c82:	fef42623          	sw	a5,-20(s0)
    50201c86:	fec42783          	lw	a5,-20(s0)
    50201c8a:	0007871b          	sext.w	a4,a5
    50201c8e:	47bd                	li	a5,15
    50201c90:	f8e7d2e3          	bge	a5,a4,50201c14 <init_pcb+0x96>
    50201c94:	00005217          	auipc	tp,0x5
    50201c98:	a6420213          	addi	tp,tp,-1436 # 502066f8 <pid0_pcb>
    50201c9c:	00003797          	auipc	a5,0x3
    50201ca0:	14c78793          	addi	a5,a5,332 # 50204de8 <strcat+0x1c2>
    50201ca4:	fef43023          	sd	a5,-32(s0)
    50201ca8:	fe040793          	addi	a5,s0,-32
    50201cac:	863e                	mv	a2,a5
    50201cae:	4585                	li	a1,1
    50201cb0:	00003517          	auipc	a0,0x3
    50201cb4:	13850513          	addi	a0,a0,312 # 50204de8 <strcat+0x1c2>
    50201cb8:	371010ef          	jal	50203828 <do_exec>
    50201cbc:	87aa                	mv	a5,a0
    50201cbe:	fef42423          	sw	a5,-24(s0)
    50201cc2:	0001                	nop
    50201cc4:	60e2                	ld	ra,24(sp)
    50201cc6:	6442                	ld	s0,16(sp)
    50201cc8:	6105                	addi	sp,sp,32
    50201cca:	8082                	ret

0000000050201ccc <init_syscall>:
    50201ccc:	1141                	addi	sp,sp,-16
    50201cce:	e406                	sd	ra,8(sp)
    50201cd0:	e022                	sd	s0,0(sp)
    50201cd2:	0800                	addi	s0,sp,16
    50201cd4:	00008797          	auipc	a5,0x8
    50201cd8:	a0478793          	addi	a5,a5,-1532 # 502096d8 <syscall>
    50201cdc:	00001717          	auipc	a4,0x1
    50201ce0:	62a70713          	addi	a4,a4,1578 # 50203306 <do_sleep>
    50201ce4:	eb98                	sd	a4,16(a5)
    50201ce6:	00008797          	auipc	a5,0x8
    50201cea:	9f278793          	addi	a5,a5,-1550 # 502096d8 <syscall>
    50201cee:	00001717          	auipc	a4,0x1
    50201cf2:	56870713          	addi	a4,a4,1384 # 50203256 <do_scheduler>
    50201cf6:	ff98                	sd	a4,56(a5)
    50201cf8:	00008797          	auipc	a5,0x8
    50201cfc:	9e078793          	addi	a5,a5,-1568 # 502096d8 <syscall>
    50201d00:	00001717          	auipc	a4,0x1
    50201d04:	81e70713          	addi	a4,a4,-2018 # 5020251e <screen_write>
    50201d08:	f3d8                	sd	a4,160(a5)
    50201d0a:	00008797          	auipc	a5,0x8
    50201d0e:	9ce78793          	addi	a5,a5,-1586 # 502096d8 <syscall>
    50201d12:	00000717          	auipc	a4,0x0
    50201d16:	77470713          	addi	a4,a4,1908 # 50202486 <screen_move_cursor>
    50201d1a:	fbd8                	sd	a4,176(a5)
    50201d1c:	00008797          	auipc	a5,0x8
    50201d20:	9bc78793          	addi	a5,a5,-1604 # 502096d8 <syscall>
    50201d24:	00001717          	auipc	a4,0x1
    50201d28:	85a70713          	addi	a4,a4,-1958 # 5020257e <screen_reflush>
    50201d2c:	ffd8                	sd	a4,184(a5)
    50201d2e:	00008797          	auipc	a5,0x8
    50201d32:	9aa78793          	addi	a5,a5,-1622 # 502096d8 <syscall>
    50201d36:	00002717          	auipc	a4,0x2
    50201d3a:	ff270713          	addi	a4,a4,-14 # 50203d28 <get_time_base>
    50201d3e:	fbf8                	sd	a4,240(a5)
    50201d40:	00008797          	auipc	a5,0x8
    50201d44:	99878793          	addi	a5,a5,-1640 # 502096d8 <syscall>
    50201d48:	00002717          	auipc	a4,0x2
    50201d4c:	f9070713          	addi	a4,a4,-112 # 50203cd8 <get_ticks>
    50201d50:	fff8                	sd	a4,248(a5)
    50201d52:	00008797          	auipc	a5,0x8
    50201d56:	98678793          	addi	a5,a5,-1658 # 502096d8 <syscall>
    50201d5a:	00001717          	auipc	a4,0x1
    50201d5e:	11a70713          	addi	a4,a4,282 # 50202e74 <do_mutex_lock_init>
    50201d62:	14e7b023          	sd	a4,320(a5)
    50201d66:	00008797          	auipc	a5,0x8
    50201d6a:	97278793          	addi	a5,a5,-1678 # 502096d8 <syscall>
    50201d6e:	00001717          	auipc	a4,0x1
    50201d72:	23e70713          	addi	a4,a4,574 # 50202fac <do_mutex_lock_acquire>
    50201d76:	14e7b423          	sd	a4,328(a5)
    50201d7a:	00008797          	auipc	a5,0x8
    50201d7e:	95e78793          	addi	a5,a5,-1698 # 502096d8 <syscall>
    50201d82:	00001717          	auipc	a4,0x1
    50201d86:	2aa70713          	addi	a4,a4,682 # 5020302c <do_mutex_lock_release>
    50201d8a:	14e7b823          	sd	a4,336(a5)
    50201d8e:	00008797          	auipc	a5,0x8
    50201d92:	94a78793          	addi	a5,a5,-1718 # 502096d8 <syscall>
    50201d96:	00002717          	auipc	a4,0x2
    50201d9a:	eea70713          	addi	a4,a4,-278 # 50203c80 <set_sched_workload>
    50201d9e:	14e7bc23          	sd	a4,344(a5)
    50201da2:	00008797          	auipc	a5,0x8
    50201da6:	93678793          	addi	a5,a5,-1738 # 502096d8 <syscall>
    50201daa:	00002717          	auipc	a4,0x2
    50201dae:	a7e70713          	addi	a4,a4,-1410 # 50203828 <do_exec>
    50201db2:	e398                	sd	a4,0(a5)
    50201db4:	00008797          	auipc	a5,0x8
    50201db8:	92478793          	addi	a5,a5,-1756 # 502096d8 <syscall>
    50201dbc:	00002717          	auipc	a4,0x2
    50201dc0:	89470713          	addi	a4,a4,-1900 # 50203650 <do_exit>
    50201dc4:	e798                	sd	a4,8(a5)
    50201dc6:	00008797          	auipc	a5,0x8
    50201dca:	91278793          	addi	a5,a5,-1774 # 502096d8 <syscall>
    50201dce:	00002717          	auipc	a4,0x2
    50201dd2:	8d670713          	addi	a4,a4,-1834 # 502036a4 <do_kill>
    50201dd6:	ef98                	sd	a4,24(a5)
    50201dd8:	00008797          	auipc	a5,0x8
    50201ddc:	90078793          	addi	a5,a5,-1792 # 502096d8 <syscall>
    50201de0:	00001717          	auipc	a4,0x1
    50201de4:	76070713          	addi	a4,a4,1888 # 50203540 <do_waitpid>
    50201de8:	f398                	sd	a4,32(a5)
    50201dea:	00008797          	auipc	a5,0x8
    50201dee:	8ee78793          	addi	a5,a5,-1810 # 502096d8 <syscall>
    50201df2:	00001717          	auipc	a4,0x1
    50201df6:	67870713          	addi	a4,a4,1656 # 5020346a <do_process_show>
    50201dfa:	f798                	sd	a4,40(a5)
    50201dfc:	00008797          	auipc	a5,0x8
    50201e00:	8dc78793          	addi	a5,a5,-1828 # 502096d8 <syscall>
    50201e04:	00002717          	auipc	a4,0x2
    50201e08:	a0e70713          	addi	a4,a4,-1522 # 50203812 <do_getpid>
    50201e0c:	fb98                	sd	a4,48(a5)
    50201e0e:	00008797          	auipc	a5,0x8
    50201e12:	8ca78793          	addi	a5,a5,-1846 # 502096d8 <syscall>
    50201e16:	00000717          	auipc	a4,0x0
    50201e1a:	59870713          	addi	a4,a4,1432 # 502023ae <screen_clear>
    50201e1e:	e3f8                	sd	a4,192(a5)
    50201e20:	00008797          	auipc	a5,0x8
    50201e24:	8b878793          	addi	a5,a5,-1864 # 502096d8 <syscall>
    50201e28:	00000717          	auipc	a4,0x0
    50201e2c:	23470713          	addi	a4,a4,564 # 5020205c <port_read_ch>
    50201e30:	f7d8                	sd	a4,168(a5)
    50201e32:	0001                	nop
    50201e34:	60a2                	ld	ra,8(sp)
    50201e36:	6402                	ld	s0,0(sp)
    50201e38:	0141                	addi	sp,sp,16
    50201e3a:	8082                	ret

0000000050201e3c <main>:
    50201e3c:	7139                	addi	sp,sp,-64
    50201e3e:	fc06                	sd	ra,56(sp)
    50201e40:	f822                	sd	s0,48(sp)
    50201e42:	0080                	addi	s0,sp,64
    50201e44:	d7cff0ef          	jal	502013c0 <init_jmptab>
    50201e48:	eacff0ef          	jal	502014f4 <init_task_info>
    50201e4c:	d28ff0ef          	jal	50201374 <bss_check>
    50201e50:	87aa                	mv	a5,a0
    50201e52:	fef42223          	sw	a5,-28(s0)
    50201e56:	00003797          	auipc	a5,0x3
    50201e5a:	07a78793          	addi	a5,a5,122 # 50204ed0 <strcat+0x2aa>
    50201e5e:	6394                	ld	a3,0(a5)
    50201e60:	6798                	ld	a4,8(a5)
    50201e62:	fcd43423          	sd	a3,-56(s0)
    50201e66:	fce43823          	sd	a4,-48(s0)
    50201e6a:	6b98                	ld	a4,16(a5)
    50201e6c:	fce43c23          	sd	a4,-40(s0)
    50201e70:	0187d783          	lhu	a5,24(a5)
    50201e74:	fef41023          	sh	a5,-32(s0)
    50201e78:	fc041023          	sh	zero,-64(s0)
    50201e7c:	fe042423          	sw	zero,-24(s0)
    50201e80:	fe442783          	lw	a5,-28(s0)
    50201e84:	2781                	sext.w	a5,a5
    50201e86:	c781                	beqz	a5,50201e8e <main+0x52>
    50201e88:	07400793          	li	a5,116
    50201e8c:	a019                	j	50201e92 <main+0x56>
    50201e8e:	06600793          	li	a5,102
    50201e92:	fcf40023          	sb	a5,-64(s0)
    50201e96:	00005797          	auipc	a5,0x5
    50201e9a:	93278793          	addi	a5,a5,-1742 # 502067c8 <version>
    50201e9e:	439c                	lw	a5,0(a5)
    50201ea0:	0ff7f793          	zext.b	a5,a5
    50201ea4:	0307879b          	addiw	a5,a5,48
    50201ea8:	0ff7f793          	zext.b	a5,a5
    50201eac:	fcf400a3          	sb	a5,-63(s0)
    50201eb0:	fe042623          	sw	zero,-20(s0)
    50201eb4:	a0b5                	j	50201f20 <main+0xe4>
    50201eb6:	fec42783          	lw	a5,-20(s0)
    50201eba:	17c1                	addi	a5,a5,-16
    50201ebc:	97a2                	add	a5,a5,s0
    50201ebe:	fd87c703          	lbu	a4,-40(a5)
    50201ec2:	00005697          	auipc	a3,0x5
    50201ec6:	93668693          	addi	a3,a3,-1738 # 502067f8 <buf>
    50201eca:	fec42783          	lw	a5,-20(s0)
    50201ece:	97b6                	add	a5,a5,a3
    50201ed0:	00e78023          	sb	a4,0(a5)
    50201ed4:	00005717          	auipc	a4,0x5
    50201ed8:	92470713          	addi	a4,a4,-1756 # 502067f8 <buf>
    50201edc:	fec42783          	lw	a5,-20(s0)
    50201ee0:	97ba                	add	a5,a5,a4
    50201ee2:	0007c783          	lbu	a5,0(a5)
    50201ee6:	873e                	mv	a4,a5
    50201ee8:	05f00793          	li	a5,95
    50201eec:	02f71563          	bne	a4,a5,50201f16 <main+0xda>
    50201ef0:	fe842783          	lw	a5,-24(s0)
    50201ef4:	0017871b          	addiw	a4,a5,1
    50201ef8:	fee42423          	sw	a4,-24(s0)
    50201efc:	17c1                	addi	a5,a5,-16
    50201efe:	97a2                	add	a5,a5,s0
    50201f00:	fd07c703          	lbu	a4,-48(a5)
    50201f04:	00005697          	auipc	a3,0x5
    50201f08:	8f468693          	addi	a3,a3,-1804 # 502067f8 <buf>
    50201f0c:	fec42783          	lw	a5,-20(s0)
    50201f10:	97b6                	add	a5,a5,a3
    50201f12:	00e78023          	sb	a4,0(a5)
    50201f16:	fec42783          	lw	a5,-20(s0)
    50201f1a:	2785                	addiw	a5,a5,1
    50201f1c:	fef42623          	sw	a5,-20(s0)
    50201f20:	fec42703          	lw	a4,-20(s0)
    50201f24:	47e5                	li	a5,25
    50201f26:	f8e7f8e3          	bgeu	a5,a4,50201eb6 <main+0x7a>
    50201f2a:	00003517          	auipc	a0,0x3
    50201f2e:	ec650513          	addi	a0,a0,-314 # 50204df0 <strcat+0x1ca>
    50201f32:	b1aff0ef          	jal	5020124c <bios_putstr>
    50201f36:	00005517          	auipc	a0,0x5
    50201f3a:	8c250513          	addi	a0,a0,-1854 # 502067f8 <buf>
    50201f3e:	b0eff0ef          	jal	5020124c <bios_putstr>
    50201f42:	c3dff0ef          	jal	50201b7e <init_pcb>
    50201f46:	00003517          	auipc	a0,0x3
    50201f4a:	eba50513          	addi	a0,a0,-326 # 50204e00 <strcat+0x1da>
    50201f4e:	099020ef          	jal	502047e6 <printk>
    50201f52:	4501                	li	a0,0
    50201f54:	bf4ff0ef          	jal	50201348 <bios_read_fdt>
    50201f58:	872a                	mv	a4,a0
    50201f5a:	00005797          	auipc	a5,0x5
    50201f5e:	89678793          	addi	a5,a5,-1898 # 502067f0 <time_base>
    50201f62:	e398                	sd	a4,0(a5)
    50201f64:	5ed000ef          	jal	50202d50 <init_locks>
    50201f68:	00003517          	auipc	a0,0x3
    50201f6c:	ec050513          	addi	a0,a0,-320 # 50204e28 <strcat+0x202>
    50201f70:	077020ef          	jal	502047e6 <printk>
    50201f74:	065000ef          	jal	502027d8 <init_exception>
    50201f78:	00003517          	auipc	a0,0x3
    50201f7c:	ee850513          	addi	a0,a0,-280 # 50204e60 <strcat+0x23a>
    50201f80:	067020ef          	jal	502047e6 <printk>
    50201f84:	d49ff0ef          	jal	50201ccc <init_syscall>
    50201f88:	00003517          	auipc	a0,0x3
    50201f8c:	f1850513          	addi	a0,a0,-232 # 50204ea0 <strcat+0x27a>
    50201f90:	057020ef          	jal	502047e6 <printk>
    50201f94:	3f6000ef          	jal	5020238a <init_screen>
    50201f98:	541010ef          	jal	50203cd8 <get_ticks>
    50201f9c:	87aa                	mv	a5,a0
    50201f9e:	5dc78793          	addi	a5,a5,1500
    50201fa2:	853e                	mv	a0,a5
    50201fa4:	162000ef          	jal	50202106 <set_timer>
    50201fa8:	88cff0ef          	jal	50201034 <enable_preempt>
    50201fac:	10500073          	wfi
    50201fb0:	0001                	nop
    50201fb2:	bfdd                	j	50201fa8 <main+0x16c>

0000000050201fb4 <call_bios>:
    50201fb4:	715d                	addi	sp,sp,-80
    50201fb6:	e486                	sd	ra,72(sp)
    50201fb8:	e0a2                	sd	s0,64(sp)
    50201fba:	0880                	addi	s0,sp,80
    50201fbc:	fca43c23          	sd	a0,-40(s0)
    50201fc0:	fcb43823          	sd	a1,-48(s0)
    50201fc4:	fcc43423          	sd	a2,-56(s0)
    50201fc8:	fcd43023          	sd	a3,-64(s0)
    50201fcc:	fae43c23          	sd	a4,-72(s0)
    50201fd0:	faf43823          	sd	a5,-80(s0)
    50201fd4:	501507b7          	lui	a5,0x50150
    50201fd8:	fef43423          	sd	a5,-24(s0)
    50201fdc:	fe843303          	ld	t1,-24(s0)
    50201fe0:	fd843883          	ld	a7,-40(s0)
    50201fe4:	4801                	li	a6,0
    50201fe6:	4781                	li	a5,0
    50201fe8:	fb043703          	ld	a4,-80(s0)
    50201fec:	fb843683          	ld	a3,-72(s0)
    50201ff0:	fc043603          	ld	a2,-64(s0)
    50201ff4:	fc843583          	ld	a1,-56(s0)
    50201ff8:	fd043503          	ld	a0,-48(s0)
    50201ffc:	9302                	jalr	t1
    50201ffe:	87aa                	mv	a5,a0
    50202000:	853e                	mv	a0,a5
    50202002:	60a6                	ld	ra,72(sp)
    50202004:	6406                	ld	s0,64(sp)
    50202006:	6161                	addi	sp,sp,80
    50202008:	8082                	ret

000000005020200a <port_write_ch>:
    5020200a:	1101                	addi	sp,sp,-32
    5020200c:	ec06                	sd	ra,24(sp)
    5020200e:	e822                	sd	s0,16(sp)
    50202010:	1000                	addi	s0,sp,32
    50202012:	87aa                	mv	a5,a0
    50202014:	fef407a3          	sb	a5,-17(s0)
    50202018:	fef44583          	lbu	a1,-17(s0)
    5020201c:	4781                	li	a5,0
    5020201e:	4701                	li	a4,0
    50202020:	4681                	li	a3,0
    50202022:	4601                	li	a2,0
    50202024:	4505                	li	a0,1
    50202026:	f8fff0ef          	jal	50201fb4 <call_bios>
    5020202a:	0001                	nop
    5020202c:	60e2                	ld	ra,24(sp)
    5020202e:	6442                	ld	s0,16(sp)
    50202030:	6105                	addi	sp,sp,32
    50202032:	8082                	ret

0000000050202034 <port_write>:
    50202034:	1101                	addi	sp,sp,-32
    50202036:	ec06                	sd	ra,24(sp)
    50202038:	e822                	sd	s0,16(sp)
    5020203a:	1000                	addi	s0,sp,32
    5020203c:	fea43423          	sd	a0,-24(s0)
    50202040:	fe843583          	ld	a1,-24(s0)
    50202044:	4781                	li	a5,0
    50202046:	4701                	li	a4,0
    50202048:	4681                	li	a3,0
    5020204a:	4601                	li	a2,0
    5020204c:	4525                	li	a0,9
    5020204e:	f67ff0ef          	jal	50201fb4 <call_bios>
    50202052:	0001                	nop
    50202054:	60e2                	ld	ra,24(sp)
    50202056:	6442                	ld	s0,16(sp)
    50202058:	6105                	addi	sp,sp,32
    5020205a:	8082                	ret

000000005020205c <port_read_ch>:
    5020205c:	1141                	addi	sp,sp,-16
    5020205e:	e406                	sd	ra,8(sp)
    50202060:	e022                	sd	s0,0(sp)
    50202062:	0800                	addi	s0,sp,16
    50202064:	4781                	li	a5,0
    50202066:	4701                	li	a4,0
    50202068:	4681                	li	a3,0
    5020206a:	4601                	li	a2,0
    5020206c:	4581                	li	a1,0
    5020206e:	4509                	li	a0,2
    50202070:	f45ff0ef          	jal	50201fb4 <call_bios>
    50202074:	87aa                	mv	a5,a0
    50202076:	2781                	sext.w	a5,a5
    50202078:	853e                	mv	a0,a5
    5020207a:	60a2                	ld	ra,8(sp)
    5020207c:	6402                	ld	s0,0(sp)
    5020207e:	0141                	addi	sp,sp,16
    50202080:	8082                	ret

0000000050202082 <sd_read>:
    50202082:	1101                	addi	sp,sp,-32
    50202084:	ec06                	sd	ra,24(sp)
    50202086:	e822                	sd	s0,16(sp)
    50202088:	1000                	addi	s0,sp,32
    5020208a:	87aa                	mv	a5,a0
    5020208c:	86ae                	mv	a3,a1
    5020208e:	8732                	mv	a4,a2
    50202090:	fef42623          	sw	a5,-20(s0)
    50202094:	87b6                	mv	a5,a3
    50202096:	fef42423          	sw	a5,-24(s0)
    5020209a:	87ba                	mv	a5,a4
    5020209c:	fef42223          	sw	a5,-28(s0)
    502020a0:	fec46583          	lwu	a1,-20(s0)
    502020a4:	fe846603          	lwu	a2,-24(s0)
    502020a8:	fe446683          	lwu	a3,-28(s0)
    502020ac:	4781                	li	a5,0
    502020ae:	4701                	li	a4,0
    502020b0:	452d                	li	a0,11
    502020b2:	f03ff0ef          	jal	50201fb4 <call_bios>
    502020b6:	87aa                	mv	a5,a0
    502020b8:	2781                	sext.w	a5,a5
    502020ba:	853e                	mv	a0,a5
    502020bc:	60e2                	ld	ra,24(sp)
    502020be:	6442                	ld	s0,16(sp)
    502020c0:	6105                	addi	sp,sp,32
    502020c2:	8082                	ret

00000000502020c4 <sd_write>:
    502020c4:	1101                	addi	sp,sp,-32
    502020c6:	ec06                	sd	ra,24(sp)
    502020c8:	e822                	sd	s0,16(sp)
    502020ca:	1000                	addi	s0,sp,32
    502020cc:	87aa                	mv	a5,a0
    502020ce:	86ae                	mv	a3,a1
    502020d0:	8732                	mv	a4,a2
    502020d2:	fef42623          	sw	a5,-20(s0)
    502020d6:	87b6                	mv	a5,a3
    502020d8:	fef42423          	sw	a5,-24(s0)
    502020dc:	87ba                	mv	a5,a4
    502020de:	fef42223          	sw	a5,-28(s0)
    502020e2:	fec46583          	lwu	a1,-20(s0)
    502020e6:	fe846603          	lwu	a2,-24(s0)
    502020ea:	fe446683          	lwu	a3,-28(s0)
    502020ee:	4781                	li	a5,0
    502020f0:	4701                	li	a4,0
    502020f2:	4529                	li	a0,10
    502020f4:	ec1ff0ef          	jal	50201fb4 <call_bios>
    502020f8:	87aa                	mv	a5,a0
    502020fa:	2781                	sext.w	a5,a5
    502020fc:	853e                	mv	a0,a5
    502020fe:	60e2                	ld	ra,24(sp)
    50202100:	6442                	ld	s0,16(sp)
    50202102:	6105                	addi	sp,sp,32
    50202104:	8082                	ret

0000000050202106 <set_timer>:
    50202106:	1101                	addi	sp,sp,-32
    50202108:	ec06                	sd	ra,24(sp)
    5020210a:	e822                	sd	s0,16(sp)
    5020210c:	1000                	addi	s0,sp,32
    5020210e:	fea43423          	sd	a0,-24(s0)
    50202112:	fe843583          	ld	a1,-24(s0)
    50202116:	4781                	li	a5,0
    50202118:	4701                	li	a4,0
    5020211a:	4681                	li	a3,0
    5020211c:	4601                	li	a2,0
    5020211e:	4501                	li	a0,0
    50202120:	e95ff0ef          	jal	50201fb4 <call_bios>
    50202124:	0001                	nop
    50202126:	60e2                	ld	ra,24(sp)
    50202128:	6442                	ld	s0,16(sp)
    5020212a:	6105                	addi	sp,sp,32
    5020212c:	8082                	ret

000000005020212e <read_fdt>:
    5020212e:	1101                	addi	sp,sp,-32
    50202130:	ec06                	sd	ra,24(sp)
    50202132:	e822                	sd	s0,16(sp)
    50202134:	1000                	addi	s0,sp,32
    50202136:	87aa                	mv	a5,a0
    50202138:	fef42623          	sw	a5,-20(s0)
    5020213c:	fec46583          	lwu	a1,-20(s0)
    50202140:	4781                	li	a5,0
    50202142:	4701                	li	a4,0
    50202144:	4681                	li	a3,0
    50202146:	4601                	li	a2,0
    50202148:	4531                	li	a0,12
    5020214a:	e6bff0ef          	jal	50201fb4 <call_bios>
    5020214e:	87aa                	mv	a5,a0
    50202150:	853e                	mv	a0,a5
    50202152:	60e2                	ld	ra,24(sp)
    50202154:	6442                	ld	s0,16(sp)
    50202156:	6105                	addi	sp,sp,32
    50202158:	8082                	ret

000000005020215a <qemu_logging>:
    5020215a:	1101                	addi	sp,sp,-32
    5020215c:	ec06                	sd	ra,24(sp)
    5020215e:	e822                	sd	s0,16(sp)
    50202160:	1000                	addi	s0,sp,32
    50202162:	fea43423          	sd	a0,-24(s0)
    50202166:	fe843583          	ld	a1,-24(s0)
    5020216a:	4781                	li	a5,0
    5020216c:	4701                	li	a4,0
    5020216e:	4681                	li	a3,0
    50202170:	4601                	li	a2,0
    50202172:	4539                	li	a0,14
    50202174:	e41ff0ef          	jal	50201fb4 <call_bios>
    50202178:	0001                	nop
    5020217a:	60e2                	ld	ra,24(sp)
    5020217c:	6442                	ld	s0,16(sp)
    5020217e:	6105                	addi	sp,sp,32
    50202180:	8082                	ret

0000000050202182 <send_ipi>:
    50202182:	1101                	addi	sp,sp,-32
    50202184:	ec06                	sd	ra,24(sp)
    50202186:	e822                	sd	s0,16(sp)
    50202188:	1000                	addi	s0,sp,32
    5020218a:	fea43423          	sd	a0,-24(s0)
    5020218e:	fe843583          	ld	a1,-24(s0)
    50202192:	4781                	li	a5,0
    50202194:	4701                	li	a4,0
    50202196:	4681                	li	a3,0
    50202198:	4601                	li	a2,0
    5020219a:	4511                	li	a0,4
    5020219c:	e19ff0ef          	jal	50201fb4 <call_bios>
    502021a0:	0001                	nop
    502021a2:	60e2                	ld	ra,24(sp)
    502021a4:	6442                	ld	s0,16(sp)
    502021a6:	6105                	addi	sp,sp,32
    502021a8:	8082                	ret

00000000502021aa <call_jmptab>:
    502021aa:	715d                	addi	sp,sp,-80
    502021ac:	e486                	sd	ra,72(sp)
    502021ae:	e0a2                	sd	s0,64(sp)
    502021b0:	0880                	addi	s0,sp,80
    502021b2:	fca43c23          	sd	a0,-40(s0)
    502021b6:	fcb43823          	sd	a1,-48(s0)
    502021ba:	fcc43423          	sd	a2,-56(s0)
    502021be:	fcd43023          	sd	a3,-64(s0)
    502021c2:	fae43c23          	sd	a4,-72(s0)
    502021c6:	faf43823          	sd	a5,-80(s0)
    502021ca:	fd843703          	ld	a4,-40(s0)
    502021ce:	0a4007b7          	lui	a5,0xa400
    502021d2:	1781                	addi	a5,a5,-32 # a3fffe0 <_start-0x45e01020>
    502021d4:	97ba                	add	a5,a5,a4
    502021d6:	078e                	slli	a5,a5,0x3
    502021d8:	639c                	ld	a5,0(a5)
    502021da:	fef43423          	sd	a5,-24(s0)
    502021de:	fe843783          	ld	a5,-24(s0)
    502021e2:	fef43023          	sd	a5,-32(s0)
    502021e6:	fe043783          	ld	a5,-32(s0)
    502021ea:	fb043703          	ld	a4,-80(s0)
    502021ee:	fb843683          	ld	a3,-72(s0)
    502021f2:	fc043603          	ld	a2,-64(s0)
    502021f6:	fc843583          	ld	a1,-56(s0)
    502021fa:	fd043503          	ld	a0,-48(s0)
    502021fe:	9782                	jalr	a5
    50202200:	87aa                	mv	a5,a0
    50202202:	853e                	mv	a0,a5
    50202204:	60a6                	ld	ra,72(sp)
    50202206:	6406                	ld	s0,64(sp)
    50202208:	6161                	addi	sp,sp,80
    5020220a:	8082                	ret

000000005020220c <bios_putchar>:
    5020220c:	1101                	addi	sp,sp,-32
    5020220e:	ec06                	sd	ra,24(sp)
    50202210:	e822                	sd	s0,16(sp)
    50202212:	1000                	addi	s0,sp,32
    50202214:	87aa                	mv	a5,a0
    50202216:	fef42623          	sw	a5,-20(s0)
    5020221a:	fec42583          	lw	a1,-20(s0)
    5020221e:	4781                	li	a5,0
    50202220:	4701                	li	a4,0
    50202222:	4681                	li	a3,0
    50202224:	4601                	li	a2,0
    50202226:	4505                	li	a0,1
    50202228:	f83ff0ef          	jal	502021aa <call_jmptab>
    5020222c:	0001                	nop
    5020222e:	60e2                	ld	ra,24(sp)
    50202230:	6442                	ld	s0,16(sp)
    50202232:	6105                	addi	sp,sp,32
    50202234:	8082                	ret

0000000050202236 <vt100_move_cursor>:
    50202236:	1101                	addi	sp,sp,-32
    50202238:	ec06                	sd	ra,24(sp)
    5020223a:	e822                	sd	s0,16(sp)
    5020223c:	1000                	addi	s0,sp,32
    5020223e:	87aa                	mv	a5,a0
    50202240:	872e                	mv	a4,a1
    50202242:	fef42623          	sw	a5,-20(s0)
    50202246:	87ba                	mv	a5,a4
    50202248:	fef42423          	sw	a5,-24(s0)
    5020224c:	fec42703          	lw	a4,-20(s0)
    50202250:	fe842783          	lw	a5,-24(s0)
    50202254:	86ba                	mv	a3,a4
    50202256:	863e                	mv	a2,a5
    50202258:	45ed                	li	a1,27
    5020225a:	00003517          	auipc	a0,0x3
    5020225e:	c9650513          	addi	a0,a0,-874 # 50204ef0 <strcat+0x2ca>
    50202262:	5dc020ef          	jal	5020483e <printv>
    50202266:	0001                	nop
    50202268:	60e2                	ld	ra,24(sp)
    5020226a:	6442                	ld	s0,16(sp)
    5020226c:	6105                	addi	sp,sp,32
    5020226e:	8082                	ret

0000000050202270 <vt100_clear>:
    50202270:	1141                	addi	sp,sp,-16
    50202272:	e406                	sd	ra,8(sp)
    50202274:	e022                	sd	s0,0(sp)
    50202276:	0800                	addi	s0,sp,16
    50202278:	45ed                	li	a1,27
    5020227a:	00003517          	auipc	a0,0x3
    5020227e:	c8650513          	addi	a0,a0,-890 # 50204f00 <strcat+0x2da>
    50202282:	5bc020ef          	jal	5020483e <printv>
    50202286:	0001                	nop
    50202288:	60a2                	ld	ra,8(sp)
    5020228a:	6402                	ld	s0,0(sp)
    5020228c:	0141                	addi	sp,sp,16
    5020228e:	8082                	ret

0000000050202290 <vt100_hidden_cursor>:
    50202290:	1141                	addi	sp,sp,-16
    50202292:	e406                	sd	ra,8(sp)
    50202294:	e022                	sd	s0,0(sp)
    50202296:	0800                	addi	s0,sp,16
    50202298:	45ed                	li	a1,27
    5020229a:	00003517          	auipc	a0,0x3
    5020229e:	c6e50513          	addi	a0,a0,-914 # 50204f08 <strcat+0x2e2>
    502022a2:	59c020ef          	jal	5020483e <printv>
    502022a6:	0001                	nop
    502022a8:	60a2                	ld	ra,8(sp)
    502022aa:	6402                	ld	s0,0(sp)
    502022ac:	0141                	addi	sp,sp,16
    502022ae:	8082                	ret

00000000502022b0 <screen_write_ch>:
    502022b0:	1101                	addi	sp,sp,-32
    502022b2:	ec06                	sd	ra,24(sp)
    502022b4:	e822                	sd	s0,16(sp)
    502022b6:	1000                	addi	s0,sp,32
    502022b8:	87aa                	mv	a5,a0
    502022ba:	fef407a3          	sb	a5,-17(s0)
    502022be:	fef44783          	lbu	a5,-17(s0)
    502022c2:	0ff7f713          	zext.b	a4,a5
    502022c6:	47a9                	li	a5,10
    502022c8:	02f71163          	bne	a4,a5,502022ea <screen_write_ch+0x3a>
    502022cc:	8792                	mv	a5,tp
    502022ce:	0407a423          	sw	zero,72(a5)
    502022d2:	8792                	mv	a5,tp
    502022d4:	47f8                	lw	a4,76(a5)
    502022d6:	03100793          	li	a5,49
    502022da:	0ae7c363          	blt	a5,a4,50202380 <screen_write_ch+0xd0>
    502022de:	8792                	mv	a5,tp
    502022e0:	47f8                	lw	a4,76(a5)
    502022e2:	2705                	addiw	a4,a4,1
    502022e4:	2701                	sext.w	a4,a4
    502022e6:	c7f8                	sw	a4,76(a5)
    502022e8:	a861                	j	50202380 <screen_write_ch+0xd0>
    502022ea:	fef44783          	lbu	a5,-17(s0)
    502022ee:	0ff7f713          	zext.b	a4,a5
    502022f2:	47a1                	li	a5,8
    502022f4:	00f70a63          	beq	a4,a5,50202308 <screen_write_ch+0x58>
    502022f8:	fef44783          	lbu	a5,-17(s0)
    502022fc:	0ff7f713          	zext.b	a4,a5
    50202300:	07f00793          	li	a5,127
    50202304:	00f71e63          	bne	a4,a5,50202320 <screen_write_ch+0x70>
    50202308:	8792                	mv	a5,tp
    5020230a:	47bc                	lw	a5,72(a5)
    5020230c:	00f05763          	blez	a5,5020231a <screen_write_ch+0x6a>
    50202310:	8792                	mv	a5,tp
    50202312:	47b8                	lw	a4,72(a5)
    50202314:	377d                	addiw	a4,a4,-1
    50202316:	2701                	sext.w	a4,a4
    50202318:	c7b8                	sw	a4,72(a5)
    5020231a:	264000ef          	jal	5020257e <screen_reflush>
    5020231e:	a08d                	j	50202380 <screen_write_ch+0xd0>
    50202320:	8792                	mv	a5,tp
    50202322:	47fc                	lw	a5,76(a5)
    50202324:	873e                	mv	a4,a5
    50202326:	87ba                	mv	a5,a4
    50202328:	0027979b          	slliw	a5,a5,0x2
    5020232c:	9fb9                	addw	a5,a5,a4
    5020232e:	0047979b          	slliw	a5,a5,0x4
    50202332:	0007871b          	sext.w	a4,a5
    50202336:	8792                	mv	a5,tp
    50202338:	47bc                	lw	a5,72(a5)
    5020233a:	9fb9                	addw	a5,a5,a4
    5020233c:	2781                	sext.w	a5,a5
    5020233e:	00005717          	auipc	a4,0x5
    50202342:	87a70713          	addi	a4,a4,-1926 # 50206bb8 <new_screen>
    50202346:	97ba                	add	a5,a5,a4
    50202348:	fef44703          	lbu	a4,-17(s0)
    5020234c:	00e78023          	sb	a4,0(a5)
    50202350:	8792                	mv	a5,tp
    50202352:	47b8                	lw	a4,72(a5)
    50202354:	2705                	addiw	a4,a4,1
    50202356:	2701                	sext.w	a4,a4
    50202358:	c7b8                	sw	a4,72(a5)
    5020235a:	47b8                	lw	a4,72(a5)
    5020235c:	04f00793          	li	a5,79
    50202360:	02e7d063          	bge	a5,a4,50202380 <screen_write_ch+0xd0>
    50202364:	8792                	mv	a5,tp
    50202366:	0407a423          	sw	zero,72(a5)
    5020236a:	8792                	mv	a5,tp
    5020236c:	47f8                	lw	a4,76(a5)
    5020236e:	03100793          	li	a5,49
    50202372:	00e7c763          	blt	a5,a4,50202380 <screen_write_ch+0xd0>
    50202376:	8792                	mv	a5,tp
    50202378:	47f8                	lw	a4,76(a5)
    5020237a:	2705                	addiw	a4,a4,1
    5020237c:	2701                	sext.w	a4,a4
    5020237e:	c7f8                	sw	a4,76(a5)
    50202380:	0001                	nop
    50202382:	60e2                	ld	ra,24(sp)
    50202384:	6442                	ld	s0,16(sp)
    50202386:	6105                	addi	sp,sp,32
    50202388:	8082                	ret

000000005020238a <init_screen>:
    5020238a:	1141                	addi	sp,sp,-16
    5020238c:	e406                	sd	ra,8(sp)
    5020238e:	e022                	sd	s0,0(sp)
    50202390:	0800                	addi	s0,sp,16
    50202392:	effff0ef          	jal	50202290 <vt100_hidden_cursor>
    50202396:	edbff0ef          	jal	50202270 <vt100_clear>
    5020239a:	03200593          	li	a1,50
    5020239e:	4501                	li	a0,0
    502023a0:	00e000ef          	jal	502023ae <screen_clear>
    502023a4:	0001                	nop
    502023a6:	60a2                	ld	ra,8(sp)
    502023a8:	6402                	ld	s0,0(sp)
    502023aa:	0141                	addi	sp,sp,16
    502023ac:	8082                	ret

00000000502023ae <screen_clear>:
    502023ae:	7179                	addi	sp,sp,-48
    502023b0:	f406                	sd	ra,40(sp)
    502023b2:	f022                	sd	s0,32(sp)
    502023b4:	1800                	addi	s0,sp,48
    502023b6:	87aa                	mv	a5,a0
    502023b8:	872e                	mv	a4,a1
    502023ba:	fcf42e23          	sw	a5,-36(s0)
    502023be:	87ba                	mv	a5,a4
    502023c0:	fcf42c23          	sw	a5,-40(s0)
    502023c4:	eadff0ef          	jal	50202270 <vt100_clear>
    502023c8:	fdc42783          	lw	a5,-36(s0)
    502023cc:	fef42623          	sw	a5,-20(s0)
    502023d0:	a061                	j	50202458 <screen_clear+0xaa>
    502023d2:	fe042423          	sw	zero,-24(s0)
    502023d6:	a0a5                	j	5020243e <screen_clear+0x90>
    502023d8:	fec42783          	lw	a5,-20(s0)
    502023dc:	873e                	mv	a4,a5
    502023de:	87ba                	mv	a5,a4
    502023e0:	0027979b          	slliw	a5,a5,0x2
    502023e4:	9fb9                	addw	a5,a5,a4
    502023e6:	0047979b          	slliw	a5,a5,0x4
    502023ea:	2781                	sext.w	a5,a5
    502023ec:	fe842703          	lw	a4,-24(s0)
    502023f0:	9fb9                	addw	a5,a5,a4
    502023f2:	2781                	sext.w	a5,a5
    502023f4:	00004717          	auipc	a4,0x4
    502023f8:	7c470713          	addi	a4,a4,1988 # 50206bb8 <new_screen>
    502023fc:	97ba                	add	a5,a5,a4
    502023fe:	02000713          	li	a4,32
    50202402:	00e78023          	sb	a4,0(a5)
    50202406:	fec42783          	lw	a5,-20(s0)
    5020240a:	873e                	mv	a4,a5
    5020240c:	87ba                	mv	a5,a4
    5020240e:	0027979b          	slliw	a5,a5,0x2
    50202412:	9fb9                	addw	a5,a5,a4
    50202414:	0047979b          	slliw	a5,a5,0x4
    50202418:	2781                	sext.w	a5,a5
    5020241a:	fe842703          	lw	a4,-24(s0)
    5020241e:	9fb9                	addw	a5,a5,a4
    50202420:	2781                	sext.w	a5,a5
    50202422:	00005717          	auipc	a4,0x5
    50202426:	73670713          	addi	a4,a4,1846 # 50207b58 <old_screen>
    5020242a:	97ba                	add	a5,a5,a4
    5020242c:	02000713          	li	a4,32
    50202430:	00e78023          	sb	a4,0(a5)
    50202434:	fe842783          	lw	a5,-24(s0)
    50202438:	2785                	addiw	a5,a5,1
    5020243a:	fef42423          	sw	a5,-24(s0)
    5020243e:	fe842783          	lw	a5,-24(s0)
    50202442:	0007871b          	sext.w	a4,a5
    50202446:	04f00793          	li	a5,79
    5020244a:	f8e7d7e3          	bge	a5,a4,502023d8 <screen_clear+0x2a>
    5020244e:	fec42783          	lw	a5,-20(s0)
    50202452:	2785                	addiw	a5,a5,1
    50202454:	fef42623          	sw	a5,-20(s0)
    50202458:	fec42783          	lw	a5,-20(s0)
    5020245c:	873e                	mv	a4,a5
    5020245e:	fd842783          	lw	a5,-40(s0)
    50202462:	2701                	sext.w	a4,a4
    50202464:	2781                	sext.w	a5,a5
    50202466:	f6f746e3          	blt	a4,a5,502023d2 <screen_clear+0x24>
    5020246a:	8792                	mv	a5,tp
    5020246c:	0407a423          	sw	zero,72(a5)
    50202470:	8712                	mv	a4,tp
    50202472:	fdc42783          	lw	a5,-36(s0)
    50202476:	c77c                	sw	a5,76(a4)
    50202478:	106000ef          	jal	5020257e <screen_reflush>
    5020247c:	0001                	nop
    5020247e:	70a2                	ld	ra,40(sp)
    50202480:	7402                	ld	s0,32(sp)
    50202482:	6145                	addi	sp,sp,48
    50202484:	8082                	ret

0000000050202486 <screen_move_cursor>:
    50202486:	1101                	addi	sp,sp,-32
    50202488:	ec06                	sd	ra,24(sp)
    5020248a:	e822                	sd	s0,16(sp)
    5020248c:	1000                	addi	s0,sp,32
    5020248e:	87aa                	mv	a5,a0
    50202490:	872e                	mv	a4,a1
    50202492:	fef42623          	sw	a5,-20(s0)
    50202496:	87ba                	mv	a5,a4
    50202498:	fef42423          	sw	a5,-24(s0)
    5020249c:	fec42783          	lw	a5,-20(s0)
    502024a0:	0007871b          	sext.w	a4,a5
    502024a4:	04f00793          	li	a5,79
    502024a8:	00e7d763          	bge	a5,a4,502024b6 <screen_move_cursor+0x30>
    502024ac:	04f00793          	li	a5,79
    502024b0:	fef42623          	sw	a5,-20(s0)
    502024b4:	a801                	j	502024c4 <screen_move_cursor+0x3e>
    502024b6:	fec42783          	lw	a5,-20(s0)
    502024ba:	2781                	sext.w	a5,a5
    502024bc:	0007d463          	bgez	a5,502024c4 <screen_move_cursor+0x3e>
    502024c0:	fe042623          	sw	zero,-20(s0)
    502024c4:	fe842783          	lw	a5,-24(s0)
    502024c8:	0007871b          	sext.w	a4,a5
    502024cc:	03100793          	li	a5,49
    502024d0:	00e7d763          	bge	a5,a4,502024de <screen_move_cursor+0x58>
    502024d4:	03100793          	li	a5,49
    502024d8:	fef42423          	sw	a5,-24(s0)
    502024dc:	a801                	j	502024ec <screen_move_cursor+0x66>
    502024de:	fe842783          	lw	a5,-24(s0)
    502024e2:	2781                	sext.w	a5,a5
    502024e4:	0007d463          	bgez	a5,502024ec <screen_move_cursor+0x66>
    502024e8:	fe042423          	sw	zero,-24(s0)
    502024ec:	8712                	mv	a4,tp
    502024ee:	fec42783          	lw	a5,-20(s0)
    502024f2:	c73c                	sw	a5,72(a4)
    502024f4:	8712                	mv	a4,tp
    502024f6:	fe842783          	lw	a5,-24(s0)
    502024fa:	c77c                	sw	a5,76(a4)
    502024fc:	fec42783          	lw	a5,-20(s0)
    50202500:	2785                	addiw	a5,a5,1
    50202502:	2781                	sext.w	a5,a5
    50202504:	fe842703          	lw	a4,-24(s0)
    50202508:	2705                	addiw	a4,a4,1
    5020250a:	2701                	sext.w	a4,a4
    5020250c:	85ba                	mv	a1,a4
    5020250e:	853e                	mv	a0,a5
    50202510:	d27ff0ef          	jal	50202236 <vt100_move_cursor>
    50202514:	0001                	nop
    50202516:	60e2                	ld	ra,24(sp)
    50202518:	6442                	ld	s0,16(sp)
    5020251a:	6105                	addi	sp,sp,32
    5020251c:	8082                	ret

000000005020251e <screen_write>:
    5020251e:	7179                	addi	sp,sp,-48
    50202520:	f406                	sd	ra,40(sp)
    50202522:	f022                	sd	s0,32(sp)
    50202524:	1800                	addi	s0,sp,48
    50202526:	fca43c23          	sd	a0,-40(s0)
    5020252a:	fe042623          	sw	zero,-20(s0)
    5020252e:	fd843503          	ld	a0,-40(s0)
    50202532:	4a4020ef          	jal	502049d6 <strlen>
    50202536:	87aa                	mv	a5,a0
    50202538:	fef42423          	sw	a5,-24(s0)
    5020253c:	fe042623          	sw	zero,-20(s0)
    50202540:	a005                	j	50202560 <screen_write+0x42>
    50202542:	fec42783          	lw	a5,-20(s0)
    50202546:	fd843703          	ld	a4,-40(s0)
    5020254a:	97ba                	add	a5,a5,a4
    5020254c:	0007c783          	lbu	a5,0(a5)
    50202550:	853e                	mv	a0,a5
    50202552:	d5fff0ef          	jal	502022b0 <screen_write_ch>
    50202556:	fec42783          	lw	a5,-20(s0)
    5020255a:	2785                	addiw	a5,a5,1
    5020255c:	fef42623          	sw	a5,-20(s0)
    50202560:	fec42783          	lw	a5,-20(s0)
    50202564:	873e                	mv	a4,a5
    50202566:	fe842783          	lw	a5,-24(s0)
    5020256a:	2701                	sext.w	a4,a4
    5020256c:	2781                	sext.w	a5,a5
    5020256e:	fcf74ae3          	blt	a4,a5,50202542 <screen_write+0x24>
    50202572:	0001                	nop
    50202574:	0001                	nop
    50202576:	70a2                	ld	ra,40(sp)
    50202578:	7402                	ld	s0,32(sp)
    5020257a:	6145                	addi	sp,sp,48
    5020257c:	8082                	ret

000000005020257e <screen_reflush>:
    5020257e:	1101                	addi	sp,sp,-32
    50202580:	ec06                	sd	ra,24(sp)
    50202582:	e822                	sd	s0,16(sp)
    50202584:	1000                	addi	s0,sp,32
    50202586:	fe042623          	sw	zero,-20(s0)
    5020258a:	a21d                	j	502026b0 <screen_reflush+0x132>
    5020258c:	fe042423          	sw	zero,-24(s0)
    50202590:	a219                	j	50202696 <screen_reflush+0x118>
    50202592:	fec42783          	lw	a5,-20(s0)
    50202596:	873e                	mv	a4,a5
    50202598:	87ba                	mv	a5,a4
    5020259a:	0027979b          	slliw	a5,a5,0x2
    5020259e:	9fb9                	addw	a5,a5,a4
    502025a0:	0047979b          	slliw	a5,a5,0x4
    502025a4:	2781                	sext.w	a5,a5
    502025a6:	fe842703          	lw	a4,-24(s0)
    502025aa:	9fb9                	addw	a5,a5,a4
    502025ac:	2781                	sext.w	a5,a5
    502025ae:	00004717          	auipc	a4,0x4
    502025b2:	60a70713          	addi	a4,a4,1546 # 50206bb8 <new_screen>
    502025b6:	97ba                	add	a5,a5,a4
    502025b8:	0007c683          	lbu	a3,0(a5)
    502025bc:	fec42783          	lw	a5,-20(s0)
    502025c0:	873e                	mv	a4,a5
    502025c2:	87ba                	mv	a5,a4
    502025c4:	0027979b          	slliw	a5,a5,0x2
    502025c8:	9fb9                	addw	a5,a5,a4
    502025ca:	0047979b          	slliw	a5,a5,0x4
    502025ce:	2781                	sext.w	a5,a5
    502025d0:	fe842703          	lw	a4,-24(s0)
    502025d4:	9fb9                	addw	a5,a5,a4
    502025d6:	2781                	sext.w	a5,a5
    502025d8:	00005717          	auipc	a4,0x5
    502025dc:	58070713          	addi	a4,a4,1408 # 50207b58 <old_screen>
    502025e0:	97ba                	add	a5,a5,a4
    502025e2:	0007c783          	lbu	a5,0(a5)
    502025e6:	8736                	mv	a4,a3
    502025e8:	0af70263          	beq	a4,a5,5020268c <screen_reflush+0x10e>
    502025ec:	fe842783          	lw	a5,-24(s0)
    502025f0:	2785                	addiw	a5,a5,1
    502025f2:	2781                	sext.w	a5,a5
    502025f4:	fec42703          	lw	a4,-20(s0)
    502025f8:	2705                	addiw	a4,a4,1
    502025fa:	2701                	sext.w	a4,a4
    502025fc:	85ba                	mv	a1,a4
    502025fe:	853e                	mv	a0,a5
    50202600:	c37ff0ef          	jal	50202236 <vt100_move_cursor>
    50202604:	fec42783          	lw	a5,-20(s0)
    50202608:	873e                	mv	a4,a5
    5020260a:	87ba                	mv	a5,a4
    5020260c:	0027979b          	slliw	a5,a5,0x2
    50202610:	9fb9                	addw	a5,a5,a4
    50202612:	0047979b          	slliw	a5,a5,0x4
    50202616:	2781                	sext.w	a5,a5
    50202618:	fe842703          	lw	a4,-24(s0)
    5020261c:	9fb9                	addw	a5,a5,a4
    5020261e:	2781                	sext.w	a5,a5
    50202620:	00004717          	auipc	a4,0x4
    50202624:	59870713          	addi	a4,a4,1432 # 50206bb8 <new_screen>
    50202628:	97ba                	add	a5,a5,a4
    5020262a:	0007c783          	lbu	a5,0(a5)
    5020262e:	2781                	sext.w	a5,a5
    50202630:	853e                	mv	a0,a5
    50202632:	bdbff0ef          	jal	5020220c <bios_putchar>
    50202636:	fec42783          	lw	a5,-20(s0)
    5020263a:	873e                	mv	a4,a5
    5020263c:	87ba                	mv	a5,a4
    5020263e:	0027979b          	slliw	a5,a5,0x2
    50202642:	9fb9                	addw	a5,a5,a4
    50202644:	0047979b          	slliw	a5,a5,0x4
    50202648:	2781                	sext.w	a5,a5
    5020264a:	fe842703          	lw	a4,-24(s0)
    5020264e:	9fb9                	addw	a5,a5,a4
    50202650:	0007871b          	sext.w	a4,a5
    50202654:	fec42783          	lw	a5,-20(s0)
    50202658:	86be                	mv	a3,a5
    5020265a:	87b6                	mv	a5,a3
    5020265c:	0027979b          	slliw	a5,a5,0x2
    50202660:	9fb5                	addw	a5,a5,a3
    50202662:	0047979b          	slliw	a5,a5,0x4
    50202666:	2781                	sext.w	a5,a5
    50202668:	fe842683          	lw	a3,-24(s0)
    5020266c:	9fb5                	addw	a5,a5,a3
    5020266e:	2781                	sext.w	a5,a5
    50202670:	00004697          	auipc	a3,0x4
    50202674:	54868693          	addi	a3,a3,1352 # 50206bb8 <new_screen>
    50202678:	9736                	add	a4,a4,a3
    5020267a:	00074703          	lbu	a4,0(a4)
    5020267e:	00005697          	auipc	a3,0x5
    50202682:	4da68693          	addi	a3,a3,1242 # 50207b58 <old_screen>
    50202686:	97b6                	add	a5,a5,a3
    50202688:	00e78023          	sb	a4,0(a5)
    5020268c:	fe842783          	lw	a5,-24(s0)
    50202690:	2785                	addiw	a5,a5,1
    50202692:	fef42423          	sw	a5,-24(s0)
    50202696:	fe842783          	lw	a5,-24(s0)
    5020269a:	0007871b          	sext.w	a4,a5
    5020269e:	04f00793          	li	a5,79
    502026a2:	eee7d8e3          	bge	a5,a4,50202592 <screen_reflush+0x14>
    502026a6:	fec42783          	lw	a5,-20(s0)
    502026aa:	2785                	addiw	a5,a5,1
    502026ac:	fef42623          	sw	a5,-20(s0)
    502026b0:	fec42783          	lw	a5,-20(s0)
    502026b4:	0007871b          	sext.w	a4,a5
    502026b8:	03100793          	li	a5,49
    502026bc:	ece7d8e3          	bge	a5,a4,5020258c <screen_reflush+0xe>
    502026c0:	8792                	mv	a5,tp
    502026c2:	47bc                	lw	a5,72(a5)
    502026c4:	2785                	addiw	a5,a5,1
    502026c6:	0007871b          	sext.w	a4,a5
    502026ca:	8792                	mv	a5,tp
    502026cc:	47fc                	lw	a5,76(a5)
    502026ce:	2785                	addiw	a5,a5,1
    502026d0:	2781                	sext.w	a5,a5
    502026d2:	85be                	mv	a1,a5
    502026d4:	853a                	mv	a0,a4
    502026d6:	b61ff0ef          	jal	50202236 <vt100_move_cursor>
    502026da:	0001                	nop
    502026dc:	60e2                	ld	ra,24(sp)
    502026de:	6442                	ld	s0,16(sp)
    502026e0:	6105                	addi	sp,sp,32
    502026e2:	8082                	ret

00000000502026e4 <_panic>:
    502026e4:	7179                	addi	sp,sp,-48
    502026e6:	f406                	sd	ra,40(sp)
    502026e8:	f022                	sd	s0,32(sp)
    502026ea:	1800                	addi	s0,sp,48
    502026ec:	fea43423          	sd	a0,-24(s0)
    502026f0:	87ae                	mv	a5,a1
    502026f2:	fcc43c23          	sd	a2,-40(s0)
    502026f6:	fef42223          	sw	a5,-28(s0)
    502026fa:	fe442783          	lw	a5,-28(s0)
    502026fe:	86be                	mv	a3,a5
    50202700:	fe843603          	ld	a2,-24(s0)
    50202704:	fd843583          	ld	a1,-40(s0)
    50202708:	00003517          	auipc	a0,0x3
    5020270c:	80850513          	addi	a0,a0,-2040 # 50204f10 <strcat+0x2ea>
    50202710:	0d6020ef          	jal	502047e6 <printk>
    50202714:	0001                	nop
    50202716:	bffd                	j	50202714 <_panic+0x30>

0000000050202718 <interrupt_helper>:
    50202718:	7179                	addi	sp,sp,-48
    5020271a:	f406                	sd	ra,40(sp)
    5020271c:	f022                	sd	s0,32(sp)
    5020271e:	1800                	addi	s0,sp,48
    50202720:	fea43423          	sd	a0,-24(s0)
    50202724:	feb43023          	sd	a1,-32(s0)
    50202728:	fcc43c23          	sd	a2,-40(s0)
    5020272c:	fd843783          	ld	a5,-40(s0)
    50202730:	0207d663          	bgez	a5,5020275c <interrupt_helper+0x44>
    50202734:	fd843703          	ld	a4,-40(s0)
    50202738:	57fd                	li	a5,-1
    5020273a:	8385                	srli	a5,a5,0x1
    5020273c:	8ff9                	and	a5,a5,a4
    5020273e:	00006717          	auipc	a4,0x6
    50202742:	3ba70713          	addi	a4,a4,954 # 50208af8 <irq_table>
    50202746:	078e                	slli	a5,a5,0x3
    50202748:	97ba                	add	a5,a5,a4
    5020274a:	639c                	ld	a5,0(a5)
    5020274c:	fd843603          	ld	a2,-40(s0)
    50202750:	fe043583          	ld	a1,-32(s0)
    50202754:	fe843503          	ld	a0,-24(s0)
    50202758:	9782                	jalr	a5
    5020275a:	a00d                	j	5020277c <interrupt_helper+0x64>
    5020275c:	00006717          	auipc	a4,0x6
    50202760:	3fc70713          	addi	a4,a4,1020 # 50208b58 <exc_table>
    50202764:	fd843783          	ld	a5,-40(s0)
    50202768:	078e                	slli	a5,a5,0x3
    5020276a:	97ba                	add	a5,a5,a4
    5020276c:	639c                	ld	a5,0(a5)
    5020276e:	fd843603          	ld	a2,-40(s0)
    50202772:	fe043583          	ld	a1,-32(s0)
    50202776:	fe843503          	ld	a0,-24(s0)
    5020277a:	9782                	jalr	a5
    5020277c:	0001                	nop
    5020277e:	70a2                	ld	ra,40(sp)
    50202780:	7402                	ld	s0,32(sp)
    50202782:	6145                	addi	sp,sp,48
    50202784:	8082                	ret

0000000050202786 <handle_irq_timer>:
    50202786:	7179                	addi	sp,sp,-48
    50202788:	f406                	sd	ra,40(sp)
    5020278a:	f022                	sd	s0,32(sp)
    5020278c:	1800                	addi	s0,sp,48
    5020278e:	fea43423          	sd	a0,-24(s0)
    50202792:	feb43023          	sd	a1,-32(s0)
    50202796:	fcc43c23          	sd	a2,-40(s0)
    5020279a:	53e010ef          	jal	50203cd8 <get_ticks>
    5020279e:	87aa                	mv	a5,a0
    502027a0:	5dc78793          	addi	a5,a5,1500
    502027a4:	853e                	mv	a0,a5
    502027a6:	961ff0ef          	jal	50202106 <set_timer>
    502027aa:	8792                	mv	a5,tp
    502027ac:	cf99                	beqz	a5,502027ca <handle_irq_timer+0x44>
    502027ae:	8792                	mv	a5,tp
    502027b0:	43f8                	lw	a4,68(a5)
    502027b2:	4785                	li	a5,1
    502027b4:	00f71b63          	bne	a4,a5,502027ca <handle_irq_timer+0x44>
    502027b8:	8792                	mv	a5,tp
    502027ba:	5ffc                	lw	a5,124(a5)
    502027bc:	00f05763          	blez	a5,502027ca <handle_irq_timer+0x44>
    502027c0:	8792                	mv	a5,tp
    502027c2:	5ff8                	lw	a4,124(a5)
    502027c4:	377d                	addiw	a4,a4,-1
    502027c6:	2701                	sext.w	a4,a4
    502027c8:	dff8                	sw	a4,124(a5)
    502027ca:	28d000ef          	jal	50203256 <do_scheduler>
    502027ce:	0001                	nop
    502027d0:	70a2                	ld	ra,40(sp)
    502027d2:	7402                	ld	s0,32(sp)
    502027d4:	6145                	addi	sp,sp,48
    502027d6:	8082                	ret

00000000502027d8 <init_exception>:
    502027d8:	1101                	addi	sp,sp,-32
    502027da:	ec06                	sd	ra,24(sp)
    502027dc:	e822                	sd	s0,16(sp)
    502027de:	1000                	addi	s0,sp,32
    502027e0:	fe042623          	sw	zero,-20(s0)
    502027e4:	a01d                	j	5020280a <init_exception+0x32>
    502027e6:	00006717          	auipc	a4,0x6
    502027ea:	37270713          	addi	a4,a4,882 # 50208b58 <exc_table>
    502027ee:	fec42783          	lw	a5,-20(s0)
    502027f2:	078e                	slli	a5,a5,0x3
    502027f4:	97ba                	add	a5,a5,a4
    502027f6:	00000717          	auipc	a4,0x0
    502027fa:	08c70713          	addi	a4,a4,140 # 50202882 <handle_other>
    502027fe:	e398                	sd	a4,0(a5)
    50202800:	fec42783          	lw	a5,-20(s0)
    50202804:	2785                	addiw	a5,a5,1
    50202806:	fef42623          	sw	a5,-20(s0)
    5020280a:	fec42783          	lw	a5,-20(s0)
    5020280e:	0007871b          	sext.w	a4,a5
    50202812:	47bd                	li	a5,15
    50202814:	fce7d9e3          	bge	a5,a4,502027e6 <init_exception+0xe>
    50202818:	00006797          	auipc	a5,0x6
    5020281c:	34078793          	addi	a5,a5,832 # 50208b58 <exc_table>
    50202820:	00001717          	auipc	a4,0x1
    50202824:	5a270713          	addi	a4,a4,1442 # 50203dc2 <handle_syscall>
    50202828:	e3b8                	sd	a4,64(a5)
    5020282a:	fe042423          	sw	zero,-24(s0)
    5020282e:	a01d                	j	50202854 <init_exception+0x7c>
    50202830:	00006717          	auipc	a4,0x6
    50202834:	2c870713          	addi	a4,a4,712 # 50208af8 <irq_table>
    50202838:	fe842783          	lw	a5,-24(s0)
    5020283c:	078e                	slli	a5,a5,0x3
    5020283e:	97ba                	add	a5,a5,a4
    50202840:	00000717          	auipc	a4,0x0
    50202844:	04270713          	addi	a4,a4,66 # 50202882 <handle_other>
    50202848:	e398                	sd	a4,0(a5)
    5020284a:	fe842783          	lw	a5,-24(s0)
    5020284e:	2785                	addiw	a5,a5,1
    50202850:	fef42423          	sw	a5,-24(s0)
    50202854:	fe842783          	lw	a5,-24(s0)
    50202858:	0007871b          	sext.w	a4,a5
    5020285c:	47ad                	li	a5,11
    5020285e:	fce7d9e3          	bge	a5,a4,50202830 <init_exception+0x58>
    50202862:	00006797          	auipc	a5,0x6
    50202866:	29678793          	addi	a5,a5,662 # 50208af8 <irq_table>
    5020286a:	00000717          	auipc	a4,0x0
    5020286e:	f1c70713          	addi	a4,a4,-228 # 50202786 <handle_irq_timer>
    50202872:	f798                	sd	a4,40(a5)
    50202874:	95dfe0ef          	jal	502011d0 <setup_exception>
    50202878:	0001                	nop
    5020287a:	60e2                	ld	ra,24(sp)
    5020287c:	6442                	ld	s0,16(sp)
    5020287e:	6105                	addi	sp,sp,32
    50202880:	8082                	ret

0000000050202882 <handle_other>:
    50202882:	7129                	addi	sp,sp,-320
    50202884:	fe06                	sd	ra,312(sp)
    50202886:	fa22                	sd	s0,304(sp)
    50202888:	0280                	addi	s0,sp,320
    5020288a:	eca43c23          	sd	a0,-296(s0)
    5020288e:	ecb43823          	sd	a1,-304(s0)
    50202892:	ecc43423          	sd	a2,-312(s0)
    50202896:	00003717          	auipc	a4,0x3
    5020289a:	83270713          	addi	a4,a4,-1998 # 502050c8 <strcat+0x4a2>
    5020289e:	ee840793          	addi	a5,s0,-280
    502028a2:	86ba                	mv	a3,a4
    502028a4:	10000713          	li	a4,256
    502028a8:	863a                	mv	a2,a4
    502028aa:	85b6                	mv	a1,a3
    502028ac:	853e                	mv	a0,a5
    502028ae:	050020ef          	jal	502048fe <memcpy>
    502028b2:	fe042623          	sw	zero,-20(s0)
    502028b6:	a079                	j	50202944 <handle_other+0xc2>
    502028b8:	fe042423          	sw	zero,-24(s0)
    502028bc:	a0b9                	j	5020290a <handle_other+0x88>
    502028be:	fec42783          	lw	a5,-20(s0)
    502028c2:	873e                	mv	a4,a5
    502028c4:	fe842783          	lw	a5,-24(s0)
    502028c8:	9fb9                	addw	a5,a5,a4
    502028ca:	0007871b          	sext.w	a4,a5
    502028ce:	ee840793          	addi	a5,s0,-280
    502028d2:	070e                	slli	a4,a4,0x3
    502028d4:	97ba                	add	a5,a5,a4
    502028d6:	6394                	ld	a3,0(a5)
    502028d8:	fec42783          	lw	a5,-20(s0)
    502028dc:	873e                	mv	a4,a5
    502028de:	fe842783          	lw	a5,-24(s0)
    502028e2:	9fb9                	addw	a5,a5,a4
    502028e4:	2781                	sext.w	a5,a5
    502028e6:	ed843703          	ld	a4,-296(s0)
    502028ea:	078e                	slli	a5,a5,0x3
    502028ec:	97ba                	add	a5,a5,a4
    502028ee:	639c                	ld	a5,0(a5)
    502028f0:	863e                	mv	a2,a5
    502028f2:	85b6                	mv	a1,a3
    502028f4:	00002517          	auipc	a0,0x2
    502028f8:	64450513          	addi	a0,a0,1604 # 50204f38 <strcat+0x312>
    502028fc:	6eb010ef          	jal	502047e6 <printk>
    50202900:	fe842783          	lw	a5,-24(s0)
    50202904:	2785                	addiw	a5,a5,1
    50202906:	fef42423          	sw	a5,-24(s0)
    5020290a:	fe842783          	lw	a5,-24(s0)
    5020290e:	0007871b          	sext.w	a4,a5
    50202912:	4789                	li	a5,2
    50202914:	00e7cd63          	blt	a5,a4,5020292e <handle_other+0xac>
    50202918:	fec42783          	lw	a5,-20(s0)
    5020291c:	873e                	mv	a4,a5
    5020291e:	fe842783          	lw	a5,-24(s0)
    50202922:	9fb9                	addw	a5,a5,a4
    50202924:	0007871b          	sext.w	a4,a5
    50202928:	47fd                	li	a5,31
    5020292a:	f8e7dae3          	bge	a5,a4,502028be <handle_other+0x3c>
    5020292e:	00002517          	auipc	a0,0x2
    50202932:	61a50513          	addi	a0,a0,1562 # 50204f48 <strcat+0x322>
    50202936:	6b1010ef          	jal	502047e6 <printk>
    5020293a:	fec42783          	lw	a5,-20(s0)
    5020293e:	278d                	addiw	a5,a5,3
    50202940:	fef42623          	sw	a5,-20(s0)
    50202944:	fec42783          	lw	a5,-20(s0)
    50202948:	0007871b          	sext.w	a4,a5
    5020294c:	47fd                	li	a5,31
    5020294e:	f6e7d5e3          	bge	a5,a4,502028b8 <handle_other+0x36>
    50202952:	ed843783          	ld	a5,-296(s0)
    50202956:	1007b703          	ld	a4,256(a5)
    5020295a:	ed843783          	ld	a5,-296(s0)
    5020295e:	1107b603          	ld	a2,272(a5)
    50202962:	ed843783          	ld	a5,-296(s0)
    50202966:	1187b783          	ld	a5,280(a5)
    5020296a:	86be                	mv	a3,a5
    5020296c:	85ba                	mv	a1,a4
    5020296e:	00002517          	auipc	a0,0x2
    50202972:	5e250513          	addi	a0,a0,1506 # 50204f50 <strcat+0x32a>
    50202976:	671010ef          	jal	502047e6 <printk>
    5020297a:	ed843783          	ld	a5,-296(s0)
    5020297e:	1087b783          	ld	a5,264(a5)
    50202982:	85be                	mv	a1,a5
    50202984:	00002517          	auipc	a0,0x2
    50202988:	5fc50513          	addi	a0,a0,1532 # 50204f80 <strcat+0x35a>
    5020298c:	65b010ef          	jal	502047e6 <printk>
    50202990:	ec843603          	ld	a2,-312(s0)
    50202994:	ed043583          	ld	a1,-304(s0)
    50202998:	00002517          	auipc	a0,0x2
    5020299c:	5f850513          	addi	a0,a0,1528 # 50204f90 <strcat+0x36a>
    502029a0:	647010ef          	jal	502047e6 <printk>
    502029a4:	00003617          	auipc	a2,0x3
    502029a8:	82460613          	addi	a2,a2,-2012 # 502051c8 <__FUNCTION__.0>
    502029ac:	04d00593          	li	a1,77
    502029b0:	00002517          	auipc	a0,0x2
    502029b4:	60050513          	addi	a0,a0,1536 # 50204fb0 <strcat+0x38a>
    502029b8:	d2dff0ef          	jal	502026e4 <_panic>
    502029bc:	0001                	nop
    502029be:	70f2                	ld	ra,312(sp)
    502029c0:	7452                	ld	s0,304(sp)
    502029c2:	6131                	addi	sp,sp,320
    502029c4:	8082                	ret

00000000502029c6 <call_jmptab>:
    502029c6:	715d                	addi	sp,sp,-80
    502029c8:	e486                	sd	ra,72(sp)
    502029ca:	e0a2                	sd	s0,64(sp)
    502029cc:	0880                	addi	s0,sp,80
    502029ce:	fca43c23          	sd	a0,-40(s0)
    502029d2:	fcb43823          	sd	a1,-48(s0)
    502029d6:	fcc43423          	sd	a2,-56(s0)
    502029da:	fcd43023          	sd	a3,-64(s0)
    502029de:	fae43c23          	sd	a4,-72(s0)
    502029e2:	faf43823          	sd	a5,-80(s0)
    502029e6:	fd843703          	ld	a4,-40(s0)
    502029ea:	0a4007b7          	lui	a5,0xa400
    502029ee:	1781                	addi	a5,a5,-32 # a3fffe0 <_start-0x45e01020>
    502029f0:	97ba                	add	a5,a5,a4
    502029f2:	078e                	slli	a5,a5,0x3
    502029f4:	639c                	ld	a5,0(a5)
    502029f6:	fef43423          	sd	a5,-24(s0)
    502029fa:	fe843783          	ld	a5,-24(s0)
    502029fe:	fef43023          	sd	a5,-32(s0)
    50202a02:	fe043783          	ld	a5,-32(s0)
    50202a06:	fb043703          	ld	a4,-80(s0)
    50202a0a:	fb843683          	ld	a3,-72(s0)
    50202a0e:	fc043603          	ld	a2,-64(s0)
    50202a12:	fc843583          	ld	a1,-56(s0)
    50202a16:	fd043503          	ld	a0,-48(s0)
    50202a1a:	9782                	jalr	a5
    50202a1c:	87aa                	mv	a5,a0
    50202a1e:	853e                	mv	a0,a5
    50202a20:	60a6                	ld	ra,72(sp)
    50202a22:	6406                	ld	s0,64(sp)
    50202a24:	6161                	addi	sp,sp,80
    50202a26:	8082                	ret

0000000050202a28 <bios_putstr>:
    50202a28:	1101                	addi	sp,sp,-32
    50202a2a:	ec06                	sd	ra,24(sp)
    50202a2c:	e822                	sd	s0,16(sp)
    50202a2e:	1000                	addi	s0,sp,32
    50202a30:	fea43423          	sd	a0,-24(s0)
    50202a34:	fe843583          	ld	a1,-24(s0)
    50202a38:	4781                	li	a5,0
    50202a3a:	4701                	li	a4,0
    50202a3c:	4681                	li	a3,0
    50202a3e:	4601                	li	a2,0
    50202a40:	4501                	li	a0,0
    50202a42:	f85ff0ef          	jal	502029c6 <call_jmptab>
    50202a46:	0001                	nop
    50202a48:	60e2                	ld	ra,24(sp)
    50202a4a:	6442                	ld	s0,16(sp)
    50202a4c:	6105                	addi	sp,sp,32
    50202a4e:	8082                	ret

0000000050202a50 <bios_sd_read>:
    50202a50:	1101                	addi	sp,sp,-32
    50202a52:	ec06                	sd	ra,24(sp)
    50202a54:	e822                	sd	s0,16(sp)
    50202a56:	1000                	addi	s0,sp,32
    50202a58:	87aa                	mv	a5,a0
    50202a5a:	86ae                	mv	a3,a1
    50202a5c:	8732                	mv	a4,a2
    50202a5e:	fef42623          	sw	a5,-20(s0)
    50202a62:	87b6                	mv	a5,a3
    50202a64:	fef42423          	sw	a5,-24(s0)
    50202a68:	87ba                	mv	a5,a4
    50202a6a:	fef42223          	sw	a5,-28(s0)
    50202a6e:	fec46583          	lwu	a1,-20(s0)
    50202a72:	fe846603          	lwu	a2,-24(s0)
    50202a76:	fe446683          	lwu	a3,-28(s0)
    50202a7a:	4781                	li	a5,0
    50202a7c:	4701                	li	a4,0
    50202a7e:	450d                	li	a0,3
    50202a80:	f47ff0ef          	jal	502029c6 <call_jmptab>
    50202a84:	87aa                	mv	a5,a0
    50202a86:	2781                	sext.w	a5,a5
    50202a88:	853e                	mv	a0,a5
    50202a8a:	60e2                	ld	ra,24(sp)
    50202a8c:	6442                	ld	s0,16(sp)
    50202a8e:	6105                	addi	sp,sp,32
    50202a90:	8082                	ret

0000000050202a92 <load_task_img>:
    50202a92:	715d                	addi	sp,sp,-80
    50202a94:	e486                	sd	ra,72(sp)
    50202a96:	e0a2                	sd	s0,64(sp)
    50202a98:	0880                	addi	s0,sp,80
    50202a9a:	fca43423          	sd	a0,-56(s0)
    50202a9e:	fcb43023          	sd	a1,-64(s0)
    50202aa2:	87b2                	mv	a5,a2
    50202aa4:	faf42e23          	sw	a5,-68(s0)
    50202aa8:	fe042623          	sw	zero,-20(s0)
    50202aac:	fe042423          	sw	zero,-24(s0)
    50202ab0:	fe042223          	sw	zero,-28(s0)
    50202ab4:	a081                	j	50202af4 <load_task_img+0x62>
    50202ab6:	fe442703          	lw	a4,-28(s0)
    50202aba:	87ba                	mv	a5,a4
    50202abc:	078a                	slli	a5,a5,0x2
    50202abe:	97ba                	add	a5,a5,a4
    50202ac0:	078e                	slli	a5,a5,0x3
    50202ac2:	873e                	mv	a4,a5
    50202ac4:	fc043783          	ld	a5,-64(s0)
    50202ac8:	97ba                	add	a5,a5,a4
    50202aca:	07d1                	addi	a5,a5,20
    50202acc:	fc843583          	ld	a1,-56(s0)
    50202ad0:	853e                	mv	a0,a5
    50202ad2:	73f010ef          	jal	50204a10 <strcmp>
    50202ad6:	87aa                	mv	a5,a0
    50202ad8:	eb89                	bnez	a5,50202aea <load_task_img+0x58>
    50202ada:	4785                	li	a5,1
    50202adc:	fef42623          	sw	a5,-20(s0)
    50202ae0:	fe442783          	lw	a5,-28(s0)
    50202ae4:	fef42423          	sw	a5,-24(s0)
    50202ae8:	a839                	j	50202b06 <load_task_img+0x74>
    50202aea:	fe442783          	lw	a5,-28(s0)
    50202aee:	2785                	addiw	a5,a5,1
    50202af0:	fef42223          	sw	a5,-28(s0)
    50202af4:	fe442783          	lw	a5,-28(s0)
    50202af8:	873e                	mv	a4,a5
    50202afa:	fbc42783          	lw	a5,-68(s0)
    50202afe:	2701                	sext.w	a4,a4
    50202b00:	2781                	sext.w	a5,a5
    50202b02:	faf74ae3          	blt	a4,a5,50202ab6 <load_task_img+0x24>
    50202b06:	fec42783          	lw	a5,-20(s0)
    50202b0a:	2781                	sext.w	a5,a5
    50202b0c:	eb89                	bnez	a5,50202b1e <load_task_img+0x8c>
    50202b0e:	00002517          	auipc	a0,0x2
    50202b12:	6ca50513          	addi	a0,a0,1738 # 502051d8 <__FUNCTION__.0+0x10>
    50202b16:	f13ff0ef          	jal	50202a28 <bios_putstr>
    50202b1a:	4781                	li	a5,0
    50202b1c:	a20d                	j	50202c3e <load_task_img+0x1ac>
    50202b1e:	fe842703          	lw	a4,-24(s0)
    50202b22:	87ba                	mv	a5,a4
    50202b24:	078a                	slli	a5,a5,0x2
    50202b26:	97ba                	add	a5,a5,a4
    50202b28:	078e                	slli	a5,a5,0x3
    50202b2a:	873e                	mv	a4,a5
    50202b2c:	fc043783          	ld	a5,-64(s0)
    50202b30:	97ba                	add	a5,a5,a4
    50202b32:	639c                	ld	a5,0(a5)
    50202b34:	fcf43c23          	sd	a5,-40(s0)
    50202b38:	fe842703          	lw	a4,-24(s0)
    50202b3c:	87ba                	mv	a5,a4
    50202b3e:	078a                	slli	a5,a5,0x2
    50202b40:	97ba                	add	a5,a5,a4
    50202b42:	078e                	slli	a5,a5,0x3
    50202b44:	873e                	mv	a4,a5
    50202b46:	fc043783          	ld	a5,-64(s0)
    50202b4a:	97ba                	add	a5,a5,a4
    50202b4c:	47d4                	lw	a3,12(a5)
    50202b4e:	fe842703          	lw	a4,-24(s0)
    50202b52:	87ba                	mv	a5,a4
    50202b54:	078a                	slli	a5,a5,0x2
    50202b56:	97ba                	add	a5,a5,a4
    50202b58:	078e                	slli	a5,a5,0x3
    50202b5a:	873e                	mv	a4,a5
    50202b5c:	fc043783          	ld	a5,-64(s0)
    50202b60:	97ba                	add	a5,a5,a4
    50202b62:	4b9c                	lw	a5,16(a5)
    50202b64:	9fb5                	addw	a5,a5,a3
    50202b66:	2781                	sext.w	a5,a5
    50202b68:	41f7d71b          	sraiw	a4,a5,0x1f
    50202b6c:	0177571b          	srliw	a4,a4,0x17
    50202b70:	9fb9                	addw	a5,a5,a4
    50202b72:	4097d79b          	sraiw	a5,a5,0x9
    50202b76:	0007869b          	sext.w	a3,a5
    50202b7a:	fe842703          	lw	a4,-24(s0)
    50202b7e:	87ba                	mv	a5,a4
    50202b80:	078a                	slli	a5,a5,0x2
    50202b82:	97ba                	add	a5,a5,a4
    50202b84:	078e                	slli	a5,a5,0x3
    50202b86:	873e                	mv	a4,a5
    50202b88:	fc043783          	ld	a5,-64(s0)
    50202b8c:	97ba                	add	a5,a5,a4
    50202b8e:	47dc                	lw	a5,12(a5)
    50202b90:	41f7d71b          	sraiw	a4,a5,0x1f
    50202b94:	0177571b          	srliw	a4,a4,0x17
    50202b98:	9fb9                	addw	a5,a5,a4
    50202b9a:	4097d79b          	sraiw	a5,a5,0x9
    50202b9e:	40f007bb          	negw	a5,a5
    50202ba2:	2781                	sext.w	a5,a5
    50202ba4:	9fb5                	addw	a5,a5,a3
    50202ba6:	2781                	sext.w	a5,a5
    50202ba8:	2785                	addiw	a5,a5,1
    50202baa:	2781                	sext.w	a5,a5
    50202bac:	86be                	mv	a3,a5
    50202bae:	fe842703          	lw	a4,-24(s0)
    50202bb2:	87ba                	mv	a5,a4
    50202bb4:	078a                	slli	a5,a5,0x2
    50202bb6:	97ba                	add	a5,a5,a4
    50202bb8:	078e                	slli	a5,a5,0x3
    50202bba:	873e                	mv	a4,a5
    50202bbc:	fc043783          	ld	a5,-64(s0)
    50202bc0:	97ba                	add	a5,a5,a4
    50202bc2:	47dc                	lw	a5,12(a5)
    50202bc4:	41f7d71b          	sraiw	a4,a5,0x1f
    50202bc8:	0177571b          	srliw	a4,a4,0x17
    50202bcc:	9fb9                	addw	a5,a5,a4
    50202bce:	4097d79b          	sraiw	a5,a5,0x9
    50202bd2:	2781                	sext.w	a5,a5
    50202bd4:	863e                	mv	a2,a5
    50202bd6:	85b6                	mv	a1,a3
    50202bd8:	59000537          	lui	a0,0x59000
    50202bdc:	e75ff0ef          	jal	50202a50 <bios_sd_read>
    50202be0:	fd843683          	ld	a3,-40(s0)
    50202be4:	fe842703          	lw	a4,-24(s0)
    50202be8:	87ba                	mv	a5,a4
    50202bea:	078a                	slli	a5,a5,0x2
    50202bec:	97ba                	add	a5,a5,a4
    50202bee:	078e                	slli	a5,a5,0x3
    50202bf0:	873e                	mv	a4,a5
    50202bf2:	fc043783          	ld	a5,-64(s0)
    50202bf6:	97ba                	add	a5,a5,a4
    50202bf8:	47dc                	lw	a5,12(a5)
    50202bfa:	873e                	mv	a4,a5
    50202bfc:	41f7579b          	sraiw	a5,a4,0x1f
    50202c00:	0177d79b          	srliw	a5,a5,0x17
    50202c04:	9f3d                	addw	a4,a4,a5
    50202c06:	1ff77713          	andi	a4,a4,511
    50202c0a:	40f707bb          	subw	a5,a4,a5
    50202c0e:	0007871b          	sext.w	a4,a5
    50202c12:	590007b7          	lui	a5,0x59000
    50202c16:	9fb9                	addw	a5,a5,a4
    50202c18:	2781                	sext.w	a5,a5
    50202c1a:	85be                	mv	a1,a5
    50202c1c:	fe842703          	lw	a4,-24(s0)
    50202c20:	87ba                	mv	a5,a4
    50202c22:	078a                	slli	a5,a5,0x2
    50202c24:	97ba                	add	a5,a5,a4
    50202c26:	078e                	slli	a5,a5,0x3
    50202c28:	873e                	mv	a4,a5
    50202c2a:	fc043783          	ld	a5,-64(s0)
    50202c2e:	97ba                	add	a5,a5,a4
    50202c30:	4b9c                	lw	a5,16(a5)
    50202c32:	863e                	mv	a2,a5
    50202c34:	8536                	mv	a0,a3
    50202c36:	4c9010ef          	jal	502048fe <memcpy>
    50202c3a:	fd843783          	ld	a5,-40(s0)
    50202c3e:	853e                	mv	a0,a5
    50202c40:	60a6                	ld	ra,72(sp)
    50202c42:	6406                	ld	s0,64(sp)
    50202c44:	6161                	addi	sp,sp,80
    50202c46:	8082                	ret

0000000050202c48 <excute_by_name>:
    50202c48:	7135                	addi	sp,sp,-160
    50202c4a:	ed06                	sd	ra,152(sp)
    50202c4c:	e922                	sd	s0,144(sp)
    50202c4e:	e526                	sd	s1,136(sp)
    50202c50:	e14a                	sd	s2,128(sp)
    50202c52:	fcce                	sd	s3,120(sp)
    50202c54:	f8d2                	sd	s4,112(sp)
    50202c56:	f4d6                	sd	s5,104(sp)
    50202c58:	f0da                	sd	s6,96(sp)
    50202c5a:	ecde                	sd	s7,88(sp)
    50202c5c:	e8e2                	sd	s8,80(sp)
    50202c5e:	e4e6                	sd	s9,72(sp)
    50202c60:	1100                	addi	s0,sp,160
    50202c62:	f6a43c23          	sd	a0,-136(s0)
    50202c66:	f6b43823          	sd	a1,-144(s0)
    50202c6a:	87b2                	mv	a5,a2
    50202c6c:	8736                	mv	a4,a3
    50202c6e:	f6f42623          	sw	a5,-148(s0)
    50202c72:	87ba                	mv	a5,a4
    50202c74:	f6f42423          	sw	a5,-152(s0)
    50202c78:	878a                	mv	a5,sp
    50202c7a:	84be                	mv	s1,a5
    50202c7c:	f6c42783          	lw	a5,-148(s0)
    50202c80:	863e                	mv	a2,a5
    50202c82:	f7043583          	ld	a1,-144(s0)
    50202c86:	f7843503          	ld	a0,-136(s0)
    50202c8a:	e09ff0ef          	jal	50202a92 <load_task_img>
    50202c8e:	f8a43c23          	sd	a0,-104(s0)
    50202c92:	4789                	li	a5,2
    50202c94:	f8f42a23          	sw	a5,-108(s0)
    50202c98:	f9442783          	lw	a5,-108(s0)
    50202c9c:	873e                	mv	a4,a5
    50202c9e:	177d                	addi	a4,a4,-1
    50202ca0:	f8e43423          	sd	a4,-120(s0)
    50202ca4:	873e                	mv	a4,a5
    50202ca6:	8c3a                	mv	s8,a4
    50202ca8:	4c81                	li	s9,0
    50202caa:	03ac5713          	srli	a4,s8,0x3a
    50202cae:	006c9a93          	slli	s5,s9,0x6
    50202cb2:	9aba                	add	s5,s5,a4
    50202cb4:	006c1a13          	slli	s4,s8,0x6
    50202cb8:	873e                	mv	a4,a5
    50202cba:	8b3a                	mv	s6,a4
    50202cbc:	4b81                	li	s7,0
    50202cbe:	03ab5713          	srli	a4,s6,0x3a
    50202cc2:	006b9993          	slli	s3,s7,0x6
    50202cc6:	99ba                	add	s3,s3,a4
    50202cc8:	006b1913          	slli	s2,s6,0x6
    50202ccc:	078e                	slli	a5,a5,0x3
    50202cce:	07bd                	addi	a5,a5,15 # 5900000f <__BSS_END__+0x8df6637>
    50202cd0:	8391                	srli	a5,a5,0x4
    50202cd2:	0792                	slli	a5,a5,0x4
    50202cd4:	40f10133          	sub	sp,sp,a5
    50202cd8:	878a                	mv	a5,sp
    50202cda:	079d                	addi	a5,a5,7
    50202cdc:	838d                	srli	a5,a5,0x3
    50202cde:	078e                	slli	a5,a5,0x3
    50202ce0:	f8f43023          	sd	a5,-128(s0)
    50202ce4:	f8043783          	ld	a5,-128(s0)
    50202ce8:	00002717          	auipc	a4,0x2
    50202cec:	50870713          	addi	a4,a4,1288 # 502051f0 <__FUNCTION__.0+0x28>
    50202cf0:	e398                	sd	a4,0(a5)
    50202cf2:	f6842783          	lw	a5,-152(s0)
    50202cf6:	2781                	sext.w	a5,a5
    50202cf8:	cb89                	beqz	a5,50202d0a <excute_by_name+0xc2>
    50202cfa:	f8043783          	ld	a5,-128(s0)
    50202cfe:	00002717          	auipc	a4,0x2
    50202d02:	4fa70713          	addi	a4,a4,1274 # 502051f8 <__FUNCTION__.0+0x30>
    50202d06:	e798                	sd	a4,8(a5)
    50202d08:	a801                	j	50202d18 <excute_by_name+0xd0>
    50202d0a:	f8043783          	ld	a5,-128(s0)
    50202d0e:	00002717          	auipc	a4,0x2
    50202d12:	4f270713          	addi	a4,a4,1266 # 50205200 <__FUNCTION__.0+0x38>
    50202d16:	e798                	sd	a4,8(a5)
    50202d18:	f9843783          	ld	a5,-104(s0)
    50202d1c:	cb89                	beqz	a5,50202d2e <excute_by_name+0xe6>
    50202d1e:	f9843783          	ld	a5,-104(s0)
    50202d22:	f9442703          	lw	a4,-108(s0)
    50202d26:	f8043583          	ld	a1,-128(s0)
    50202d2a:	853a                	mv	a0,a4
    50202d2c:	9782                	jalr	a5
    50202d2e:	8126                	mv	sp,s1
    50202d30:	0001                	nop
    50202d32:	f6040113          	addi	sp,s0,-160
    50202d36:	60ea                	ld	ra,152(sp)
    50202d38:	644a                	ld	s0,144(sp)
    50202d3a:	64aa                	ld	s1,136(sp)
    50202d3c:	690a                	ld	s2,128(sp)
    50202d3e:	79e6                	ld	s3,120(sp)
    50202d40:	7a46                	ld	s4,112(sp)
    50202d42:	7aa6                	ld	s5,104(sp)
    50202d44:	7b06                	ld	s6,96(sp)
    50202d46:	6be6                	ld	s7,88(sp)
    50202d48:	6c46                	ld	s8,80(sp)
    50202d4a:	6ca6                	ld	s9,72(sp)
    50202d4c:	610d                	addi	sp,sp,160
    50202d4e:	8082                	ret

0000000050202d50 <init_locks>:
    50202d50:	1101                	addi	sp,sp,-32
    50202d52:	ec06                	sd	ra,24(sp)
    50202d54:	e822                	sd	s0,16(sp)
    50202d56:	1000                	addi	s0,sp,32
    50202d58:	fe042623          	sw	zero,-20(s0)
    50202d5c:	a055                	j	50202e00 <init_locks+0xb0>
    50202d5e:	00006697          	auipc	a3,0x6
    50202d62:	e7a68693          	addi	a3,a3,-390 # 50208bd8 <mlocks>
    50202d66:	fec42703          	lw	a4,-20(s0)
    50202d6a:	87ba                	mv	a5,a4
    50202d6c:	078a                	slli	a5,a5,0x2
    50202d6e:	97ba                	add	a5,a5,a4
    50202d70:	078e                	slli	a5,a5,0x3
    50202d72:	97b6                	add	a5,a5,a3
    50202d74:	0007a023          	sw	zero,0(a5)
    50202d78:	fec42703          	lw	a4,-20(s0)
    50202d7c:	87ba                	mv	a5,a4
    50202d7e:	078a                	slli	a5,a5,0x2
    50202d80:	97ba                	add	a5,a5,a4
    50202d82:	078e                	slli	a5,a5,0x3
    50202d84:	00006717          	auipc	a4,0x6
    50202d88:	e5470713          	addi	a4,a4,-428 # 50208bd8 <mlocks>
    50202d8c:	97ba                	add	a5,a5,a4
    50202d8e:	00878693          	addi	a3,a5,8
    50202d92:	00006617          	auipc	a2,0x6
    50202d96:	e4660613          	addi	a2,a2,-442 # 50208bd8 <mlocks>
    50202d9a:	fec42703          	lw	a4,-20(s0)
    50202d9e:	87ba                	mv	a5,a4
    50202da0:	078a                	slli	a5,a5,0x2
    50202da2:	97ba                	add	a5,a5,a4
    50202da4:	078e                	slli	a5,a5,0x3
    50202da6:	97b2                	add	a5,a5,a2
    50202da8:	e794                	sd	a3,8(a5)
    50202daa:	fec42703          	lw	a4,-20(s0)
    50202dae:	87ba                	mv	a5,a4
    50202db0:	078a                	slli	a5,a5,0x2
    50202db2:	97ba                	add	a5,a5,a4
    50202db4:	078e                	slli	a5,a5,0x3
    50202db6:	00006717          	auipc	a4,0x6
    50202dba:	e2270713          	addi	a4,a4,-478 # 50208bd8 <mlocks>
    50202dbe:	97ba                	add	a5,a5,a4
    50202dc0:	00878693          	addi	a3,a5,8
    50202dc4:	00006617          	auipc	a2,0x6
    50202dc8:	e1460613          	addi	a2,a2,-492 # 50208bd8 <mlocks>
    50202dcc:	fec42703          	lw	a4,-20(s0)
    50202dd0:	87ba                	mv	a5,a4
    50202dd2:	078a                	slli	a5,a5,0x2
    50202dd4:	97ba                	add	a5,a5,a4
    50202dd6:	078e                	slli	a5,a5,0x3
    50202dd8:	97b2                	add	a5,a5,a2
    50202dda:	eb94                	sd	a3,16(a5)
    50202ddc:	00006697          	auipc	a3,0x6
    50202de0:	dfc68693          	addi	a3,a3,-516 # 50208bd8 <mlocks>
    50202de4:	fec42703          	lw	a4,-20(s0)
    50202de8:	87ba                	mv	a5,a4
    50202dea:	078a                	slli	a5,a5,0x2
    50202dec:	97ba                	add	a5,a5,a4
    50202dee:	078e                	slli	a5,a5,0x3
    50202df0:	97b6                	add	a5,a5,a3
    50202df2:	0007ac23          	sw	zero,24(a5)
    50202df6:	fec42783          	lw	a5,-20(s0)
    50202dfa:	2785                	addiw	a5,a5,1
    50202dfc:	fef42623          	sw	a5,-20(s0)
    50202e00:	fec42783          	lw	a5,-20(s0)
    50202e04:	0007871b          	sext.w	a4,a5
    50202e08:	47bd                	li	a5,15
    50202e0a:	f4e7dae3          	bge	a5,a4,50202d5e <init_locks+0xe>
    50202e0e:	0001                	nop
    50202e10:	0001                	nop
    50202e12:	60e2                	ld	ra,24(sp)
    50202e14:	6442                	ld	s0,16(sp)
    50202e16:	6105                	addi	sp,sp,32
    50202e18:	8082                	ret

0000000050202e1a <spin_lock_init>:
    50202e1a:	1101                	addi	sp,sp,-32
    50202e1c:	ec06                	sd	ra,24(sp)
    50202e1e:	e822                	sd	s0,16(sp)
    50202e20:	1000                	addi	s0,sp,32
    50202e22:	fea43423          	sd	a0,-24(s0)
    50202e26:	0001                	nop
    50202e28:	60e2                	ld	ra,24(sp)
    50202e2a:	6442                	ld	s0,16(sp)
    50202e2c:	6105                	addi	sp,sp,32
    50202e2e:	8082                	ret

0000000050202e30 <spin_lock_try_acquire>:
    50202e30:	1101                	addi	sp,sp,-32
    50202e32:	ec06                	sd	ra,24(sp)
    50202e34:	e822                	sd	s0,16(sp)
    50202e36:	1000                	addi	s0,sp,32
    50202e38:	fea43423          	sd	a0,-24(s0)
    50202e3c:	4781                	li	a5,0
    50202e3e:	853e                	mv	a0,a5
    50202e40:	60e2                	ld	ra,24(sp)
    50202e42:	6442                	ld	s0,16(sp)
    50202e44:	6105                	addi	sp,sp,32
    50202e46:	8082                	ret

0000000050202e48 <spin_lock_acquire>:
    50202e48:	1101                	addi	sp,sp,-32
    50202e4a:	ec06                	sd	ra,24(sp)
    50202e4c:	e822                	sd	s0,16(sp)
    50202e4e:	1000                	addi	s0,sp,32
    50202e50:	fea43423          	sd	a0,-24(s0)
    50202e54:	0001                	nop
    50202e56:	60e2                	ld	ra,24(sp)
    50202e58:	6442                	ld	s0,16(sp)
    50202e5a:	6105                	addi	sp,sp,32
    50202e5c:	8082                	ret

0000000050202e5e <spin_lock_release>:
    50202e5e:	1101                	addi	sp,sp,-32
    50202e60:	ec06                	sd	ra,24(sp)
    50202e62:	e822                	sd	s0,16(sp)
    50202e64:	1000                	addi	s0,sp,32
    50202e66:	fea43423          	sd	a0,-24(s0)
    50202e6a:	0001                	nop
    50202e6c:	60e2                	ld	ra,24(sp)
    50202e6e:	6442                	ld	s0,16(sp)
    50202e70:	6105                	addi	sp,sp,32
    50202e72:	8082                	ret

0000000050202e74 <do_mutex_lock_init>:
    50202e74:	7179                	addi	sp,sp,-48
    50202e76:	f406                	sd	ra,40(sp)
    50202e78:	f022                	sd	s0,32(sp)
    50202e7a:	1800                	addi	s0,sp,48
    50202e7c:	87aa                	mv	a5,a0
    50202e7e:	fcf42e23          	sw	a5,-36(s0)
    50202e82:	fe042623          	sw	zero,-20(s0)
    50202e86:	a815                	j	50202eba <do_mutex_lock_init+0x46>
    50202e88:	00006697          	auipc	a3,0x6
    50202e8c:	d5068693          	addi	a3,a3,-688 # 50208bd8 <mlocks>
    50202e90:	fec42703          	lw	a4,-20(s0)
    50202e94:	87ba                	mv	a5,a4
    50202e96:	078a                	slli	a5,a5,0x2
    50202e98:	97ba                	add	a5,a5,a4
    50202e9a:	078e                	slli	a5,a5,0x3
    50202e9c:	97b6                	add	a5,a5,a3
    50202e9e:	4f9c                	lw	a5,24(a5)
    50202ea0:	fdc42703          	lw	a4,-36(s0)
    50202ea4:	2701                	sext.w	a4,a4
    50202ea6:	00f71563          	bne	a4,a5,50202eb0 <do_mutex_lock_init+0x3c>
    50202eaa:	fec42783          	lw	a5,-20(s0)
    50202eae:	a8d5                	j	50202fa2 <do_mutex_lock_init+0x12e>
    50202eb0:	fec42783          	lw	a5,-20(s0)
    50202eb4:	2785                	addiw	a5,a5,1
    50202eb6:	fef42623          	sw	a5,-20(s0)
    50202eba:	fec42783          	lw	a5,-20(s0)
    50202ebe:	0007871b          	sext.w	a4,a5
    50202ec2:	47bd                	li	a5,15
    50202ec4:	fce7d2e3          	bge	a5,a4,50202e88 <do_mutex_lock_init+0x14>
    50202ec8:	fe042423          	sw	zero,-24(s0)
    50202ecc:	a0d9                	j	50202f92 <do_mutex_lock_init+0x11e>
    50202ece:	00006697          	auipc	a3,0x6
    50202ed2:	d0a68693          	addi	a3,a3,-758 # 50208bd8 <mlocks>
    50202ed6:	fe842703          	lw	a4,-24(s0)
    50202eda:	87ba                	mv	a5,a4
    50202edc:	078a                	slli	a5,a5,0x2
    50202ede:	97ba                	add	a5,a5,a4
    50202ee0:	078e                	slli	a5,a5,0x3
    50202ee2:	97b6                	add	a5,a5,a3
    50202ee4:	4f9c                	lw	a5,24(a5)
    50202ee6:	e3cd                	bnez	a5,50202f88 <do_mutex_lock_init+0x114>
    50202ee8:	00006697          	auipc	a3,0x6
    50202eec:	cf068693          	addi	a3,a3,-784 # 50208bd8 <mlocks>
    50202ef0:	fe842703          	lw	a4,-24(s0)
    50202ef4:	87ba                	mv	a5,a4
    50202ef6:	078a                	slli	a5,a5,0x2
    50202ef8:	97ba                	add	a5,a5,a4
    50202efa:	078e                	slli	a5,a5,0x3
    50202efc:	97b6                	add	a5,a5,a3
    50202efe:	0007a023          	sw	zero,0(a5)
    50202f02:	fe842703          	lw	a4,-24(s0)
    50202f06:	87ba                	mv	a5,a4
    50202f08:	078a                	slli	a5,a5,0x2
    50202f0a:	97ba                	add	a5,a5,a4
    50202f0c:	078e                	slli	a5,a5,0x3
    50202f0e:	00006717          	auipc	a4,0x6
    50202f12:	cca70713          	addi	a4,a4,-822 # 50208bd8 <mlocks>
    50202f16:	97ba                	add	a5,a5,a4
    50202f18:	00878693          	addi	a3,a5,8
    50202f1c:	00006617          	auipc	a2,0x6
    50202f20:	cbc60613          	addi	a2,a2,-836 # 50208bd8 <mlocks>
    50202f24:	fe842703          	lw	a4,-24(s0)
    50202f28:	87ba                	mv	a5,a4
    50202f2a:	078a                	slli	a5,a5,0x2
    50202f2c:	97ba                	add	a5,a5,a4
    50202f2e:	078e                	slli	a5,a5,0x3
    50202f30:	97b2                	add	a5,a5,a2
    50202f32:	e794                	sd	a3,8(a5)
    50202f34:	fe842703          	lw	a4,-24(s0)
    50202f38:	87ba                	mv	a5,a4
    50202f3a:	078a                	slli	a5,a5,0x2
    50202f3c:	97ba                	add	a5,a5,a4
    50202f3e:	078e                	slli	a5,a5,0x3
    50202f40:	00006717          	auipc	a4,0x6
    50202f44:	c9870713          	addi	a4,a4,-872 # 50208bd8 <mlocks>
    50202f48:	97ba                	add	a5,a5,a4
    50202f4a:	00878693          	addi	a3,a5,8
    50202f4e:	00006617          	auipc	a2,0x6
    50202f52:	c8a60613          	addi	a2,a2,-886 # 50208bd8 <mlocks>
    50202f56:	fe842703          	lw	a4,-24(s0)
    50202f5a:	87ba                	mv	a5,a4
    50202f5c:	078a                	slli	a5,a5,0x2
    50202f5e:	97ba                	add	a5,a5,a4
    50202f60:	078e                	slli	a5,a5,0x3
    50202f62:	97b2                	add	a5,a5,a2
    50202f64:	eb94                	sd	a3,16(a5)
    50202f66:	00006697          	auipc	a3,0x6
    50202f6a:	c7268693          	addi	a3,a3,-910 # 50208bd8 <mlocks>
    50202f6e:	fe842703          	lw	a4,-24(s0)
    50202f72:	87ba                	mv	a5,a4
    50202f74:	078a                	slli	a5,a5,0x2
    50202f76:	97ba                	add	a5,a5,a4
    50202f78:	078e                	slli	a5,a5,0x3
    50202f7a:	97b6                	add	a5,a5,a3
    50202f7c:	fdc42703          	lw	a4,-36(s0)
    50202f80:	cf98                	sw	a4,24(a5)
    50202f82:	fe842783          	lw	a5,-24(s0)
    50202f86:	a831                	j	50202fa2 <do_mutex_lock_init+0x12e>
    50202f88:	fe842783          	lw	a5,-24(s0)
    50202f8c:	2785                	addiw	a5,a5,1
    50202f8e:	fef42423          	sw	a5,-24(s0)
    50202f92:	fe842783          	lw	a5,-24(s0)
    50202f96:	0007871b          	sext.w	a4,a5
    50202f9a:	47bd                	li	a5,15
    50202f9c:	f2e7d9e3          	bge	a5,a4,50202ece <do_mutex_lock_init+0x5a>
    50202fa0:	57fd                	li	a5,-1
    50202fa2:	853e                	mv	a0,a5
    50202fa4:	70a2                	ld	ra,40(sp)
    50202fa6:	7402                	ld	s0,32(sp)
    50202fa8:	6145                	addi	sp,sp,48
    50202faa:	8082                	ret

0000000050202fac <do_mutex_lock_acquire>:
    50202fac:	1101                	addi	sp,sp,-32
    50202fae:	ec06                	sd	ra,24(sp)
    50202fb0:	e822                	sd	s0,16(sp)
    50202fb2:	1000                	addi	s0,sp,32
    50202fb4:	87aa                	mv	a5,a0
    50202fb6:	fef42623          	sw	a5,-20(s0)
    50202fba:	00006697          	auipc	a3,0x6
    50202fbe:	c1e68693          	addi	a3,a3,-994 # 50208bd8 <mlocks>
    50202fc2:	fec42703          	lw	a4,-20(s0)
    50202fc6:	87ba                	mv	a5,a4
    50202fc8:	078a                	slli	a5,a5,0x2
    50202fca:	97ba                	add	a5,a5,a4
    50202fcc:	078e                	slli	a5,a5,0x3
    50202fce:	97b6                	add	a5,a5,a3
    50202fd0:	439c                	lw	a5,0(a5)
    50202fd2:	2781                	sext.w	a5,a5
    50202fd4:	e785                	bnez	a5,50202ffc <do_mutex_lock_acquire+0x50>
    50202fd6:	8712                	mv	a4,tp
    50202fd8:	fec42783          	lw	a5,-20(s0)
    50202fdc:	08f72023          	sw	a5,128(a4)
    50202fe0:	00006697          	auipc	a3,0x6
    50202fe4:	bf868693          	addi	a3,a3,-1032 # 50208bd8 <mlocks>
    50202fe8:	fec42703          	lw	a4,-20(s0)
    50202fec:	87ba                	mv	a5,a4
    50202fee:	078a                	slli	a5,a5,0x2
    50202ff0:	97ba                	add	a5,a5,a4
    50202ff2:	078e                	slli	a5,a5,0x3
    50202ff4:	97b6                	add	a5,a5,a3
    50202ff6:	4705                	li	a4,1
    50202ff8:	c398                	sw	a4,0(a5)
    50202ffa:	a025                	j	50203022 <do_mutex_lock_acquire+0x76>
    50202ffc:	8792                	mv	a5,tp
    50202ffe:	01078693          	addi	a3,a5,16
    50203002:	fec42703          	lw	a4,-20(s0)
    50203006:	87ba                	mv	a5,a4
    50203008:	078a                	slli	a5,a5,0x2
    5020300a:	97ba                	add	a5,a5,a4
    5020300c:	078e                	slli	a5,a5,0x3
    5020300e:	00006717          	auipc	a4,0x6
    50203012:	bca70713          	addi	a4,a4,-1078 # 50208bd8 <mlocks>
    50203016:	97ba                	add	a5,a5,a4
    50203018:	07a1                	addi	a5,a5,8
    5020301a:	85be                	mv	a1,a5
    5020301c:	8536                	mv	a0,a3
    5020301e:	380000ef          	jal	5020339e <do_block>
    50203022:	0001                	nop
    50203024:	60e2                	ld	ra,24(sp)
    50203026:	6442                	ld	s0,16(sp)
    50203028:	6105                	addi	sp,sp,32
    5020302a:	8082                	ret

000000005020302c <do_mutex_lock_release>:
    5020302c:	1101                	addi	sp,sp,-32
    5020302e:	ec06                	sd	ra,24(sp)
    50203030:	e822                	sd	s0,16(sp)
    50203032:	1000                	addi	s0,sp,32
    50203034:	87aa                	mv	a5,a0
    50203036:	fef42623          	sw	a5,-20(s0)
    5020303a:	fec42703          	lw	a4,-20(s0)
    5020303e:	87ba                	mv	a5,a4
    50203040:	078a                	slli	a5,a5,0x2
    50203042:	97ba                	add	a5,a5,a4
    50203044:	078e                	slli	a5,a5,0x3
    50203046:	00006717          	auipc	a4,0x6
    5020304a:	b9270713          	addi	a4,a4,-1134 # 50208bd8 <mlocks>
    5020304e:	97ba                	add	a5,a5,a4
    50203050:	07a1                	addi	a5,a5,8
    50203052:	853e                	mv	a0,a5
    50203054:	3c6000ef          	jal	5020341a <do_unblock>
    50203058:	87aa                	mv	a5,a0
    5020305a:	ef91                	bnez	a5,50203076 <do_mutex_lock_release+0x4a>
    5020305c:	00006697          	auipc	a3,0x6
    50203060:	b7c68693          	addi	a3,a3,-1156 # 50208bd8 <mlocks>
    50203064:	fec42703          	lw	a4,-20(s0)
    50203068:	87ba                	mv	a5,a4
    5020306a:	078a                	slli	a5,a5,0x2
    5020306c:	97ba                	add	a5,a5,a4
    5020306e:	078e                	slli	a5,a5,0x3
    50203070:	97b6                	add	a5,a5,a3
    50203072:	0007a023          	sw	zero,0(a5)
    50203076:	0001                	nop
    50203078:	60e2                	ld	ra,24(sp)
    5020307a:	6442                	ld	s0,16(sp)
    5020307c:	6105                	addi	sp,sp,32
    5020307e:	8082                	ret

0000000050203080 <allocKernelPage>:
    50203080:	7179                	addi	sp,sp,-48
    50203082:	f406                	sd	ra,40(sp)
    50203084:	f022                	sd	s0,32(sp)
    50203086:	1800                	addi	s0,sp,48
    50203088:	87aa                	mv	a5,a0
    5020308a:	fcf42e23          	sw	a5,-36(s0)
    5020308e:	00003797          	auipc	a5,0x3
    50203092:	74278793          	addi	a5,a5,1858 # 502067d0 <kernMemCurr>
    50203096:	6398                	ld	a4,0(a5)
    50203098:	6785                	lui	a5,0x1
    5020309a:	17fd                	addi	a5,a5,-1 # fff <_start-0x50200001>
    5020309c:	973e                	add	a4,a4,a5
    5020309e:	77fd                	lui	a5,0xfffff
    502030a0:	8ff9                	and	a5,a5,a4
    502030a2:	fef43423          	sd	a5,-24(s0)
    502030a6:	fdc42783          	lw	a5,-36(s0)
    502030aa:	00c7979b          	slliw	a5,a5,0xc
    502030ae:	2781                	sext.w	a5,a5
    502030b0:	873e                	mv	a4,a5
    502030b2:	fe843783          	ld	a5,-24(s0)
    502030b6:	973e                	add	a4,a4,a5
    502030b8:	00003797          	auipc	a5,0x3
    502030bc:	71878793          	addi	a5,a5,1816 # 502067d0 <kernMemCurr>
    502030c0:	e398                	sd	a4,0(a5)
    502030c2:	fe843783          	ld	a5,-24(s0)
    502030c6:	853e                	mv	a0,a5
    502030c8:	70a2                	ld	ra,40(sp)
    502030ca:	7402                	ld	s0,32(sp)
    502030cc:	6145                	addi	sp,sp,48
    502030ce:	8082                	ret

00000000502030d0 <allocUserPage>:
    502030d0:	7179                	addi	sp,sp,-48
    502030d2:	f406                	sd	ra,40(sp)
    502030d4:	f022                	sd	s0,32(sp)
    502030d6:	1800                	addi	s0,sp,48
    502030d8:	87aa                	mv	a5,a0
    502030da:	fcf42e23          	sw	a5,-36(s0)
    502030de:	00003797          	auipc	a5,0x3
    502030e2:	6fa78793          	addi	a5,a5,1786 # 502067d8 <userMemCurr>
    502030e6:	6398                	ld	a4,0(a5)
    502030e8:	6785                	lui	a5,0x1
    502030ea:	17fd                	addi	a5,a5,-1 # fff <_start-0x50200001>
    502030ec:	973e                	add	a4,a4,a5
    502030ee:	77fd                	lui	a5,0xfffff
    502030f0:	8ff9                	and	a5,a5,a4
    502030f2:	fef43423          	sd	a5,-24(s0)
    502030f6:	fdc42783          	lw	a5,-36(s0)
    502030fa:	00c7979b          	slliw	a5,a5,0xc
    502030fe:	2781                	sext.w	a5,a5
    50203100:	873e                	mv	a4,a5
    50203102:	fe843783          	ld	a5,-24(s0)
    50203106:	973e                	add	a4,a4,a5
    50203108:	00003797          	auipc	a5,0x3
    5020310c:	6d078793          	addi	a5,a5,1744 # 502067d8 <userMemCurr>
    50203110:	e398                	sd	a4,0(a5)
    50203112:	fe843783          	ld	a5,-24(s0)
    50203116:	853e                	mv	a0,a5
    50203118:	70a2                	ld	ra,40(sp)
    5020311a:	7402                	ld	s0,32(sp)
    5020311c:	6145                	addi	sp,sp,48
    5020311e:	8082                	ret

0000000050203120 <queue_pushfront>:
    50203120:	7179                	addi	sp,sp,-48
    50203122:	f406                	sd	ra,40(sp)
    50203124:	f022                	sd	s0,32(sp)
    50203126:	1800                	addi	s0,sp,48
    50203128:	fca43c23          	sd	a0,-40(s0)
    5020312c:	fcb43823          	sd	a1,-48(s0)
    50203130:	fd043783          	ld	a5,-48(s0)
    50203134:	639c                	ld	a5,0(a5)
    50203136:	fef43423          	sd	a5,-24(s0)
    5020313a:	fd043783          	ld	a5,-48(s0)
    5020313e:	fd843703          	ld	a4,-40(s0)
    50203142:	e398                	sd	a4,0(a5)
    50203144:	fd843783          	ld	a5,-40(s0)
    50203148:	fd043703          	ld	a4,-48(s0)
    5020314c:	e798                	sd	a4,8(a5)
    5020314e:	fd843783          	ld	a5,-40(s0)
    50203152:	fe843703          	ld	a4,-24(s0)
    50203156:	e398                	sd	a4,0(a5)
    50203158:	fe843783          	ld	a5,-24(s0)
    5020315c:	fd843703          	ld	a4,-40(s0)
    50203160:	e798                	sd	a4,8(a5)
    50203162:	0001                	nop
    50203164:	70a2                	ld	ra,40(sp)
    50203166:	7402                	ld	s0,32(sp)
    50203168:	6145                	addi	sp,sp,48
    5020316a:	8082                	ret

000000005020316c <queue_popback>:
    5020316c:	7179                	addi	sp,sp,-48
    5020316e:	f406                	sd	ra,40(sp)
    50203170:	f022                	sd	s0,32(sp)
    50203172:	1800                	addi	s0,sp,48
    50203174:	fca43c23          	sd	a0,-40(s0)
    50203178:	fd843783          	ld	a5,-40(s0)
    5020317c:	679c                	ld	a5,8(a5)
    5020317e:	fef43423          	sd	a5,-24(s0)
    50203182:	fe843703          	ld	a4,-24(s0)
    50203186:	fd843783          	ld	a5,-40(s0)
    5020318a:	00f71463          	bne	a4,a5,50203192 <queue_popback+0x26>
    5020318e:	4781                	li	a5,0
    50203190:	a00d                	j	502031b2 <queue_popback+0x46>
    50203192:	fe843783          	ld	a5,-24(s0)
    50203196:	679c                	ld	a5,8(a5)
    50203198:	fe843703          	ld	a4,-24(s0)
    5020319c:	6318                	ld	a4,0(a4)
    5020319e:	e398                	sd	a4,0(a5)
    502031a0:	fe843783          	ld	a5,-24(s0)
    502031a4:	639c                	ld	a5,0(a5)
    502031a6:	fe843703          	ld	a4,-24(s0)
    502031aa:	6718                	ld	a4,8(a4)
    502031ac:	e798                	sd	a4,8(a5)
    502031ae:	fe843783          	ld	a5,-24(s0)
    502031b2:	853e                	mv	a0,a5
    502031b4:	70a2                	ld	ra,40(sp)
    502031b6:	7402                	ld	s0,32(sp)
    502031b8:	6145                	addi	sp,sp,48
    502031ba:	8082                	ret

00000000502031bc <check_sleeping>:
    502031bc:	7179                	addi	sp,sp,-48
    502031be:	f406                	sd	ra,40(sp)
    502031c0:	f022                	sd	s0,32(sp)
    502031c2:	1800                	addi	s0,sp,48
    502031c4:	00003797          	auipc	a5,0x3
    502031c8:	5cc78793          	addi	a5,a5,1484 # 50206790 <sleep_queue>
    502031cc:	639c                	ld	a5,0(a5)
    502031ce:	fef43423          	sd	a5,-24(s0)
    502031d2:	331000ef          	jal	50203d02 <get_timer>
    502031d6:	fea43023          	sd	a0,-32(s0)
    502031da:	a085                	j	5020323a <check_sleeping+0x7e>
    502031dc:	fe843783          	ld	a5,-24(s0)
    502031e0:	639c                	ld	a5,0(a5)
    502031e2:	fcf43c23          	sd	a5,-40(s0)
    502031e6:	fe843783          	ld	a5,-24(s0)
    502031ea:	17c1                	addi	a5,a5,-16
    502031ec:	fcf43823          	sd	a5,-48(s0)
    502031f0:	fd043783          	ld	a5,-48(s0)
    502031f4:	6bbc                	ld	a5,80(a5)
    502031f6:	fe043703          	ld	a4,-32(s0)
    502031fa:	02f76c63          	bltu	a4,a5,50203232 <check_sleeping+0x76>
    502031fe:	fe843783          	ld	a5,-24(s0)
    50203202:	679c                	ld	a5,8(a5)
    50203204:	fe843703          	ld	a4,-24(s0)
    50203208:	6318                	ld	a4,0(a4)
    5020320a:	e398                	sd	a4,0(a5)
    5020320c:	fe843783          	ld	a5,-24(s0)
    50203210:	639c                	ld	a5,0(a5)
    50203212:	fe843703          	ld	a4,-24(s0)
    50203216:	6718                	ld	a4,8(a4)
    50203218:	e798                	sd	a4,8(a5)
    5020321a:	fd043783          	ld	a5,-48(s0)
    5020321e:	4709                	li	a4,2
    50203220:	c3f8                	sw	a4,68(a5)
    50203222:	00003597          	auipc	a1,0x3
    50203226:	55e58593          	addi	a1,a1,1374 # 50206780 <ready_queue>
    5020322a:	fe843503          	ld	a0,-24(s0)
    5020322e:	ef3ff0ef          	jal	50203120 <queue_pushfront>
    50203232:	fd843783          	ld	a5,-40(s0)
    50203236:	fef43423          	sd	a5,-24(s0)
    5020323a:	fe843703          	ld	a4,-24(s0)
    5020323e:	00003797          	auipc	a5,0x3
    50203242:	55278793          	addi	a5,a5,1362 # 50206790 <sleep_queue>
    50203246:	f8f71be3          	bne	a4,a5,502031dc <check_sleeping+0x20>
    5020324a:	0001                	nop
    5020324c:	0001                	nop
    5020324e:	70a2                	ld	ra,40(sp)
    50203250:	7402                	ld	s0,32(sp)
    50203252:	6145                	addi	sp,sp,48
    50203254:	8082                	ret

0000000050203256 <do_scheduler>:
    50203256:	1101                	addi	sp,sp,-32
    50203258:	ec06                	sd	ra,24(sp)
    5020325a:	e822                	sd	s0,16(sp)
    5020325c:	1000                	addi	s0,sp,32
    5020325e:	f5fff0ef          	jal	502031bc <check_sleeping>
    50203262:	00003797          	auipc	a5,0x3
    50203266:	51e78793          	addi	a5,a5,1310 # 50206780 <ready_queue>
    5020326a:	6398                	ld	a4,0(a5)
    5020326c:	00003797          	auipc	a5,0x3
    50203270:	51478793          	addi	a5,a5,1300 # 50206780 <ready_queue>
    50203274:	08f70463          	beq	a4,a5,502032fc <do_scheduler+0xa6>
    50203278:	00003517          	auipc	a0,0x3
    5020327c:	50850513          	addi	a0,a0,1288 # 50206780 <ready_queue>
    50203280:	eedff0ef          	jal	5020316c <queue_popback>
    50203284:	87aa                	mv	a5,a0
    50203286:	17c1                	addi	a5,a5,-16
    50203288:	fef43423          	sd	a5,-24(s0)
    5020328c:	fe843783          	ld	a5,-24(s0)
    50203290:	43f8                	lw	a4,68(a5)
    50203292:	478d                	li	a5,3
    50203294:	00f70663          	beq	a4,a5,502032a0 <do_scheduler+0x4a>
    50203298:	fe843783          	ld	a5,-24(s0)
    5020329c:	4705                	li	a4,1
    5020329e:	c3f8                	sw	a4,68(a5)
    502032a0:	8792                	mv	a5,tp
    502032a2:	43f8                	lw	a4,68(a5)
    502032a4:	4785                	li	a5,1
    502032a6:	00f71b63          	bne	a4,a5,502032bc <do_scheduler+0x66>
    502032aa:	8792                	mv	a5,tp
    502032ac:	07c1                	addi	a5,a5,16
    502032ae:	00003597          	auipc	a1,0x3
    502032b2:	4d258593          	addi	a1,a1,1234 # 50206780 <ready_queue>
    502032b6:	853e                	mv	a0,a5
    502032b8:	e69ff0ef          	jal	50203120 <queue_pushfront>
    502032bc:	8792                	mv	a5,tp
    502032be:	43f8                	lw	a4,68(a5)
    502032c0:	478d                	li	a5,3
    502032c2:	00f70563          	beq	a4,a5,502032cc <do_scheduler+0x76>
    502032c6:	8712                	mv	a4,tp
    502032c8:	4789                	li	a5,2
    502032ca:	c37c                	sw	a5,68(a4)
    502032cc:	fe443023          	sd	tp,-32(s0)
    502032d0:	fe843203          	ld	tp,-24(s0)
    502032d4:	8712                	mv	a4,tp
    502032d6:	fe043783          	ld	a5,-32(s0)
    502032da:	02e78263          	beq	a5,a4,502032fe <do_scheduler+0xa8>
    502032de:	8792                	mv	a5,tp
    502032e0:	43f8                	lw	a4,68(a5)
    502032e2:	478d                	li	a5,3
    502032e4:	00f70d63          	beq	a4,a5,502032fe <do_scheduler+0xa8>
    502032e8:	fe043783          	ld	a5,-32(s0)
    502032ec:	639c                	ld	a5,0(a5)
    502032ee:	8712                	mv	a4,tp
    502032f0:	6318                	ld	a4,0(a4)
    502032f2:	85ba                	mv	a1,a4
    502032f4:	853e                	mv	a0,a5
    502032f6:	d7bfd0ef          	jal	50201070 <switch_to>
    502032fa:	a011                	j	502032fe <do_scheduler+0xa8>
    502032fc:	0001                	nop
    502032fe:	60e2                	ld	ra,24(sp)
    50203300:	6442                	ld	s0,16(sp)
    50203302:	6105                	addi	sp,sp,32
    50203304:	8082                	ret

0000000050203306 <do_sleep>:
    50203306:	7139                	addi	sp,sp,-64
    50203308:	fc06                	sd	ra,56(sp)
    5020330a:	f822                	sd	s0,48(sp)
    5020330c:	0080                	addi	s0,sp,64
    5020330e:	87aa                	mv	a5,a0
    50203310:	fcf42623          	sw	a5,-52(s0)
    50203314:	00003797          	auipc	a5,0x3
    50203318:	46c78793          	addi	a5,a5,1132 # 50206780 <ready_queue>
    5020331c:	6398                	ld	a4,0(a5)
    5020331e:	00003797          	auipc	a5,0x3
    50203322:	46278793          	addi	a5,a5,1122 # 50206780 <ready_queue>
    50203326:	06f70763          	beq	a4,a5,50203394 <do_sleep+0x8e>
    5020332a:	00003517          	auipc	a0,0x3
    5020332e:	45650513          	addi	a0,a0,1110 # 50206780 <ready_queue>
    50203332:	e3bff0ef          	jal	5020316c <queue_popback>
    50203336:	87aa                	mv	a5,a0
    50203338:	17c1                	addi	a5,a5,-16
    5020333a:	fef43423          	sd	a5,-24(s0)
    5020333e:	fe443023          	sd	tp,-32(s0)
    50203342:	1c1000ef          	jal	50203d02 <get_timer>
    50203346:	fca43c23          	sd	a0,-40(s0)
    5020334a:	fcc46703          	lwu	a4,-52(s0)
    5020334e:	fd843783          	ld	a5,-40(s0)
    50203352:	973e                	add	a4,a4,a5
    50203354:	fe043783          	ld	a5,-32(s0)
    50203358:	ebb8                	sd	a4,80(a5)
    5020335a:	8792                	mv	a5,tp
    5020335c:	07c1                	addi	a5,a5,16
    5020335e:	00003597          	auipc	a1,0x3
    50203362:	43258593          	addi	a1,a1,1074 # 50206790 <sleep_queue>
    50203366:	853e                	mv	a0,a5
    50203368:	db9ff0ef          	jal	50203120 <queue_pushfront>
    5020336c:	8792                	mv	a5,tp
    5020336e:	0407a223          	sw	zero,68(a5)
    50203372:	fe843203          	ld	tp,-24(s0)
    50203376:	fe843783          	ld	a5,-24(s0)
    5020337a:	4705                	li	a4,1
    5020337c:	c3f8                	sw	a4,68(a5)
    5020337e:	fe043783          	ld	a5,-32(s0)
    50203382:	6398                	ld	a4,0(a5)
    50203384:	fe843783          	ld	a5,-24(s0)
    50203388:	639c                	ld	a5,0(a5)
    5020338a:	85be                	mv	a1,a5
    5020338c:	853a                	mv	a0,a4
    5020338e:	ce3fd0ef          	jal	50201070 <switch_to>
    50203392:	a011                	j	50203396 <do_sleep+0x90>
    50203394:	0001                	nop
    50203396:	70e2                	ld	ra,56(sp)
    50203398:	7442                	ld	s0,48(sp)
    5020339a:	6121                	addi	sp,sp,64
    5020339c:	8082                	ret

000000005020339e <do_block>:
    5020339e:	7179                	addi	sp,sp,-48
    502033a0:	f406                	sd	ra,40(sp)
    502033a2:	f022                	sd	s0,32(sp)
    502033a4:	1800                	addi	s0,sp,48
    502033a6:	fca43c23          	sd	a0,-40(s0)
    502033aa:	fcb43823          	sd	a1,-48(s0)
    502033ae:	00003797          	auipc	a5,0x3
    502033b2:	3d278793          	addi	a5,a5,978 # 50206780 <ready_queue>
    502033b6:	6398                	ld	a4,0(a5)
    502033b8:	00003797          	auipc	a5,0x3
    502033bc:	3c878793          	addi	a5,a5,968 # 50206780 <ready_queue>
    502033c0:	04f70863          	beq	a4,a5,50203410 <do_block+0x72>
    502033c4:	00003517          	auipc	a0,0x3
    502033c8:	3bc50513          	addi	a0,a0,956 # 50206780 <ready_queue>
    502033cc:	da1ff0ef          	jal	5020316c <queue_popback>
    502033d0:	87aa                	mv	a5,a0
    502033d2:	17c1                	addi	a5,a5,-16
    502033d4:	fef43423          	sd	a5,-24(s0)
    502033d8:	fe843783          	ld	a5,-24(s0)
    502033dc:	4705                	li	a4,1
    502033de:	c3f8                	sw	a4,68(a5)
    502033e0:	fd043583          	ld	a1,-48(s0)
    502033e4:	fd843503          	ld	a0,-40(s0)
    502033e8:	d39ff0ef          	jal	50203120 <queue_pushfront>
    502033ec:	8792                	mv	a5,tp
    502033ee:	0407a223          	sw	zero,68(a5)
    502033f2:	fe443023          	sd	tp,-32(s0)
    502033f6:	fe843203          	ld	tp,-24(s0)
    502033fa:	fe043783          	ld	a5,-32(s0)
    502033fe:	6398                	ld	a4,0(a5)
    50203400:	fe843783          	ld	a5,-24(s0)
    50203404:	639c                	ld	a5,0(a5)
    50203406:	85be                	mv	a1,a5
    50203408:	853a                	mv	a0,a4
    5020340a:	c67fd0ef          	jal	50201070 <switch_to>
    5020340e:	a011                	j	50203412 <do_block+0x74>
    50203410:	0001                	nop
    50203412:	70a2                	ld	ra,40(sp)
    50203414:	7402                	ld	s0,32(sp)
    50203416:	6145                	addi	sp,sp,48
    50203418:	8082                	ret

000000005020341a <do_unblock>:
    5020341a:	7179                	addi	sp,sp,-48
    5020341c:	f406                	sd	ra,40(sp)
    5020341e:	f022                	sd	s0,32(sp)
    50203420:	1800                	addi	s0,sp,48
    50203422:	fca43c23          	sd	a0,-40(s0)
    50203426:	fd843503          	ld	a0,-40(s0)
    5020342a:	d43ff0ef          	jal	5020316c <queue_popback>
    5020342e:	fea43423          	sd	a0,-24(s0)
    50203432:	fe843783          	ld	a5,-24(s0)
    50203436:	e399                	bnez	a5,5020343c <do_unblock+0x22>
    50203438:	4781                	li	a5,0
    5020343a:	a01d                	j	50203460 <do_unblock+0x46>
    5020343c:	fe843783          	ld	a5,-24(s0)
    50203440:	17c1                	addi	a5,a5,-16
    50203442:	fef43023          	sd	a5,-32(s0)
    50203446:	fe043783          	ld	a5,-32(s0)
    5020344a:	4709                	li	a4,2
    5020344c:	c3f8                	sw	a4,68(a5)
    5020344e:	00003597          	auipc	a1,0x3
    50203452:	33258593          	addi	a1,a1,818 # 50206780 <ready_queue>
    50203456:	fe843503          	ld	a0,-24(s0)
    5020345a:	cc7ff0ef          	jal	50203120 <queue_pushfront>
    5020345e:	4785                	li	a5,1
    50203460:	853e                	mv	a0,a5
    50203462:	70a2                	ld	ra,40(sp)
    50203464:	7402                	ld	s0,32(sp)
    50203466:	6145                	addi	sp,sp,48
    50203468:	8082                	ret

000000005020346a <do_process_show>:
    5020346a:	7179                	addi	sp,sp,-48
    5020346c:	f406                	sd	ra,40(sp)
    5020346e:	f022                	sd	s0,32(sp)
    50203470:	1800                	addi	s0,sp,48
    50203472:	87aa                	mv	a5,a0
    50203474:	fcf42e23          	sw	a5,-36(s0)
    50203478:	fe042623          	sw	zero,-20(s0)
    5020347c:	fe042423          	sw	zero,-24(s0)
    50203480:	a045                	j	50203520 <do_process_show+0xb6>
    50203482:	00006697          	auipc	a3,0x6
    50203486:	9d668693          	addi	a3,a3,-1578 # 50208e58 <pcb>
    5020348a:	fe842703          	lw	a4,-24(s0)
    5020348e:	87ba                	mv	a5,a4
    50203490:	0792                	slli	a5,a5,0x4
    50203492:	97ba                	add	a5,a5,a4
    50203494:	078e                	slli	a5,a5,0x3
    50203496:	97b6                	add	a5,a5,a3
    50203498:	43f8                	lw	a4,68(a5)
    5020349a:	478d                	li	a5,3
    5020349c:	06f70d63          	beq	a4,a5,50203516 <do_process_show+0xac>
    502034a0:	fec42583          	lw	a1,-20(s0)
    502034a4:	0015879b          	addiw	a5,a1,1
    502034a8:	fef42623          	sw	a5,-20(s0)
    502034ac:	00006697          	auipc	a3,0x6
    502034b0:	9ac68693          	addi	a3,a3,-1620 # 50208e58 <pcb>
    502034b4:	fe842703          	lw	a4,-24(s0)
    502034b8:	87ba                	mv	a5,a4
    502034ba:	0792                	slli	a5,a5,0x4
    502034bc:	97ba                	add	a5,a5,a4
    502034be:	078e                	slli	a5,a5,0x3
    502034c0:	97b6                	add	a5,a5,a3
    502034c2:	43b0                	lw	a2,64(a5)
    502034c4:	00006697          	auipc	a3,0x6
    502034c8:	99468693          	addi	a3,a3,-1644 # 50208e58 <pcb>
    502034cc:	fe842703          	lw	a4,-24(s0)
    502034d0:	87ba                	mv	a5,a4
    502034d2:	0792                	slli	a5,a5,0x4
    502034d4:	97ba                	add	a5,a5,a4
    502034d6:	078e                	slli	a5,a5,0x3
    502034d8:	97b6                	add	a5,a5,a3
    502034da:	43fc                	lw	a5,68(a5)
    502034dc:	00003717          	auipc	a4,0x3
    502034e0:	2c470713          	addi	a4,a4,708 # 502067a0 <status_str>
    502034e4:	1782                	slli	a5,a5,0x20
    502034e6:	9381                	srli	a5,a5,0x20
    502034e8:	078e                	slli	a5,a5,0x3
    502034ea:	97ba                	add	a5,a5,a4
    502034ec:	6394                	ld	a3,0(a5)
    502034ee:	fe842703          	lw	a4,-24(s0)
    502034f2:	87ba                	mv	a5,a4
    502034f4:	0792                	slli	a5,a5,0x4
    502034f6:	97ba                	add	a5,a5,a4
    502034f8:	078e                	slli	a5,a5,0x3
    502034fa:	06078713          	addi	a4,a5,96
    502034fe:	00006797          	auipc	a5,0x6
    50203502:	95a78793          	addi	a5,a5,-1702 # 50208e58 <pcb>
    50203506:	97ba                	add	a5,a5,a4
    50203508:	873e                	mv	a4,a5
    5020350a:	00002517          	auipc	a0,0x2
    5020350e:	d1e50513          	addi	a0,a0,-738 # 50205228 <__FUNCTION__.0+0x60>
    50203512:	2d4010ef          	jal	502047e6 <printk>
    50203516:	fe842783          	lw	a5,-24(s0)
    5020351a:	2785                	addiw	a5,a5,1
    5020351c:	fef42423          	sw	a5,-24(s0)
    50203520:	00003797          	auipc	a5,0x3
    50203524:	2c478793          	addi	a5,a5,708 # 502067e4 <pcb_num>
    50203528:	439c                	lw	a5,0(a5)
    5020352a:	fe842703          	lw	a4,-24(s0)
    5020352e:	2701                	sext.w	a4,a4
    50203530:	f4f749e3          	blt	a4,a5,50203482 <do_process_show+0x18>
    50203534:	0001                	nop
    50203536:	0001                	nop
    50203538:	70a2                	ld	ra,40(sp)
    5020353a:	7402                	ld	s0,32(sp)
    5020353c:	6145                	addi	sp,sp,48
    5020353e:	8082                	ret

0000000050203540 <do_waitpid>:
    50203540:	7139                	addi	sp,sp,-64
    50203542:	fc06                	sd	ra,56(sp)
    50203544:	f822                	sd	s0,48(sp)
    50203546:	0080                	addi	s0,sp,64
    50203548:	87aa                	mv	a5,a0
    5020354a:	fcf42623          	sw	a5,-52(s0)
    5020354e:	fe042623          	sw	zero,-20(s0)
    50203552:	a03d                	j	50203580 <do_waitpid+0x40>
    50203554:	00006697          	auipc	a3,0x6
    50203558:	90468693          	addi	a3,a3,-1788 # 50208e58 <pcb>
    5020355c:	fec42703          	lw	a4,-20(s0)
    50203560:	87ba                	mv	a5,a4
    50203562:	0792                	slli	a5,a5,0x4
    50203564:	97ba                	add	a5,a5,a4
    50203566:	078e                	slli	a5,a5,0x3
    50203568:	97b6                	add	a5,a5,a3
    5020356a:	43bc                	lw	a5,64(a5)
    5020356c:	fcc42703          	lw	a4,-52(s0)
    50203570:	2701                	sext.w	a4,a4
    50203572:	00f70f63          	beq	a4,a5,50203590 <do_waitpid+0x50>
    50203576:	fec42783          	lw	a5,-20(s0)
    5020357a:	2785                	addiw	a5,a5,1
    5020357c:	fef42623          	sw	a5,-20(s0)
    50203580:	fec42783          	lw	a5,-20(s0)
    50203584:	0007871b          	sext.w	a4,a5
    50203588:	47bd                	li	a5,15
    5020358a:	fce7d5e3          	bge	a5,a4,50203554 <do_waitpid+0x14>
    5020358e:	a011                	j	50203592 <do_waitpid+0x52>
    50203590:	0001                	nop
    50203592:	fec42783          	lw	a5,-20(s0)
    50203596:	0007871b          	sext.w	a4,a5
    5020359a:	47c1                	li	a5,16
    5020359c:	02f70163          	beq	a4,a5,502035be <do_waitpid+0x7e>
    502035a0:	00006697          	auipc	a3,0x6
    502035a4:	8b868693          	addi	a3,a3,-1864 # 50208e58 <pcb>
    502035a8:	fec42703          	lw	a4,-20(s0)
    502035ac:	87ba                	mv	a5,a4
    502035ae:	0792                	slli	a5,a5,0x4
    502035b0:	97ba                	add	a5,a5,a4
    502035b2:	078e                	slli	a5,a5,0x3
    502035b4:	97b6                	add	a5,a5,a3
    502035b6:	43f8                	lw	a4,68(a5)
    502035b8:	478d                	li	a5,3
    502035ba:	00f71463          	bne	a4,a5,502035c2 <do_waitpid+0x82>
    502035be:	4781                	li	a5,0
    502035c0:	a059                	j	50203646 <do_waitpid+0x106>
    502035c2:	8792                	mv	a5,tp
    502035c4:	01078693          	addi	a3,a5,16
    502035c8:	fec42703          	lw	a4,-20(s0)
    502035cc:	87ba                	mv	a5,a4
    502035ce:	0792                	slli	a5,a5,0x4
    502035d0:	97ba                	add	a5,a5,a4
    502035d2:	078e                	slli	a5,a5,0x3
    502035d4:	02078713          	addi	a4,a5,32
    502035d8:	00006797          	auipc	a5,0x6
    502035dc:	88078793          	addi	a5,a5,-1920 # 50208e58 <pcb>
    502035e0:	97ba                	add	a5,a5,a4
    502035e2:	85be                	mv	a1,a5
    502035e4:	8536                	mv	a0,a3
    502035e6:	b3bff0ef          	jal	50203120 <queue_pushfront>
    502035ea:	00003797          	auipc	a5,0x3
    502035ee:	19678793          	addi	a5,a5,406 # 50206780 <ready_queue>
    502035f2:	6398                	ld	a4,0(a5)
    502035f4:	00003797          	auipc	a5,0x3
    502035f8:	18c78793          	addi	a5,a5,396 # 50206780 <ready_queue>
    502035fc:	00f71463          	bne	a4,a5,50203604 <do_waitpid+0xc4>
    50203600:	4781                	li	a5,0
    50203602:	a091                	j	50203646 <do_waitpid+0x106>
    50203604:	00003517          	auipc	a0,0x3
    50203608:	17c50513          	addi	a0,a0,380 # 50206780 <ready_queue>
    5020360c:	b61ff0ef          	jal	5020316c <queue_popback>
    50203610:	87aa                	mv	a5,a0
    50203612:	17c1                	addi	a5,a5,-16
    50203614:	fef43023          	sd	a5,-32(s0)
    50203618:	fe043783          	ld	a5,-32(s0)
    5020361c:	4705                	li	a4,1
    5020361e:	c3f8                	sw	a4,68(a5)
    50203620:	8792                	mv	a5,tp
    50203622:	0407a223          	sw	zero,68(a5)
    50203626:	fc443c23          	sd	tp,-40(s0)
    5020362a:	fe043203          	ld	tp,-32(s0)
    5020362e:	fd843783          	ld	a5,-40(s0)
    50203632:	6398                	ld	a4,0(a5)
    50203634:	fe043783          	ld	a5,-32(s0)
    50203638:	639c                	ld	a5,0(a5)
    5020363a:	85be                	mv	a1,a5
    5020363c:	853a                	mv	a0,a4
    5020363e:	a33fd0ef          	jal	50201070 <switch_to>
    50203642:	fcc42783          	lw	a5,-52(s0)
    50203646:	853e                	mv	a0,a5
    50203648:	70e2                	ld	ra,56(sp)
    5020364a:	7442                	ld	s0,48(sp)
    5020364c:	6121                	addi	sp,sp,64
    5020364e:	8082                	ret

0000000050203650 <do_exit>:
    50203650:	1141                	addi	sp,sp,-16
    50203652:	e406                	sd	ra,8(sp)
    50203654:	e022                	sd	s0,0(sp)
    50203656:	0800                	addi	s0,sp,16
    50203658:	8712                	mv	a4,tp
    5020365a:	478d                	li	a5,3
    5020365c:	c37c                	sw	a5,68(a4)
    5020365e:	8712                	mv	a4,tp
    50203660:	57fd                	li	a5,-1
    50203662:	c33c                	sw	a5,64(a4)
    50203664:	8792                	mv	a5,tp
    50203666:	0807a783          	lw	a5,128(a5)
    5020366a:	0007cf63          	bltz	a5,50203688 <do_exit+0x38>
    5020366e:	8792                	mv	a5,tp
    50203670:	0807a783          	lw	a5,128(a5)
    50203674:	853e                	mv	a0,a5
    50203676:	9b7ff0ef          	jal	5020302c <do_mutex_lock_release>
    5020367a:	a039                	j	50203688 <do_exit+0x38>
    5020367c:	8792                	mv	a5,tp
    5020367e:	02078793          	addi	a5,a5,32
    50203682:	853e                	mv	a0,a5
    50203684:	d97ff0ef          	jal	5020341a <do_unblock>
    50203688:	8792                	mv	a5,tp
    5020368a:	7398                	ld	a4,32(a5)
    5020368c:	8792                	mv	a5,tp
    5020368e:	02078793          	addi	a5,a5,32
    50203692:	fef715e3          	bne	a4,a5,5020367c <do_exit+0x2c>
    50203696:	bc1ff0ef          	jal	50203256 <do_scheduler>
    5020369a:	0001                	nop
    5020369c:	60a2                	ld	ra,8(sp)
    5020369e:	6402                	ld	s0,0(sp)
    502036a0:	0141                	addi	sp,sp,16
    502036a2:	8082                	ret

00000000502036a4 <do_kill>:
    502036a4:	7179                	addi	sp,sp,-48
    502036a6:	f406                	sd	ra,40(sp)
    502036a8:	f022                	sd	s0,32(sp)
    502036aa:	1800                	addi	s0,sp,48
    502036ac:	87aa                	mv	a5,a0
    502036ae:	fcf42e23          	sw	a5,-36(s0)
    502036b2:	8792                	mv	a5,tp
    502036b4:	43bc                	lw	a5,64(a5)
    502036b6:	fdc42703          	lw	a4,-36(s0)
    502036ba:	2701                	sext.w	a4,a4
    502036bc:	00f71663          	bne	a4,a5,502036c8 <do_kill+0x24>
    502036c0:	f91ff0ef          	jal	50203650 <do_exit>
    502036c4:	4785                	li	a5,1
    502036c6:	a289                	j	50203808 <do_kill+0x164>
    502036c8:	fe042623          	sw	zero,-20(s0)
    502036cc:	a03d                	j	502036fa <do_kill+0x56>
    502036ce:	00005697          	auipc	a3,0x5
    502036d2:	78a68693          	addi	a3,a3,1930 # 50208e58 <pcb>
    502036d6:	fec42703          	lw	a4,-20(s0)
    502036da:	87ba                	mv	a5,a4
    502036dc:	0792                	slli	a5,a5,0x4
    502036de:	97ba                	add	a5,a5,a4
    502036e0:	078e                	slli	a5,a5,0x3
    502036e2:	97b6                	add	a5,a5,a3
    502036e4:	43bc                	lw	a5,64(a5)
    502036e6:	fdc42703          	lw	a4,-36(s0)
    502036ea:	2701                	sext.w	a4,a4
    502036ec:	00f70f63          	beq	a4,a5,5020370a <do_kill+0x66>
    502036f0:	fec42783          	lw	a5,-20(s0)
    502036f4:	2785                	addiw	a5,a5,1
    502036f6:	fef42623          	sw	a5,-20(s0)
    502036fa:	fec42783          	lw	a5,-20(s0)
    502036fe:	0007871b          	sext.w	a4,a5
    50203702:	47bd                	li	a5,15
    50203704:	fce7d5e3          	bge	a5,a4,502036ce <do_kill+0x2a>
    50203708:	a011                	j	5020370c <do_kill+0x68>
    5020370a:	0001                	nop
    5020370c:	fec42783          	lw	a5,-20(s0)
    50203710:	0007871b          	sext.w	a4,a5
    50203714:	47c1                	li	a5,16
    50203716:	02f70163          	beq	a4,a5,50203738 <do_kill+0x94>
    5020371a:	00005697          	auipc	a3,0x5
    5020371e:	73e68693          	addi	a3,a3,1854 # 50208e58 <pcb>
    50203722:	fec42703          	lw	a4,-20(s0)
    50203726:	87ba                	mv	a5,a4
    50203728:	0792                	slli	a5,a5,0x4
    5020372a:	97ba                	add	a5,a5,a4
    5020372c:	078e                	slli	a5,a5,0x3
    5020372e:	97b6                	add	a5,a5,a3
    50203730:	43f8                	lw	a4,68(a5)
    50203732:	478d                	li	a5,3
    50203734:	00f71463          	bne	a4,a5,5020373c <do_kill+0x98>
    50203738:	4781                	li	a5,0
    5020373a:	a0f9                	j	50203808 <do_kill+0x164>
    5020373c:	00005697          	auipc	a3,0x5
    50203740:	71c68693          	addi	a3,a3,1820 # 50208e58 <pcb>
    50203744:	fec42703          	lw	a4,-20(s0)
    50203748:	87ba                	mv	a5,a4
    5020374a:	0792                	slli	a5,a5,0x4
    5020374c:	97ba                	add	a5,a5,a4
    5020374e:	078e                	slli	a5,a5,0x3
    50203750:	97b6                	add	a5,a5,a3
    50203752:	470d                	li	a4,3
    50203754:	c3f8                	sw	a4,68(a5)
    50203756:	00005697          	auipc	a3,0x5
    5020375a:	70268693          	addi	a3,a3,1794 # 50208e58 <pcb>
    5020375e:	fec42703          	lw	a4,-20(s0)
    50203762:	87ba                	mv	a5,a4
    50203764:	0792                	slli	a5,a5,0x4
    50203766:	97ba                	add	a5,a5,a4
    50203768:	078e                	slli	a5,a5,0x3
    5020376a:	97b6                	add	a5,a5,a3
    5020376c:	577d                	li	a4,-1
    5020376e:	c3b8                	sw	a4,64(a5)
    50203770:	a00d                	j	50203792 <do_kill+0xee>
    50203772:	fec42703          	lw	a4,-20(s0)
    50203776:	87ba                	mv	a5,a4
    50203778:	0792                	slli	a5,a5,0x4
    5020377a:	97ba                	add	a5,a5,a4
    5020377c:	078e                	slli	a5,a5,0x3
    5020377e:	02078713          	addi	a4,a5,32
    50203782:	00005797          	auipc	a5,0x5
    50203786:	6d678793          	addi	a5,a5,1750 # 50208e58 <pcb>
    5020378a:	97ba                	add	a5,a5,a4
    5020378c:	853e                	mv	a0,a5
    5020378e:	c8dff0ef          	jal	5020341a <do_unblock>
    50203792:	00005697          	auipc	a3,0x5
    50203796:	6c668693          	addi	a3,a3,1734 # 50208e58 <pcb>
    5020379a:	fec42703          	lw	a4,-20(s0)
    5020379e:	87ba                	mv	a5,a4
    502037a0:	0792                	slli	a5,a5,0x4
    502037a2:	97ba                	add	a5,a5,a4
    502037a4:	078e                	slli	a5,a5,0x3
    502037a6:	97b6                	add	a5,a5,a3
    502037a8:	7394                	ld	a3,32(a5)
    502037aa:	fec42703          	lw	a4,-20(s0)
    502037ae:	87ba                	mv	a5,a4
    502037b0:	0792                	slli	a5,a5,0x4
    502037b2:	97ba                	add	a5,a5,a4
    502037b4:	078e                	slli	a5,a5,0x3
    502037b6:	02078713          	addi	a4,a5,32
    502037ba:	00005797          	auipc	a5,0x5
    502037be:	69e78793          	addi	a5,a5,1694 # 50208e58 <pcb>
    502037c2:	97ba                	add	a5,a5,a4
    502037c4:	faf697e3          	bne	a3,a5,50203772 <do_kill+0xce>
    502037c8:	00005697          	auipc	a3,0x5
    502037cc:	69068693          	addi	a3,a3,1680 # 50208e58 <pcb>
    502037d0:	fec42703          	lw	a4,-20(s0)
    502037d4:	87ba                	mv	a5,a4
    502037d6:	0792                	slli	a5,a5,0x4
    502037d8:	97ba                	add	a5,a5,a4
    502037da:	078e                	slli	a5,a5,0x3
    502037dc:	97b6                	add	a5,a5,a3
    502037de:	0807a783          	lw	a5,128(a5)
    502037e2:	0207c263          	bltz	a5,50203806 <do_kill+0x162>
    502037e6:	00005697          	auipc	a3,0x5
    502037ea:	67268693          	addi	a3,a3,1650 # 50208e58 <pcb>
    502037ee:	fec42703          	lw	a4,-20(s0)
    502037f2:	87ba                	mv	a5,a4
    502037f4:	0792                	slli	a5,a5,0x4
    502037f6:	97ba                	add	a5,a5,a4
    502037f8:	078e                	slli	a5,a5,0x3
    502037fa:	97b6                	add	a5,a5,a3
    502037fc:	0807a783          	lw	a5,128(a5)
    50203800:	853e                	mv	a0,a5
    50203802:	82bff0ef          	jal	5020302c <do_mutex_lock_release>
    50203806:	4785                	li	a5,1
    50203808:	853e                	mv	a0,a5
    5020380a:	70a2                	ld	ra,40(sp)
    5020380c:	7402                	ld	s0,32(sp)
    5020380e:	6145                	addi	sp,sp,48
    50203810:	8082                	ret

0000000050203812 <do_getpid>:
    50203812:	1141                	addi	sp,sp,-16
    50203814:	e406                	sd	ra,8(sp)
    50203816:	e022                	sd	s0,0(sp)
    50203818:	0800                	addi	s0,sp,16
    5020381a:	8792                	mv	a5,tp
    5020381c:	43bc                	lw	a5,64(a5)
    5020381e:	853e                	mv	a0,a5
    50203820:	60a2                	ld	ra,8(sp)
    50203822:	6402                	ld	s0,0(sp)
    50203824:	0141                	addi	sp,sp,16
    50203826:	8082                	ret

0000000050203828 <do_exec>:
    50203828:	7159                	addi	sp,sp,-112
    5020382a:	f486                	sd	ra,104(sp)
    5020382c:	f0a2                	sd	s0,96(sp)
    5020382e:	1880                	addi	s0,sp,112
    50203830:	faa43423          	sd	a0,-88(s0)
    50203834:	87ae                	mv	a5,a1
    50203836:	f8c43c23          	sd	a2,-104(s0)
    5020383a:	faf42223          	sw	a5,-92(s0)
    5020383e:	fe042623          	sw	zero,-20(s0)
    50203842:	a895                	j	502038b6 <do_exec+0x8e>
    50203844:	fec42703          	lw	a4,-20(s0)
    50203848:	87ba                	mv	a5,a4
    5020384a:	0792                	slli	a5,a5,0x4
    5020384c:	97ba                	add	a5,a5,a4
    5020384e:	078e                	slli	a5,a5,0x3
    50203850:	06078713          	addi	a4,a5,96
    50203854:	00005797          	auipc	a5,0x5
    50203858:	60478793          	addi	a5,a5,1540 # 50208e58 <pcb>
    5020385c:	97ba                	add	a5,a5,a4
    5020385e:	fa843583          	ld	a1,-88(s0)
    50203862:	853e                	mv	a0,a5
    50203864:	1ac010ef          	jal	50204a10 <strcmp>
    50203868:	87aa                	mv	a5,a0
    5020386a:	e395                	bnez	a5,5020388e <do_exec+0x66>
    5020386c:	00005697          	auipc	a3,0x5
    50203870:	5ec68693          	addi	a3,a3,1516 # 50208e58 <pcb>
    50203874:	fec42703          	lw	a4,-20(s0)
    50203878:	87ba                	mv	a5,a4
    5020387a:	0792                	slli	a5,a5,0x4
    5020387c:	97ba                	add	a5,a5,a4
    5020387e:	078e                	slli	a5,a5,0x3
    50203880:	97b6                	add	a5,a5,a3
    50203882:	43f8                	lw	a4,68(a5)
    50203884:	478d                	li	a5,3
    50203886:	00f70463          	beq	a4,a5,5020388e <do_exec+0x66>
    5020388a:	57fd                	li	a5,-1
    5020388c:	a6ed                	j	50203c76 <do_exec+0x44e>
    5020388e:	00005697          	auipc	a3,0x5
    50203892:	5ca68693          	addi	a3,a3,1482 # 50208e58 <pcb>
    50203896:	fec42703          	lw	a4,-20(s0)
    5020389a:	87ba                	mv	a5,a4
    5020389c:	0792                	slli	a5,a5,0x4
    5020389e:	97ba                	add	a5,a5,a4
    502038a0:	078e                	slli	a5,a5,0x3
    502038a2:	97b6                	add	a5,a5,a3
    502038a4:	43f8                	lw	a4,68(a5)
    502038a6:	478d                	li	a5,3
    502038a8:	00f70f63          	beq	a4,a5,502038c6 <do_exec+0x9e>
    502038ac:	fec42783          	lw	a5,-20(s0)
    502038b0:	2785                	addiw	a5,a5,1
    502038b2:	fef42623          	sw	a5,-20(s0)
    502038b6:	fec42783          	lw	a5,-20(s0)
    502038ba:	0007871b          	sext.w	a4,a5
    502038be:	47bd                	li	a5,15
    502038c0:	f8e7d2e3          	bge	a5,a4,50203844 <do_exec+0x1c>
    502038c4:	a011                	j	502038c8 <do_exec+0xa0>
    502038c6:	0001                	nop
    502038c8:	fec42783          	lw	a5,-20(s0)
    502038cc:	0007871b          	sext.w	a4,a5
    502038d0:	47c1                	li	a5,16
    502038d2:	00f71463          	bne	a4,a5,502038da <do_exec+0xb2>
    502038d6:	57f9                	li	a5,-2
    502038d8:	ae79                	j	50203c76 <do_exec+0x44e>
    502038da:	00003797          	auipc	a5,0x3
    502038de:	f0678793          	addi	a5,a5,-250 # 502067e0 <tasknum>
    502038e2:	439c                	lw	a5,0(a5)
    502038e4:	863e                	mv	a2,a5
    502038e6:	00003597          	auipc	a1,0x3
    502038ea:	f4a58593          	addi	a1,a1,-182 # 50206830 <tasks>
    502038ee:	fa843503          	ld	a0,-88(s0)
    502038f2:	9a0ff0ef          	jal	50202a92 <load_task_img>
    502038f6:	862a                	mv	a2,a0
    502038f8:	00005697          	auipc	a3,0x5
    502038fc:	56068693          	addi	a3,a3,1376 # 50208e58 <pcb>
    50203900:	fec42703          	lw	a4,-20(s0)
    50203904:	87ba                	mv	a5,a4
    50203906:	0792                	slli	a5,a5,0x4
    50203908:	97ba                	add	a5,a5,a4
    5020390a:	078e                	slli	a5,a5,0x3
    5020390c:	97b6                	add	a5,a5,a3
    5020390e:	efb0                	sd	a2,88(a5)
    50203910:	00005697          	auipc	a3,0x5
    50203914:	54868693          	addi	a3,a3,1352 # 50208e58 <pcb>
    50203918:	fec42703          	lw	a4,-20(s0)
    5020391c:	87ba                	mv	a5,a4
    5020391e:	0792                	slli	a5,a5,0x4
    50203920:	97ba                	add	a5,a5,a4
    50203922:	078e                	slli	a5,a5,0x3
    50203924:	97b6                	add	a5,a5,a3
    50203926:	6fbc                	ld	a5,88(a5)
    50203928:	e399                	bnez	a5,5020392e <do_exec+0x106>
    5020392a:	57f5                	li	a5,-3
    5020392c:	a6a9                	j	50203c76 <do_exec+0x44e>
    5020392e:	00003797          	auipc	a5,0x3
    50203932:	eb678793          	addi	a5,a5,-330 # 502067e4 <pcb_num>
    50203936:	439c                	lw	a5,0(a5)
    50203938:	2785                	addiw	a5,a5,1
    5020393a:	0007871b          	sext.w	a4,a5
    5020393e:	00003797          	auipc	a5,0x3
    50203942:	ea678793          	addi	a5,a5,-346 # 502067e4 <pcb_num>
    50203946:	c398                	sw	a4,0(a5)
    50203948:	00003797          	auipc	a5,0x3
    5020394c:	e9c78793          	addi	a5,a5,-356 # 502067e4 <pcb_num>
    50203950:	4394                	lw	a3,0(a5)
    50203952:	00005617          	auipc	a2,0x5
    50203956:	50660613          	addi	a2,a2,1286 # 50208e58 <pcb>
    5020395a:	fec42703          	lw	a4,-20(s0)
    5020395e:	87ba                	mv	a5,a4
    50203960:	0792                	slli	a5,a5,0x4
    50203962:	97ba                	add	a5,a5,a4
    50203964:	078e                	slli	a5,a5,0x3
    50203966:	97b2                	add	a5,a5,a2
    50203968:	c3b4                	sw	a3,64(a5)
    5020396a:	00005697          	auipc	a3,0x5
    5020396e:	4ee68693          	addi	a3,a3,1262 # 50208e58 <pcb>
    50203972:	fec42703          	lw	a4,-20(s0)
    50203976:	87ba                	mv	a5,a4
    50203978:	0792                	slli	a5,a5,0x4
    5020397a:	97ba                	add	a5,a5,a4
    5020397c:	078e                	slli	a5,a5,0x3
    5020397e:	97b6                	add	a5,a5,a3
    50203980:	4709                	li	a4,2
    50203982:	c3f8                	sw	a4,68(a5)
    50203984:	fec42703          	lw	a4,-20(s0)
    50203988:	87ba                	mv	a5,a4
    5020398a:	0792                	slli	a5,a5,0x4
    5020398c:	97ba                	add	a5,a5,a4
    5020398e:	078e                	slli	a5,a5,0x3
    50203990:	06078713          	addi	a4,a5,96
    50203994:	00005797          	auipc	a5,0x5
    50203998:	4c478793          	addi	a5,a5,1220 # 50208e58 <pcb>
    5020399c:	97ba                	add	a5,a5,a4
    5020399e:	fa843583          	ld	a1,-88(s0)
    502039a2:	853e                	mv	a0,a5
    502039a4:	19e010ef          	jal	50204b42 <strcpy>
    502039a8:	00005697          	auipc	a3,0x5
    502039ac:	4b068693          	addi	a3,a3,1200 # 50208e58 <pcb>
    502039b0:	fec42703          	lw	a4,-20(s0)
    502039b4:	87ba                	mv	a5,a4
    502039b6:	0792                	slli	a5,a5,0x4
    502039b8:	97ba                	add	a5,a5,a4
    502039ba:	078e                	slli	a5,a5,0x3
    502039bc:	97b6                	add	a5,a5,a3
    502039be:	577d                	li	a4,-1
    502039c0:	08e7a023          	sw	a4,128(a5)
    502039c4:	4505                	li	a0,1
    502039c6:	ebaff0ef          	jal	50203080 <allocKernelPage>
    502039ca:	872a                	mv	a4,a0
    502039cc:	6785                	lui	a5,0x1
    502039ce:	00f706b3          	add	a3,a4,a5
    502039d2:	00005617          	auipc	a2,0x5
    502039d6:	48660613          	addi	a2,a2,1158 # 50208e58 <pcb>
    502039da:	fec42703          	lw	a4,-20(s0)
    502039de:	87ba                	mv	a5,a4
    502039e0:	0792                	slli	a5,a5,0x4
    502039e2:	97ba                	add	a5,a5,a4
    502039e4:	078e                	slli	a5,a5,0x3
    502039e6:	97b2                	add	a5,a5,a2
    502039e8:	fb94                	sd	a3,48(a5)
    502039ea:	4505                	li	a0,1
    502039ec:	ee4ff0ef          	jal	502030d0 <allocUserPage>
    502039f0:	872a                	mv	a4,a0
    502039f2:	6785                	lui	a5,0x1
    502039f4:	00f706b3          	add	a3,a4,a5
    502039f8:	00005617          	auipc	a2,0x5
    502039fc:	46060613          	addi	a2,a2,1120 # 50208e58 <pcb>
    50203a00:	fec42703          	lw	a4,-20(s0)
    50203a04:	87ba                	mv	a5,a4
    50203a06:	0792                	slli	a5,a5,0x4
    50203a08:	97ba                	add	a5,a5,a4
    50203a0a:	078e                	slli	a5,a5,0x3
    50203a0c:	97b2                	add	a5,a5,a2
    50203a0e:	ff94                	sd	a3,56(a5)
    50203a10:	00005697          	auipc	a3,0x5
    50203a14:	44868693          	addi	a3,a3,1096 # 50208e58 <pcb>
    50203a18:	fec42703          	lw	a4,-20(s0)
    50203a1c:	87ba                	mv	a5,a4
    50203a1e:	0792                	slli	a5,a5,0x4
    50203a20:	97ba                	add	a5,a5,a4
    50203a22:	078e                	slli	a5,a5,0x3
    50203a24:	97b6                	add	a5,a5,a3
    50203a26:	7b88                	ld	a0,48(a5)
    50203a28:	00005697          	auipc	a3,0x5
    50203a2c:	43068693          	addi	a3,a3,1072 # 50208e58 <pcb>
    50203a30:	fec42703          	lw	a4,-20(s0)
    50203a34:	87ba                	mv	a5,a4
    50203a36:	0792                	slli	a5,a5,0x4
    50203a38:	97ba                	add	a5,a5,a4
    50203a3a:	078e                	slli	a5,a5,0x3
    50203a3c:	97b6                	add	a5,a5,a3
    50203a3e:	7f8c                	ld	a1,56(a5)
    50203a40:	00005697          	auipc	a3,0x5
    50203a44:	41868693          	addi	a3,a3,1048 # 50208e58 <pcb>
    50203a48:	fec42703          	lw	a4,-20(s0)
    50203a4c:	87ba                	mv	a5,a4
    50203a4e:	0792                	slli	a5,a5,0x4
    50203a50:	97ba                	add	a5,a5,a4
    50203a52:	078e                	slli	a5,a5,0x3
    50203a54:	97b6                	add	a5,a5,a3
    50203a56:	6fb0                	ld	a2,88(a5)
    50203a58:	fec42703          	lw	a4,-20(s0)
    50203a5c:	87ba                	mv	a5,a4
    50203a5e:	0792                	slli	a5,a5,0x4
    50203a60:	97ba                	add	a5,a5,a4
    50203a62:	078e                	slli	a5,a5,0x3
    50203a64:	00005717          	auipc	a4,0x5
    50203a68:	3f470713          	addi	a4,a4,1012 # 50208e58 <pcb>
    50203a6c:	97ba                	add	a5,a5,a4
    50203a6e:	86be                	mv	a3,a5
    50203a70:	86efe0ef          	jal	50201ade <init_pcb_stack>
    50203a74:	00005697          	auipc	a3,0x5
    50203a78:	3e468693          	addi	a3,a3,996 # 50208e58 <pcb>
    50203a7c:	fec42703          	lw	a4,-20(s0)
    50203a80:	87ba                	mv	a5,a4
    50203a82:	0792                	slli	a5,a5,0x4
    50203a84:	97ba                	add	a5,a5,a4
    50203a86:	078e                	slli	a5,a5,0x3
    50203a88:	97b6                	add	a5,a5,a3
    50203a8a:	0407b823          	sd	zero,80(a5) # 1050 <_start-0x501fffb0>
    50203a8e:	00005697          	auipc	a3,0x5
    50203a92:	3ca68693          	addi	a3,a3,970 # 50208e58 <pcb>
    50203a96:	fec42703          	lw	a4,-20(s0)
    50203a9a:	87ba                	mv	a5,a4
    50203a9c:	0792                	slli	a5,a5,0x4
    50203a9e:	97ba                	add	a5,a5,a4
    50203aa0:	078e                	slli	a5,a5,0x3
    50203aa2:	97b6                	add	a5,a5,a3
    50203aa4:	4705                	li	a4,1
    50203aa6:	dff8                	sw	a4,124(a5)
    50203aa8:	00005697          	auipc	a3,0x5
    50203aac:	3b068693          	addi	a3,a3,944 # 50208e58 <pcb>
    50203ab0:	fec42703          	lw	a4,-20(s0)
    50203ab4:	87ba                	mv	a5,a4
    50203ab6:	0792                	slli	a5,a5,0x4
    50203ab8:	97ba                	add	a5,a5,a4
    50203aba:	078e                	slli	a5,a5,0x3
    50203abc:	97b6                	add	a5,a5,a3
    50203abe:	5ff4                	lw	a3,124(a5)
    50203ac0:	00005617          	auipc	a2,0x5
    50203ac4:	39860613          	addi	a2,a2,920 # 50208e58 <pcb>
    50203ac8:	fec42703          	lw	a4,-20(s0)
    50203acc:	87ba                	mv	a5,a4
    50203ace:	0792                	slli	a5,a5,0x4
    50203ad0:	97ba                	add	a5,a5,a4
    50203ad2:	078e                	slli	a5,a5,0x3
    50203ad4:	97b2                	add	a5,a5,a2
    50203ad6:	dfb4                	sw	a3,120(a5)
    50203ad8:	00005697          	auipc	a3,0x5
    50203adc:	38068693          	addi	a3,a3,896 # 50208e58 <pcb>
    50203ae0:	fec42703          	lw	a4,-20(s0)
    50203ae4:	87ba                	mv	a5,a4
    50203ae6:	0792                	slli	a5,a5,0x4
    50203ae8:	97ba                	add	a5,a5,a4
    50203aea:	078e                	slli	a5,a5,0x3
    50203aec:	97b6                	add	a5,a5,a3
    50203aee:	4705                	li	a4,1
    50203af0:	dbb8                	sw	a4,112(a5)
    50203af2:	fec42703          	lw	a4,-20(s0)
    50203af6:	87ba                	mv	a5,a4
    50203af8:	0792                	slli	a5,a5,0x4
    50203afa:	97ba                	add	a5,a5,a4
    50203afc:	078e                	slli	a5,a5,0x3
    50203afe:	02078713          	addi	a4,a5,32
    50203b02:	00005797          	auipc	a5,0x5
    50203b06:	35678793          	addi	a5,a5,854 # 50208e58 <pcb>
    50203b0a:	97ba                	add	a5,a5,a4
    50203b0c:	853e                	mv	a0,a5
    50203b0e:	19e000ef          	jal	50203cac <init_list_head>
    50203b12:	00005697          	auipc	a3,0x5
    50203b16:	34668693          	addi	a3,a3,838 # 50208e58 <pcb>
    50203b1a:	fec42703          	lw	a4,-20(s0)
    50203b1e:	87ba                	mv	a5,a4
    50203b20:	0792                	slli	a5,a5,0x4
    50203b22:	97ba                	add	a5,a5,a4
    50203b24:	078e                	slli	a5,a5,0x3
    50203b26:	97b6                	add	a5,a5,a3
    50203b28:	7f98                	ld	a4,56(a5)
    50203b2a:	fa442783          	lw	a5,-92(s0)
    50203b2e:	078e                	slli	a5,a5,0x3
    50203b30:	40f707b3          	sub	a5,a4,a5
    50203b34:	fcf43823          	sd	a5,-48(s0)
    50203b38:	fd043783          	ld	a5,-48(s0)
    50203b3c:	fef43023          	sd	a5,-32(s0)
    50203b40:	fd043783          	ld	a5,-48(s0)
    50203b44:	fcf43423          	sd	a5,-56(s0)
    50203b48:	fc042e23          	sw	zero,-36(s0)
    50203b4c:	a095                	j	50203bb0 <do_exec+0x388>
    50203b4e:	fdc42783          	lw	a5,-36(s0)
    50203b52:	078e                	slli	a5,a5,0x3
    50203b54:	f9843703          	ld	a4,-104(s0)
    50203b58:	97ba                	add	a5,a5,a4
    50203b5a:	639c                	ld	a5,0(a5)
    50203b5c:	853e                	mv	a0,a5
    50203b5e:	679000ef          	jal	502049d6 <strlen>
    50203b62:	87aa                	mv	a5,a0
    50203b64:	2785                	addiw	a5,a5,1
    50203b66:	faf42e23          	sw	a5,-68(s0)
    50203b6a:	fbc42783          	lw	a5,-68(s0)
    50203b6e:	fe043703          	ld	a4,-32(s0)
    50203b72:	40f707b3          	sub	a5,a4,a5
    50203b76:	fef43023          	sd	a5,-32(s0)
    50203b7a:	fe043683          	ld	a3,-32(s0)
    50203b7e:	fdc42783          	lw	a5,-36(s0)
    50203b82:	078e                	slli	a5,a5,0x3
    50203b84:	f9843703          	ld	a4,-104(s0)
    50203b88:	97ba                	add	a5,a5,a4
    50203b8a:	639c                	ld	a5,0(a5)
    50203b8c:	85be                	mv	a1,a5
    50203b8e:	8536                	mv	a0,a3
    50203b90:	7b3000ef          	jal	50204b42 <strcpy>
    50203b94:	fdc42783          	lw	a5,-36(s0)
    50203b98:	078e                	slli	a5,a5,0x3
    50203b9a:	fc843703          	ld	a4,-56(s0)
    50203b9e:	97ba                	add	a5,a5,a4
    50203ba0:	fe043703          	ld	a4,-32(s0)
    50203ba4:	e398                	sd	a4,0(a5)
    50203ba6:	fdc42783          	lw	a5,-36(s0)
    50203baa:	2785                	addiw	a5,a5,1
    50203bac:	fcf42e23          	sw	a5,-36(s0)
    50203bb0:	fdc42783          	lw	a5,-36(s0)
    50203bb4:	873e                	mv	a4,a5
    50203bb6:	fa442783          	lw	a5,-92(s0)
    50203bba:	2701                	sext.w	a4,a4
    50203bbc:	2781                	sext.w	a5,a5
    50203bbe:	f8f748e3          	blt	a4,a5,50203b4e <do_exec+0x326>
    50203bc2:	fa442783          	lw	a5,-92(s0)
    50203bc6:	078e                	slli	a5,a5,0x3
    50203bc8:	fc843703          	ld	a4,-56(s0)
    50203bcc:	97ba                	add	a5,a5,a4
    50203bce:	0007b023          	sd	zero,0(a5)
    50203bd2:	fe043783          	ld	a5,-32(s0)
    50203bd6:	9bc1                	andi	a5,a5,-16
    50203bd8:	fef43023          	sd	a5,-32(s0)
    50203bdc:	00005697          	auipc	a3,0x5
    50203be0:	27c68693          	addi	a3,a3,636 # 50208e58 <pcb>
    50203be4:	fec42703          	lw	a4,-20(s0)
    50203be8:	87ba                	mv	a5,a4
    50203bea:	0792                	slli	a5,a5,0x4
    50203bec:	97ba                	add	a5,a5,a4
    50203bee:	078e                	slli	a5,a5,0x3
    50203bf0:	97b6                	add	a5,a5,a3
    50203bf2:	7b9c                	ld	a5,48(a5)
    50203bf4:	ee078793          	addi	a5,a5,-288
    50203bf8:	fcf43023          	sd	a5,-64(s0)
    50203bfc:	fc043783          	ld	a5,-64(s0)
    50203c00:	fe043703          	ld	a4,-32(s0)
    50203c04:	eb98                	sd	a4,16(a5)
    50203c06:	fa442703          	lw	a4,-92(s0)
    50203c0a:	fc043783          	ld	a5,-64(s0)
    50203c0e:	ebb8                	sd	a4,80(a5)
    50203c10:	fc043783          	ld	a5,-64(s0)
    50203c14:	fd043703          	ld	a4,-48(s0)
    50203c18:	efb8                	sd	a4,88(a5)
    50203c1a:	00005697          	auipc	a3,0x5
    50203c1e:	23e68693          	addi	a3,a3,574 # 50208e58 <pcb>
    50203c22:	fec42703          	lw	a4,-20(s0)
    50203c26:	87ba                	mv	a5,a4
    50203c28:	0792                	slli	a5,a5,0x4
    50203c2a:	97ba                	add	a5,a5,a4
    50203c2c:	078e                	slli	a5,a5,0x3
    50203c2e:	97b6                	add	a5,a5,a3
    50203c30:	fe043703          	ld	a4,-32(s0)
    50203c34:	e798                	sd	a4,8(a5)
    50203c36:	fec42703          	lw	a4,-20(s0)
    50203c3a:	87ba                	mv	a5,a4
    50203c3c:	0792                	slli	a5,a5,0x4
    50203c3e:	97ba                	add	a5,a5,a4
    50203c40:	078e                	slli	a5,a5,0x3
    50203c42:	01078713          	addi	a4,a5,16
    50203c46:	00005797          	auipc	a5,0x5
    50203c4a:	21278793          	addi	a5,a5,530 # 50208e58 <pcb>
    50203c4e:	97ba                	add	a5,a5,a4
    50203c50:	00003597          	auipc	a1,0x3
    50203c54:	b3058593          	addi	a1,a1,-1232 # 50206780 <ready_queue>
    50203c58:	853e                	mv	a0,a5
    50203c5a:	cc6ff0ef          	jal	50203120 <queue_pushfront>
    50203c5e:	00005697          	auipc	a3,0x5
    50203c62:	1fa68693          	addi	a3,a3,506 # 50208e58 <pcb>
    50203c66:	fec42703          	lw	a4,-20(s0)
    50203c6a:	87ba                	mv	a5,a4
    50203c6c:	0792                	slli	a5,a5,0x4
    50203c6e:	97ba                	add	a5,a5,a4
    50203c70:	078e                	slli	a5,a5,0x3
    50203c72:	97b6                	add	a5,a5,a3
    50203c74:	43bc                	lw	a5,64(a5)
    50203c76:	853e                	mv	a0,a5
    50203c78:	70a6                	ld	ra,104(sp)
    50203c7a:	7406                	ld	s0,96(sp)
    50203c7c:	6165                	addi	sp,sp,112
    50203c7e:	8082                	ret

0000000050203c80 <set_sched_workload>:
    50203c80:	1101                	addi	sp,sp,-32
    50203c82:	ec06                	sd	ra,24(sp)
    50203c84:	e822                	sd	s0,16(sp)
    50203c86:	1000                	addi	s0,sp,32
    50203c88:	87aa                	mv	a5,a0
    50203c8a:	fef42623          	sw	a5,-20(s0)
    50203c8e:	8792                	mv	a5,tp
    50203c90:	cb89                	beqz	a5,50203ca2 <set_sched_workload+0x22>
    50203c92:	8792                	mv	a5,tp
    50203c94:	43bc                	lw	a5,64(a5)
    50203c96:	c791                	beqz	a5,50203ca2 <set_sched_workload+0x22>
    50203c98:	8712                	mv	a4,tp
    50203c9a:	fec42783          	lw	a5,-20(s0)
    50203c9e:	db3c                	sw	a5,112(a4)
    50203ca0:	a011                	j	50203ca4 <set_sched_workload+0x24>
    50203ca2:	0001                	nop
    50203ca4:	60e2                	ld	ra,24(sp)
    50203ca6:	6442                	ld	s0,16(sp)
    50203ca8:	6105                	addi	sp,sp,32
    50203caa:	8082                	ret

0000000050203cac <init_list_head>:
    50203cac:	1101                	addi	sp,sp,-32
    50203cae:	ec06                	sd	ra,24(sp)
    50203cb0:	e822                	sd	s0,16(sp)
    50203cb2:	1000                	addi	s0,sp,32
    50203cb4:	fea43423          	sd	a0,-24(s0)
    50203cb8:	fe843783          	ld	a5,-24(s0)
    50203cbc:	fe843703          	ld	a4,-24(s0)
    50203cc0:	e798                	sd	a4,8(a5)
    50203cc2:	fe843783          	ld	a5,-24(s0)
    50203cc6:	6798                	ld	a4,8(a5)
    50203cc8:	fe843783          	ld	a5,-24(s0)
    50203ccc:	e398                	sd	a4,0(a5)
    50203cce:	0001                	nop
    50203cd0:	60e2                	ld	ra,24(sp)
    50203cd2:	6442                	ld	s0,16(sp)
    50203cd4:	6105                	addi	sp,sp,32
    50203cd6:	8082                	ret

0000000050203cd8 <get_ticks>:
    50203cd8:	1141                	addi	sp,sp,-16
    50203cda:	e406                	sd	ra,8(sp)
    50203cdc:	e022                	sd	s0,0(sp)
    50203cde:	0800                	addi	s0,sp,16
    50203ce0:	c0102773          	rdtime	a4
    50203ce4:	00003797          	auipc	a5,0x3
    50203ce8:	b0478793          	addi	a5,a5,-1276 # 502067e8 <time_elapsed>
    50203cec:	e398                	sd	a4,0(a5)
    50203cee:	00003797          	auipc	a5,0x3
    50203cf2:	afa78793          	addi	a5,a5,-1286 # 502067e8 <time_elapsed>
    50203cf6:	639c                	ld	a5,0(a5)
    50203cf8:	853e                	mv	a0,a5
    50203cfa:	60a2                	ld	ra,8(sp)
    50203cfc:	6402                	ld	s0,0(sp)
    50203cfe:	0141                	addi	sp,sp,16
    50203d00:	8082                	ret

0000000050203d02 <get_timer>:
    50203d02:	1141                	addi	sp,sp,-16
    50203d04:	e406                	sd	ra,8(sp)
    50203d06:	e022                	sd	s0,0(sp)
    50203d08:	0800                	addi	s0,sp,16
    50203d0a:	fcfff0ef          	jal	50203cd8 <get_ticks>
    50203d0e:	872a                	mv	a4,a0
    50203d10:	00003797          	auipc	a5,0x3
    50203d14:	ae078793          	addi	a5,a5,-1312 # 502067f0 <time_base>
    50203d18:	639c                	ld	a5,0(a5)
    50203d1a:	02f757b3          	divu	a5,a4,a5
    50203d1e:	853e                	mv	a0,a5
    50203d20:	60a2                	ld	ra,8(sp)
    50203d22:	6402                	ld	s0,0(sp)
    50203d24:	0141                	addi	sp,sp,16
    50203d26:	8082                	ret

0000000050203d28 <get_time_base>:
    50203d28:	1141                	addi	sp,sp,-16
    50203d2a:	e406                	sd	ra,8(sp)
    50203d2c:	e022                	sd	s0,0(sp)
    50203d2e:	0800                	addi	s0,sp,16
    50203d30:	00003797          	auipc	a5,0x3
    50203d34:	ac078793          	addi	a5,a5,-1344 # 502067f0 <time_base>
    50203d38:	639c                	ld	a5,0(a5)
    50203d3a:	853e                	mv	a0,a5
    50203d3c:	60a2                	ld	ra,8(sp)
    50203d3e:	6402                	ld	s0,0(sp)
    50203d40:	0141                	addi	sp,sp,16
    50203d42:	8082                	ret

0000000050203d44 <latency>:
    50203d44:	7179                	addi	sp,sp,-48
    50203d46:	f406                	sd	ra,40(sp)
    50203d48:	f022                	sd	s0,32(sp)
    50203d4a:	1800                	addi	s0,sp,48
    50203d4c:	fca43c23          	sd	a0,-40(s0)
    50203d50:	fb3ff0ef          	jal	50203d02 <get_timer>
    50203d54:	fea43423          	sd	a0,-24(s0)
    50203d58:	0001                	nop
    50203d5a:	fa9ff0ef          	jal	50203d02 <get_timer>
    50203d5e:	872a                	mv	a4,a0
    50203d60:	fe843783          	ld	a5,-24(s0)
    50203d64:	40f707b3          	sub	a5,a4,a5
    50203d68:	fd843703          	ld	a4,-40(s0)
    50203d6c:	fee7e7e3          	bltu	a5,a4,50203d5a <latency+0x16>
    50203d70:	0001                	nop
    50203d72:	70a2                	ld	ra,40(sp)
    50203d74:	7402                	ld	s0,32(sp)
    50203d76:	6145                	addi	sp,sp,48
    50203d78:	8082                	ret

0000000050203d7a <smp_init>:
    50203d7a:	1141                	addi	sp,sp,-16
    50203d7c:	e406                	sd	ra,8(sp)
    50203d7e:	e022                	sd	s0,0(sp)
    50203d80:	0800                	addi	s0,sp,16
    50203d82:	0001                	nop
    50203d84:	60a2                	ld	ra,8(sp)
    50203d86:	6402                	ld	s0,0(sp)
    50203d88:	0141                	addi	sp,sp,16
    50203d8a:	8082                	ret

0000000050203d8c <wakeup_other_hart>:
    50203d8c:	1141                	addi	sp,sp,-16
    50203d8e:	e406                	sd	ra,8(sp)
    50203d90:	e022                	sd	s0,0(sp)
    50203d92:	0800                	addi	s0,sp,16
    50203d94:	0001                	nop
    50203d96:	60a2                	ld	ra,8(sp)
    50203d98:	6402                	ld	s0,0(sp)
    50203d9a:	0141                	addi	sp,sp,16
    50203d9c:	8082                	ret

0000000050203d9e <lock_kernel>:
    50203d9e:	1141                	addi	sp,sp,-16
    50203da0:	e406                	sd	ra,8(sp)
    50203da2:	e022                	sd	s0,0(sp)
    50203da4:	0800                	addi	s0,sp,16
    50203da6:	0001                	nop
    50203da8:	60a2                	ld	ra,8(sp)
    50203daa:	6402                	ld	s0,0(sp)
    50203dac:	0141                	addi	sp,sp,16
    50203dae:	8082                	ret

0000000050203db0 <unlock_kernel>:
    50203db0:	1141                	addi	sp,sp,-16
    50203db2:	e406                	sd	ra,8(sp)
    50203db4:	e022                	sd	s0,0(sp)
    50203db6:	0800                	addi	s0,sp,16
    50203db8:	0001                	nop
    50203dba:	60a2                	ld	ra,8(sp)
    50203dbc:	6402                	ld	s0,0(sp)
    50203dbe:	0141                	addi	sp,sp,16
    50203dc0:	8082                	ret

0000000050203dc2 <handle_syscall>:
    50203dc2:	7139                	addi	sp,sp,-64
    50203dc4:	fc06                	sd	ra,56(sp)
    50203dc6:	f822                	sd	s0,48(sp)
    50203dc8:	0080                	addi	s0,sp,64
    50203dca:	fca43c23          	sd	a0,-40(s0)
    50203dce:	fcb43823          	sd	a1,-48(s0)
    50203dd2:	fcc43423          	sd	a2,-56(s0)
    50203dd6:	fd843783          	ld	a5,-40(s0)
    50203dda:	67dc                	ld	a5,136(a5)
    50203ddc:	00006717          	auipc	a4,0x6
    50203de0:	8fc70713          	addi	a4,a4,-1796 # 502096d8 <syscall>
    50203de4:	078e                	slli	a5,a5,0x3
    50203de6:	97ba                	add	a5,a5,a4
    50203de8:	639c                	ld	a5,0(a5)
    50203dea:	fef43423          	sd	a5,-24(s0)
    50203dee:	fd843783          	ld	a5,-40(s0)
    50203df2:	6bbc                	ld	a5,80(a5)
    50203df4:	873e                	mv	a4,a5
    50203df6:	fd843783          	ld	a5,-40(s0)
    50203dfa:	6fbc                	ld	a5,88(a5)
    50203dfc:	86be                	mv	a3,a5
    50203dfe:	fd843783          	ld	a5,-40(s0)
    50203e02:	73bc                	ld	a5,96(a5)
    50203e04:	863e                	mv	a2,a5
    50203e06:	fe843783          	ld	a5,-24(s0)
    50203e0a:	85b6                	mv	a1,a3
    50203e0c:	853a                	mv	a0,a4
    50203e0e:	9782                	jalr	a5
    50203e10:	fea43023          	sd	a0,-32(s0)
    50203e14:	fe043703          	ld	a4,-32(s0)
    50203e18:	fd843783          	ld	a5,-40(s0)
    50203e1c:	ebb8                	sd	a4,80(a5)
    50203e1e:	fd843783          	ld	a5,-40(s0)
    50203e22:	1087b783          	ld	a5,264(a5)
    50203e26:	00478713          	addi	a4,a5,4
    50203e2a:	fd843783          	ld	a5,-40(s0)
    50203e2e:	10e7b423          	sd	a4,264(a5)
    50203e32:	0001                	nop
    50203e34:	70e2                	ld	ra,56(sp)
    50203e36:	7442                	ld	s0,48(sp)
    50203e38:	6121                	addi	sp,sp,64
    50203e3a:	8082                	ret

0000000050203e3c <call_jmptab>:
    50203e3c:	715d                	addi	sp,sp,-80
    50203e3e:	e486                	sd	ra,72(sp)
    50203e40:	e0a2                	sd	s0,64(sp)
    50203e42:	0880                	addi	s0,sp,80
    50203e44:	fca43c23          	sd	a0,-40(s0)
    50203e48:	fcb43823          	sd	a1,-48(s0)
    50203e4c:	fcc43423          	sd	a2,-56(s0)
    50203e50:	fcd43023          	sd	a3,-64(s0)
    50203e54:	fae43c23          	sd	a4,-72(s0)
    50203e58:	faf43823          	sd	a5,-80(s0)
    50203e5c:	fd843703          	ld	a4,-40(s0)
    50203e60:	0a4007b7          	lui	a5,0xa400
    50203e64:	1781                	addi	a5,a5,-32 # a3fffe0 <_start-0x45e01020>
    50203e66:	97ba                	add	a5,a5,a4
    50203e68:	078e                	slli	a5,a5,0x3
    50203e6a:	639c                	ld	a5,0(a5)
    50203e6c:	fef43423          	sd	a5,-24(s0)
    50203e70:	fe843783          	ld	a5,-24(s0)
    50203e74:	fef43023          	sd	a5,-32(s0)
    50203e78:	fe043783          	ld	a5,-32(s0)
    50203e7c:	fb043703          	ld	a4,-80(s0)
    50203e80:	fb843683          	ld	a3,-72(s0)
    50203e84:	fc043603          	ld	a2,-64(s0)
    50203e88:	fc843583          	ld	a1,-56(s0)
    50203e8c:	fd043503          	ld	a0,-48(s0)
    50203e90:	9782                	jalr	a5
    50203e92:	87aa                	mv	a5,a0
    50203e94:	853e                	mv	a0,a5
    50203e96:	60a6                	ld	ra,72(sp)
    50203e98:	6406                	ld	s0,64(sp)
    50203e9a:	6161                	addi	sp,sp,80
    50203e9c:	8082                	ret

0000000050203e9e <bios_putstr>:
    50203e9e:	1101                	addi	sp,sp,-32
    50203ea0:	ec06                	sd	ra,24(sp)
    50203ea2:	e822                	sd	s0,16(sp)
    50203ea4:	1000                	addi	s0,sp,32
    50203ea6:	fea43423          	sd	a0,-24(s0)
    50203eaa:	fe843583          	ld	a1,-24(s0)
    50203eae:	4781                	li	a5,0
    50203eb0:	4701                	li	a4,0
    50203eb2:	4681                	li	a3,0
    50203eb4:	4601                	li	a2,0
    50203eb6:	4501                	li	a0,0
    50203eb8:	f85ff0ef          	jal	50203e3c <call_jmptab>
    50203ebc:	0001                	nop
    50203ebe:	60e2                	ld	ra,24(sp)
    50203ec0:	6442                	ld	s0,16(sp)
    50203ec2:	6105                	addi	sp,sp,32
    50203ec4:	8082                	ret

0000000050203ec6 <bios_logging>:
    50203ec6:	1101                	addi	sp,sp,-32
    50203ec8:	ec06                	sd	ra,24(sp)
    50203eca:	e822                	sd	s0,16(sp)
    50203ecc:	1000                	addi	s0,sp,32
    50203ece:	fea43423          	sd	a0,-24(s0)
    50203ed2:	fe843583          	ld	a1,-24(s0)
    50203ed6:	4781                	li	a5,0
    50203ed8:	4701                	li	a4,0
    50203eda:	4681                	li	a3,0
    50203edc:	4601                	li	a2,0
    50203ede:	4515                	li	a0,5
    50203ee0:	f5dff0ef          	jal	50203e3c <call_jmptab>
    50203ee4:	0001                	nop
    50203ee6:	60e2                	ld	ra,24(sp)
    50203ee8:	6442                	ld	s0,16(sp)
    50203eea:	6105                	addi	sp,sp,32
    50203eec:	8082                	ret

0000000050203eee <mini_strlen>:
    50203eee:	7179                	addi	sp,sp,-48
    50203ef0:	f406                	sd	ra,40(sp)
    50203ef2:	f022                	sd	s0,32(sp)
    50203ef4:	1800                	addi	s0,sp,48
    50203ef6:	fca43c23          	sd	a0,-40(s0)
    50203efa:	fe042623          	sw	zero,-20(s0)
    50203efe:	a031                	j	50203f0a <mini_strlen+0x1c>
    50203f00:	fec42783          	lw	a5,-20(s0)
    50203f04:	2785                	addiw	a5,a5,1
    50203f06:	fef42623          	sw	a5,-20(s0)
    50203f0a:	fec46783          	lwu	a5,-20(s0)
    50203f0e:	fd843703          	ld	a4,-40(s0)
    50203f12:	97ba                	add	a5,a5,a4
    50203f14:	0007c783          	lbu	a5,0(a5)
    50203f18:	f7e5                	bnez	a5,50203f00 <mini_strlen+0x12>
    50203f1a:	fec42783          	lw	a5,-20(s0)
    50203f1e:	853e                	mv	a0,a5
    50203f20:	70a2                	ld	ra,40(sp)
    50203f22:	7402                	ld	s0,32(sp)
    50203f24:	6145                	addi	sp,sp,48
    50203f26:	8082                	ret

0000000050203f28 <mini_itoa>:
    50203f28:	711d                	addi	sp,sp,-96
    50203f2a:	ec86                	sd	ra,88(sp)
    50203f2c:	e8a2                	sd	s0,80(sp)
    50203f2e:	1080                	addi	s0,sp,96
    50203f30:	fca43423          	sd	a0,-56(s0)
    50203f34:	852e                	mv	a0,a1
    50203f36:	85b2                	mv	a1,a2
    50203f38:	8636                	mv	a2,a3
    50203f3a:	fae43823          	sd	a4,-80(s0)
    50203f3e:	86be                	mv	a3,a5
    50203f40:	8742                	mv	a4,a6
    50203f42:	87aa                	mv	a5,a0
    50203f44:	fcf42223          	sw	a5,-60(s0)
    50203f48:	87ae                	mv	a5,a1
    50203f4a:	fcf42023          	sw	a5,-64(s0)
    50203f4e:	87b2                	mv	a5,a2
    50203f50:	faf42e23          	sw	a5,-68(s0)
    50203f54:	87b6                	mv	a5,a3
    50203f56:	faf42c23          	sw	a5,-72(s0)
    50203f5a:	87ba                	mv	a5,a4
    50203f5c:	faf407a3          	sb	a5,-81(s0)
    50203f60:	fb043783          	ld	a5,-80(s0)
    50203f64:	fef43423          	sd	a5,-24(s0)
    50203f68:	fe042223          	sw	zero,-28(s0)
    50203f6c:	fc442783          	lw	a5,-60(s0)
    50203f70:	0007871b          	sext.w	a4,a5
    50203f74:	47c1                	li	a5,16
    50203f76:	00e7f463          	bgeu	a5,a4,50203f7e <mini_itoa+0x56>
    50203f7a:	4781                	li	a5,0
    50203f7c:	aaf9                	j	5020415a <mini_itoa+0x232>
    50203f7e:	fc843783          	ld	a5,-56(s0)
    50203f82:	0007df63          	bgez	a5,50203fa0 <mini_itoa+0x78>
    50203f86:	fbc42783          	lw	a5,-68(s0)
    50203f8a:	2781                	sext.w	a5,a5
    50203f8c:	eb91                	bnez	a5,50203fa0 <mini_itoa+0x78>
    50203f8e:	4785                	li	a5,1
    50203f90:	fef42223          	sw	a5,-28(s0)
    50203f94:	fc843783          	ld	a5,-56(s0)
    50203f98:	40f007b3          	neg	a5,a5
    50203f9c:	fcf43423          	sd	a5,-56(s0)
    50203fa0:	fc042e23          	sw	zero,-36(s0)
    50203fa4:	fbc42783          	lw	a5,-68(s0)
    50203fa8:	2781                	sext.w	a5,a5
    50203faa:	cb91                	beqz	a5,50203fbe <mini_itoa+0x96>
    50203fac:	fc843703          	ld	a4,-56(s0)
    50203fb0:	fc446783          	lwu	a5,-60(s0)
    50203fb4:	02f777b3          	remu	a5,a4,a5
    50203fb8:	fcf42e23          	sw	a5,-36(s0)
    50203fbc:	a809                	j	50203fce <mini_itoa+0xa6>
    50203fbe:	fc446783          	lwu	a5,-60(s0)
    50203fc2:	fc843703          	ld	a4,-56(s0)
    50203fc6:	02f767b3          	rem	a5,a4,a5
    50203fca:	fcf42e23          	sw	a5,-36(s0)
    50203fce:	fdc42783          	lw	a5,-36(s0)
    50203fd2:	0007871b          	sext.w	a4,a5
    50203fd6:	47a5                	li	a5,9
    50203fd8:	00e7cb63          	blt	a5,a4,50203fee <mini_itoa+0xc6>
    50203fdc:	fdc42783          	lw	a5,-36(s0)
    50203fe0:	0ff7f793          	zext.b	a5,a5
    50203fe4:	0307879b          	addiw	a5,a5,48
    50203fe8:	0ff7f713          	zext.b	a4,a5
    50203fec:	a025                	j	50204014 <mini_itoa+0xec>
    50203fee:	fc042783          	lw	a5,-64(s0)
    50203ff2:	2781                	sext.w	a5,a5
    50203ff4:	c781                	beqz	a5,50203ffc <mini_itoa+0xd4>
    50203ff6:	04100793          	li	a5,65
    50203ffa:	a019                	j	50204000 <mini_itoa+0xd8>
    50203ffc:	06100793          	li	a5,97
    50204000:	fdc42703          	lw	a4,-36(s0)
    50204004:	0ff77713          	zext.b	a4,a4
    50204008:	9fb9                	addw	a5,a5,a4
    5020400a:	0ff7f793          	zext.b	a5,a5
    5020400e:	37d9                	addiw	a5,a5,-10
    50204010:	0ff7f713          	zext.b	a4,a5
    50204014:	fe843783          	ld	a5,-24(s0)
    50204018:	00178693          	addi	a3,a5,1
    5020401c:	fed43423          	sd	a3,-24(s0)
    50204020:	00e78023          	sb	a4,0(a5)
    50204024:	fbc42783          	lw	a5,-68(s0)
    50204028:	2781                	sext.w	a5,a5
    5020402a:	cb91                	beqz	a5,5020403e <mini_itoa+0x116>
    5020402c:	fc843703          	ld	a4,-56(s0)
    50204030:	fc446783          	lwu	a5,-60(s0)
    50204034:	02f757b3          	divu	a5,a4,a5
    50204038:	fcf43423          	sd	a5,-56(s0)
    5020403c:	a809                	j	5020404e <mini_itoa+0x126>
    5020403e:	fc446783          	lwu	a5,-60(s0)
    50204042:	fc843703          	ld	a4,-56(s0)
    50204046:	02f747b3          	div	a5,a4,a5
    5020404a:	fcf43423          	sd	a5,-56(s0)
    5020404e:	fc843783          	ld	a5,-56(s0)
    50204052:	f7b9                	bnez	a5,50203fa0 <mini_itoa+0x78>
    50204054:	fe843703          	ld	a4,-24(s0)
    50204058:	fb043783          	ld	a5,-80(s0)
    5020405c:	40f707b3          	sub	a5,a4,a5
    50204060:	fef42023          	sw	a5,-32(s0)
    50204064:	a005                	j	50204084 <mini_itoa+0x15c>
    50204066:	fe843783          	ld	a5,-24(s0)
    5020406a:	00178713          	addi	a4,a5,1
    5020406e:	fee43423          	sd	a4,-24(s0)
    50204072:	faf44703          	lbu	a4,-81(s0)
    50204076:	00e78023          	sb	a4,0(a5)
    5020407a:	fe042783          	lw	a5,-32(s0)
    5020407e:	2785                	addiw	a5,a5,1
    50204080:	fef42023          	sw	a5,-32(s0)
    50204084:	fe042783          	lw	a5,-32(s0)
    50204088:	873e                	mv	a4,a5
    5020408a:	fb842783          	lw	a5,-72(s0)
    5020408e:	2701                	sext.w	a4,a4
    50204090:	2781                	sext.w	a5,a5
    50204092:	fcf76ae3          	bltu	a4,a5,50204066 <mini_itoa+0x13e>
    50204096:	fe442783          	lw	a5,-28(s0)
    5020409a:	2781                	sext.w	a5,a5
    5020409c:	cb99                	beqz	a5,502040b2 <mini_itoa+0x18a>
    5020409e:	fe843783          	ld	a5,-24(s0)
    502040a2:	00178713          	addi	a4,a5,1
    502040a6:	fee43423          	sd	a4,-24(s0)
    502040aa:	02d00713          	li	a4,45
    502040ae:	00e78023          	sb	a4,0(a5)
    502040b2:	fe843783          	ld	a5,-24(s0)
    502040b6:	00078023          	sb	zero,0(a5)
    502040ba:	fe843703          	ld	a4,-24(s0)
    502040be:	fb043783          	ld	a5,-80(s0)
    502040c2:	40f707b3          	sub	a5,a4,a5
    502040c6:	fcf42c23          	sw	a5,-40(s0)
    502040ca:	fe042023          	sw	zero,-32(s0)
    502040ce:	a895                	j	50204142 <mini_itoa+0x21a>
    502040d0:	fe046783          	lwu	a5,-32(s0)
    502040d4:	fb043703          	ld	a4,-80(s0)
    502040d8:	97ba                	add	a5,a5,a4
    502040da:	0007c783          	lbu	a5,0(a5)
    502040de:	fcf40ba3          	sb	a5,-41(s0)
    502040e2:	fd842783          	lw	a5,-40(s0)
    502040e6:	873e                	mv	a4,a5
    502040e8:	fe042783          	lw	a5,-32(s0)
    502040ec:	40f707bb          	subw	a5,a4,a5
    502040f0:	2781                	sext.w	a5,a5
    502040f2:	37fd                	addiw	a5,a5,-1
    502040f4:	2781                	sext.w	a5,a5
    502040f6:	1782                	slli	a5,a5,0x20
    502040f8:	9381                	srli	a5,a5,0x20
    502040fa:	fb043703          	ld	a4,-80(s0)
    502040fe:	973e                	add	a4,a4,a5
    50204100:	fe046783          	lwu	a5,-32(s0)
    50204104:	fb043683          	ld	a3,-80(s0)
    50204108:	97b6                	add	a5,a5,a3
    5020410a:	00074703          	lbu	a4,0(a4)
    5020410e:	00e78023          	sb	a4,0(a5)
    50204112:	fd842783          	lw	a5,-40(s0)
    50204116:	873e                	mv	a4,a5
    50204118:	fe042783          	lw	a5,-32(s0)
    5020411c:	40f707bb          	subw	a5,a4,a5
    50204120:	2781                	sext.w	a5,a5
    50204122:	37fd                	addiw	a5,a5,-1
    50204124:	2781                	sext.w	a5,a5
    50204126:	1782                	slli	a5,a5,0x20
    50204128:	9381                	srli	a5,a5,0x20
    5020412a:	fb043703          	ld	a4,-80(s0)
    5020412e:	97ba                	add	a5,a5,a4
    50204130:	fd744703          	lbu	a4,-41(s0)
    50204134:	00e78023          	sb	a4,0(a5)
    50204138:	fe042783          	lw	a5,-32(s0)
    5020413c:	2785                	addiw	a5,a5,1
    5020413e:	fef42023          	sw	a5,-32(s0)
    50204142:	fd842783          	lw	a5,-40(s0)
    50204146:	0017d79b          	srliw	a5,a5,0x1
    5020414a:	2781                	sext.w	a5,a5
    5020414c:	fe042703          	lw	a4,-32(s0)
    50204150:	2701                	sext.w	a4,a4
    50204152:	f6f76fe3          	bltu	a4,a5,502040d0 <mini_itoa+0x1a8>
    50204156:	fd842783          	lw	a5,-40(s0)
    5020415a:	853e                	mv	a0,a5
    5020415c:	60e6                	ld	ra,88(sp)
    5020415e:	6446                	ld	s0,80(sp)
    50204160:	6125                	addi	sp,sp,96
    50204162:	8082                	ret

0000000050204164 <_putc>:
    50204164:	1101                	addi	sp,sp,-32
    50204166:	ec06                	sd	ra,24(sp)
    50204168:	e822                	sd	s0,16(sp)
    5020416a:	1000                	addi	s0,sp,32
    5020416c:	87aa                	mv	a5,a0
    5020416e:	feb43023          	sd	a1,-32(s0)
    50204172:	fef42623          	sw	a5,-20(s0)
    50204176:	fe043783          	ld	a5,-32(s0)
    5020417a:	6798                	ld	a4,8(a5)
    5020417c:	fe043783          	ld	a5,-32(s0)
    50204180:	639c                	ld	a5,0(a5)
    50204182:	40f707b3          	sub	a5,a4,a5
    50204186:	2781                	sext.w	a5,a5
    50204188:	2785                	addiw	a5,a5,1
    5020418a:	0007871b          	sext.w	a4,a5
    5020418e:	fe043783          	ld	a5,-32(s0)
    50204192:	4b9c                	lw	a5,16(a5)
    50204194:	00f76463          	bltu	a4,a5,5020419c <_putc+0x38>
    50204198:	4781                	li	a5,0
    5020419a:	a02d                	j	502041c4 <_putc+0x60>
    5020419c:	fe043783          	ld	a5,-32(s0)
    502041a0:	679c                	ld	a5,8(a5)
    502041a2:	00178693          	addi	a3,a5,1
    502041a6:	fe043703          	ld	a4,-32(s0)
    502041aa:	e714                	sd	a3,8(a4)
    502041ac:	fec42703          	lw	a4,-20(s0)
    502041b0:	0ff77713          	zext.b	a4,a4
    502041b4:	00e78023          	sb	a4,0(a5)
    502041b8:	fe043783          	ld	a5,-32(s0)
    502041bc:	679c                	ld	a5,8(a5)
    502041be:	00078023          	sb	zero,0(a5)
    502041c2:	4785                	li	a5,1
    502041c4:	853e                	mv	a0,a5
    502041c6:	60e2                	ld	ra,24(sp)
    502041c8:	6442                	ld	s0,16(sp)
    502041ca:	6105                	addi	sp,sp,32
    502041cc:	8082                	ret

00000000502041ce <_puts>:
    502041ce:	7139                	addi	sp,sp,-64
    502041d0:	fc06                	sd	ra,56(sp)
    502041d2:	f822                	sd	s0,48(sp)
    502041d4:	0080                	addi	s0,sp,64
    502041d6:	fca43c23          	sd	a0,-40(s0)
    502041da:	87ae                	mv	a5,a1
    502041dc:	fcc43423          	sd	a2,-56(s0)
    502041e0:	fcf42a23          	sw	a5,-44(s0)
    502041e4:	fc843783          	ld	a5,-56(s0)
    502041e8:	4b9c                	lw	a5,16(a5)
    502041ea:	02079713          	slli	a4,a5,0x20
    502041ee:	9301                	srli	a4,a4,0x20
    502041f0:	fc843783          	ld	a5,-56(s0)
    502041f4:	6794                	ld	a3,8(a5)
    502041f6:	fc843783          	ld	a5,-56(s0)
    502041fa:	639c                	ld	a5,0(a5)
    502041fc:	40f687b3          	sub	a5,a3,a5
    50204200:	8f1d                	sub	a4,a4,a5
    50204202:	fd446783          	lwu	a5,-44(s0)
    50204206:	02e7c463          	blt	a5,a4,5020422e <_puts+0x60>
    5020420a:	fc843783          	ld	a5,-56(s0)
    5020420e:	4b98                	lw	a4,16(a5)
    50204210:	fc843783          	ld	a5,-56(s0)
    50204214:	6794                	ld	a3,8(a5)
    50204216:	fc843783          	ld	a5,-56(s0)
    5020421a:	639c                	ld	a5,0(a5)
    5020421c:	40f687b3          	sub	a5,a3,a5
    50204220:	2781                	sext.w	a5,a5
    50204222:	40f707bb          	subw	a5,a4,a5
    50204226:	2781                	sext.w	a5,a5
    50204228:	37fd                	addiw	a5,a5,-1
    5020422a:	fcf42a23          	sw	a5,-44(s0)
    5020422e:	fd843783          	ld	a5,-40(s0)
    50204232:	ef9d                	bnez	a5,50204270 <_puts+0xa2>
    50204234:	fe042623          	sw	zero,-20(s0)
    50204238:	a015                	j	5020425c <_puts+0x8e>
    5020423a:	fc843783          	ld	a5,-56(s0)
    5020423e:	679c                	ld	a5,8(a5)
    50204240:	00178693          	addi	a3,a5,1
    50204244:	fc843703          	ld	a4,-56(s0)
    50204248:	e714                	sd	a3,8(a4)
    5020424a:	02000713          	li	a4,32
    5020424e:	00e78023          	sb	a4,0(a5)
    50204252:	fec42783          	lw	a5,-20(s0)
    50204256:	2785                	addiw	a5,a5,1
    50204258:	fef42623          	sw	a5,-20(s0)
    5020425c:	fec42783          	lw	a5,-20(s0)
    50204260:	873e                	mv	a4,a5
    50204262:	fd442783          	lw	a5,-44(s0)
    50204266:	2701                	sext.w	a4,a4
    50204268:	2781                	sext.w	a5,a5
    5020426a:	fcf768e3          	bltu	a4,a5,5020423a <_puts+0x6c>
    5020426e:	a099                	j	502042b4 <_puts+0xe6>
    50204270:	fe042623          	sw	zero,-20(s0)
    50204274:	a03d                	j	502042a2 <_puts+0xd4>
    50204276:	fec46783          	lwu	a5,-20(s0)
    5020427a:	fd843703          	ld	a4,-40(s0)
    5020427e:	973e                	add	a4,a4,a5
    50204280:	fc843783          	ld	a5,-56(s0)
    50204284:	679c                	ld	a5,8(a5)
    50204286:	00178613          	addi	a2,a5,1
    5020428a:	fc843683          	ld	a3,-56(s0)
    5020428e:	e690                	sd	a2,8(a3)
    50204290:	00074703          	lbu	a4,0(a4)
    50204294:	00e78023          	sb	a4,0(a5)
    50204298:	fec42783          	lw	a5,-20(s0)
    5020429c:	2785                	addiw	a5,a5,1
    5020429e:	fef42623          	sw	a5,-20(s0)
    502042a2:	fec42783          	lw	a5,-20(s0)
    502042a6:	873e                	mv	a4,a5
    502042a8:	fd442783          	lw	a5,-44(s0)
    502042ac:	2701                	sext.w	a4,a4
    502042ae:	2781                	sext.w	a5,a5
    502042b0:	fcf763e3          	bltu	a4,a5,50204276 <_puts+0xa8>
    502042b4:	fc843783          	ld	a5,-56(s0)
    502042b8:	679c                	ld	a5,8(a5)
    502042ba:	00078023          	sb	zero,0(a5)
    502042be:	fd442783          	lw	a5,-44(s0)
    502042c2:	853e                	mv	a0,a5
    502042c4:	70e2                	ld	ra,56(sp)
    502042c6:	7442                	ld	s0,48(sp)
    502042c8:	6121                	addi	sp,sp,64
    502042ca:	8082                	ret

00000000502042cc <mini_vsnprintf>:
    502042cc:	7119                	addi	sp,sp,-128
    502042ce:	fc86                	sd	ra,120(sp)
    502042d0:	f8a2                	sd	s0,112(sp)
    502042d2:	0100                	addi	s0,sp,128
    502042d4:	f8a43c23          	sd	a0,-104(s0)
    502042d8:	87ae                	mv	a5,a1
    502042da:	f8c43423          	sd	a2,-120(s0)
    502042de:	f8d43023          	sd	a3,-128(s0)
    502042e2:	f8f42a23          	sw	a5,-108(s0)
    502042e6:	f9843783          	ld	a5,-104(s0)
    502042ea:	fcf43023          	sd	a5,-64(s0)
    502042ee:	f9843783          	ld	a5,-104(s0)
    502042f2:	fcf43423          	sd	a5,-56(s0)
    502042f6:	f9442783          	lw	a5,-108(s0)
    502042fa:	fcf42823          	sw	a5,-48(s0)
    502042fe:	aecd                	j	502046f0 <mini_vsnprintf+0x424>
    50204300:	fc843703          	ld	a4,-56(s0)
    50204304:	fc043783          	ld	a5,-64(s0)
    50204308:	40f707b3          	sub	a5,a4,a5
    5020430c:	2781                	sext.w	a5,a5
    5020430e:	2785                	addiw	a5,a5,1
    50204310:	0007871b          	sext.w	a4,a5
    50204314:	fd042783          	lw	a5,-48(s0)
    50204318:	3ef77d63          	bgeu	a4,a5,50204712 <mini_vsnprintf+0x446>
    5020431c:	fef44783          	lbu	a5,-17(s0)
    50204320:	0ff7f713          	zext.b	a4,a5
    50204324:	02500793          	li	a5,37
    50204328:	00f70c63          	beq	a4,a5,50204340 <mini_vsnprintf+0x74>
    5020432c:	fef44783          	lbu	a5,-17(s0)
    50204330:	2781                	sext.w	a5,a5
    50204332:	fc040713          	addi	a4,s0,-64
    50204336:	85ba                	mv	a1,a4
    50204338:	853e                	mv	a0,a5
    5020433a:	e2bff0ef          	jal	50204164 <_putc>
    5020433e:	ae4d                	j	502046f0 <mini_vsnprintf+0x424>
    50204340:	fe042423          	sw	zero,-24(s0)
    50204344:	02000793          	li	a5,32
    50204348:	fef403a3          	sb	a5,-25(s0)
    5020434c:	fe040323          	sb	zero,-26(s0)
    50204350:	f8843783          	ld	a5,-120(s0)
    50204354:	00178713          	addi	a4,a5,1
    50204358:	f8e43423          	sd	a4,-120(s0)
    5020435c:	0007c783          	lbu	a5,0(a5)
    50204360:	fef407a3          	sb	a5,-17(s0)
    50204364:	fef44783          	lbu	a5,-17(s0)
    50204368:	0ff7f713          	zext.b	a4,a5
    5020436c:	02f00793          	li	a5,47
    50204370:	0ae7fa63          	bgeu	a5,a4,50204424 <mini_vsnprintf+0x158>
    50204374:	fef44783          	lbu	a5,-17(s0)
    50204378:	0ff7f713          	zext.b	a4,a5
    5020437c:	03900793          	li	a5,57
    50204380:	0ae7e263          	bltu	a5,a4,50204424 <mini_vsnprintf+0x158>
    50204384:	fef44783          	lbu	a5,-17(s0)
    50204388:	0ff7f713          	zext.b	a4,a5
    5020438c:	03000793          	li	a5,48
    50204390:	00f71763          	bne	a4,a5,5020439e <mini_vsnprintf+0xd2>
    50204394:	03000793          	li	a5,48
    50204398:	fef403a3          	sb	a5,-25(s0)
    5020439c:	a029                	j	502043a6 <mini_vsnprintf+0xda>
    5020439e:	02000793          	li	a5,32
    502043a2:	fef403a3          	sb	a5,-25(s0)
    502043a6:	f8843783          	ld	a5,-120(s0)
    502043aa:	17fd                	addi	a5,a5,-1
    502043ac:	f8f43423          	sd	a5,-120(s0)
    502043b0:	a899                	j	50204406 <mini_vsnprintf+0x13a>
    502043b2:	fef44783          	lbu	a5,-17(s0)
    502043b6:	0ff7f793          	zext.b	a5,a5
    502043ba:	34078e63          	beqz	a5,50204716 <mini_vsnprintf+0x44a>
    502043be:	fef44783          	lbu	a5,-17(s0)
    502043c2:	0ff7f713          	zext.b	a4,a5
    502043c6:	02f00793          	li	a5,47
    502043ca:	04e7fd63          	bgeu	a5,a4,50204424 <mini_vsnprintf+0x158>
    502043ce:	fef44783          	lbu	a5,-17(s0)
    502043d2:	0ff7f713          	zext.b	a4,a5
    502043d6:	03900793          	li	a5,57
    502043da:	04e7e563          	bltu	a5,a4,50204424 <mini_vsnprintf+0x158>
    502043de:	fe842783          	lw	a5,-24(s0)
    502043e2:	873e                	mv	a4,a5
    502043e4:	87ba                	mv	a5,a4
    502043e6:	0027979b          	slliw	a5,a5,0x2
    502043ea:	9fb9                	addw	a5,a5,a4
    502043ec:	0017979b          	slliw	a5,a5,0x1
    502043f0:	0007871b          	sext.w	a4,a5
    502043f4:	fef44783          	lbu	a5,-17(s0)
    502043f8:	2781                	sext.w	a5,a5
    502043fa:	9fb9                	addw	a5,a5,a4
    502043fc:	2781                	sext.w	a5,a5
    502043fe:	fd07879b          	addiw	a5,a5,-48
    50204402:	fef42423          	sw	a5,-24(s0)
    50204406:	f8843783          	ld	a5,-120(s0)
    5020440a:	00178713          	addi	a4,a5,1
    5020440e:	f8e43423          	sd	a4,-120(s0)
    50204412:	0007c783          	lbu	a5,0(a5)
    50204416:	fef407a3          	sb	a5,-17(s0)
    5020441a:	fef44783          	lbu	a5,-17(s0)
    5020441e:	0ff7f793          	zext.b	a5,a5
    50204422:	fbc1                	bnez	a5,502043b2 <mini_vsnprintf+0xe6>
    50204424:	fef44783          	lbu	a5,-17(s0)
    50204428:	0ff7f713          	zext.b	a4,a5
    5020442c:	06c00793          	li	a5,108
    50204430:	00f71f63          	bne	a4,a5,5020444e <mini_vsnprintf+0x182>
    50204434:	4785                	li	a5,1
    50204436:	fef40323          	sb	a5,-26(s0)
    5020443a:	f8843783          	ld	a5,-120(s0)
    5020443e:	00178713          	addi	a4,a5,1
    50204442:	f8e43423          	sd	a4,-120(s0)
    50204446:	0007c783          	lbu	a5,0(a5)
    5020444a:	fef407a3          	sb	a5,-17(s0)
    5020444e:	fef44783          	lbu	a5,-17(s0)
    50204452:	2781                	sext.w	a5,a5
    50204454:	07800713          	li	a4,120
    50204458:	16e78b63          	beq	a5,a4,502045ce <mini_vsnprintf+0x302>
    5020445c:	07800713          	li	a4,120
    50204460:	26f74d63          	blt	a4,a5,502046da <mini_vsnprintf+0x40e>
    50204464:	07500713          	li	a4,117
    50204468:	06e78163          	beq	a5,a4,502044ca <mini_vsnprintf+0x1fe>
    5020446c:	07500713          	li	a4,117
    50204470:	26f74563          	blt	a4,a5,502046da <mini_vsnprintf+0x40e>
    50204474:	07300713          	li	a4,115
    50204478:	1ee78e63          	beq	a5,a4,50204674 <mini_vsnprintf+0x3a8>
    5020447c:	07300713          	li	a4,115
    50204480:	24f74d63          	blt	a4,a5,502046da <mini_vsnprintf+0x40e>
    50204484:	06c00713          	li	a4,108
    50204488:	02e78d63          	beq	a5,a4,502044c2 <mini_vsnprintf+0x1f6>
    5020448c:	06c00713          	li	a4,108
    50204490:	24f74563          	blt	a4,a5,502046da <mini_vsnprintf+0x40e>
    50204494:	06400713          	li	a4,100
    50204498:	0ae78b63          	beq	a5,a4,5020454e <mini_vsnprintf+0x282>
    5020449c:	06400713          	li	a4,100
    502044a0:	22f74d63          	blt	a4,a5,502046da <mini_vsnprintf+0x40e>
    502044a4:	06300713          	li	a4,99
    502044a8:	1ae78563          	beq	a5,a4,50204652 <mini_vsnprintf+0x386>
    502044ac:	06300713          	li	a4,99
    502044b0:	22f74563          	blt	a4,a5,502046da <mini_vsnprintf+0x40e>
    502044b4:	26078363          	beqz	a5,5020471a <mini_vsnprintf+0x44e>
    502044b8:	05800713          	li	a4,88
    502044bc:	10e78963          	beq	a5,a4,502045ce <mini_vsnprintf+0x302>
    502044c0:	ac29                	j	502046da <mini_vsnprintf+0x40e>
    502044c2:	4785                	li	a5,1
    502044c4:	fef40323          	sb	a5,-26(s0)
    502044c8:	a425                	j	502046f0 <mini_vsnprintf+0x424>
    502044ca:	fe644783          	lbu	a5,-26(s0)
    502044ce:	0ff7f793          	zext.b	a5,a5
    502044d2:	ef81                	bnez	a5,502044ea <mini_vsnprintf+0x21e>
    502044d4:	f8043783          	ld	a5,-128(s0)
    502044d8:	00878713          	addi	a4,a5,8
    502044dc:	f8e43023          	sd	a4,-128(s0)
    502044e0:	439c                	lw	a5,0(a5)
    502044e2:	02079513          	slli	a0,a5,0x20
    502044e6:	9101                	srli	a0,a0,0x20
    502044e8:	a809                	j	502044fa <mini_vsnprintf+0x22e>
    502044ea:	f8043783          	ld	a5,-128(s0)
    502044ee:	00878713          	addi	a4,a5,8
    502044f2:	f8e43023          	sd	a4,-128(s0)
    502044f6:	639c                	ld	a5,0(a5)
    502044f8:	853e                	mv	a0,a5
    502044fa:	fef44783          	lbu	a5,-17(s0)
    502044fe:	0007871b          	sext.w	a4,a5
    50204502:	07500793          	li	a5,117
    50204506:	40f707b3          	sub	a5,a4,a5
    5020450a:	0017b793          	seqz	a5,a5
    5020450e:	0ff7f793          	zext.b	a5,a5
    50204512:	0007869b          	sext.w	a3,a5
    50204516:	fe744603          	lbu	a2,-25(s0)
    5020451a:	fe842783          	lw	a5,-24(s0)
    5020451e:	fa840713          	addi	a4,s0,-88
    50204522:	8832                	mv	a6,a2
    50204524:	4601                	li	a2,0
    50204526:	45a9                	li	a1,10
    50204528:	a01ff0ef          	jal	50203f28 <mini_itoa>
    5020452c:	87aa                	mv	a5,a0
    5020452e:	fef42023          	sw	a5,-32(s0)
    50204532:	fc040693          	addi	a3,s0,-64
    50204536:	fe042703          	lw	a4,-32(s0)
    5020453a:	fa840793          	addi	a5,s0,-88
    5020453e:	8636                	mv	a2,a3
    50204540:	85ba                	mv	a1,a4
    50204542:	853e                	mv	a0,a5
    50204544:	c8bff0ef          	jal	502041ce <_puts>
    50204548:	fe040323          	sb	zero,-26(s0)
    5020454c:	a255                	j	502046f0 <mini_vsnprintf+0x424>
    5020454e:	fe644783          	lbu	a5,-26(s0)
    50204552:	0ff7f793          	zext.b	a5,a5
    50204556:	eb91                	bnez	a5,5020456a <mini_vsnprintf+0x29e>
    50204558:	f8043783          	ld	a5,-128(s0)
    5020455c:	00878713          	addi	a4,a5,8
    50204560:	f8e43023          	sd	a4,-128(s0)
    50204564:	439c                	lw	a5,0(a5)
    50204566:	853e                	mv	a0,a5
    50204568:	a809                	j	5020457a <mini_vsnprintf+0x2ae>
    5020456a:	f8043783          	ld	a5,-128(s0)
    5020456e:	00878713          	addi	a4,a5,8
    50204572:	f8e43023          	sd	a4,-128(s0)
    50204576:	639c                	ld	a5,0(a5)
    50204578:	853e                	mv	a0,a5
    5020457a:	fef44783          	lbu	a5,-17(s0)
    5020457e:	0007871b          	sext.w	a4,a5
    50204582:	07500793          	li	a5,117
    50204586:	40f707b3          	sub	a5,a4,a5
    5020458a:	0017b793          	seqz	a5,a5
    5020458e:	0ff7f793          	zext.b	a5,a5
    50204592:	0007869b          	sext.w	a3,a5
    50204596:	fe744603          	lbu	a2,-25(s0)
    5020459a:	fe842783          	lw	a5,-24(s0)
    5020459e:	fa840713          	addi	a4,s0,-88
    502045a2:	8832                	mv	a6,a2
    502045a4:	4601                	li	a2,0
    502045a6:	45a9                	li	a1,10
    502045a8:	981ff0ef          	jal	50203f28 <mini_itoa>
    502045ac:	87aa                	mv	a5,a0
    502045ae:	fef42023          	sw	a5,-32(s0)
    502045b2:	fc040693          	addi	a3,s0,-64
    502045b6:	fe042703          	lw	a4,-32(s0)
    502045ba:	fa840793          	addi	a5,s0,-88
    502045be:	8636                	mv	a2,a3
    502045c0:	85ba                	mv	a1,a4
    502045c2:	853e                	mv	a0,a5
    502045c4:	c0bff0ef          	jal	502041ce <_puts>
    502045c8:	fe040323          	sb	zero,-26(s0)
    502045cc:	a215                	j	502046f0 <mini_vsnprintf+0x424>
    502045ce:	fe644783          	lbu	a5,-26(s0)
    502045d2:	0ff7f793          	zext.b	a5,a5
    502045d6:	ef81                	bnez	a5,502045ee <mini_vsnprintf+0x322>
    502045d8:	f8043783          	ld	a5,-128(s0)
    502045dc:	00878713          	addi	a4,a5,8
    502045e0:	f8e43023          	sd	a4,-128(s0)
    502045e4:	439c                	lw	a5,0(a5)
    502045e6:	02079513          	slli	a0,a5,0x20
    502045ea:	9101                	srli	a0,a0,0x20
    502045ec:	a809                	j	502045fe <mini_vsnprintf+0x332>
    502045ee:	f8043783          	ld	a5,-128(s0)
    502045f2:	00878713          	addi	a4,a5,8
    502045f6:	f8e43023          	sd	a4,-128(s0)
    502045fa:	639c                	ld	a5,0(a5)
    502045fc:	853e                	mv	a0,a5
    502045fe:	fef44783          	lbu	a5,-17(s0)
    50204602:	0007871b          	sext.w	a4,a5
    50204606:	05800793          	li	a5,88
    5020460a:	40f707b3          	sub	a5,a4,a5
    5020460e:	0017b793          	seqz	a5,a5
    50204612:	0ff7f793          	zext.b	a5,a5
    50204616:	0007861b          	sext.w	a2,a5
    5020461a:	fe744683          	lbu	a3,-25(s0)
    5020461e:	fe842783          	lw	a5,-24(s0)
    50204622:	fa840713          	addi	a4,s0,-88
    50204626:	8836                	mv	a6,a3
    50204628:	4685                	li	a3,1
    5020462a:	45c1                	li	a1,16
    5020462c:	8fdff0ef          	jal	50203f28 <mini_itoa>
    50204630:	87aa                	mv	a5,a0
    50204632:	fef42023          	sw	a5,-32(s0)
    50204636:	fc040693          	addi	a3,s0,-64
    5020463a:	fe042703          	lw	a4,-32(s0)
    5020463e:	fa840793          	addi	a5,s0,-88
    50204642:	8636                	mv	a2,a3
    50204644:	85ba                	mv	a1,a4
    50204646:	853e                	mv	a0,a5
    50204648:	b87ff0ef          	jal	502041ce <_puts>
    5020464c:	fe040323          	sb	zero,-26(s0)
    50204650:	a045                	j	502046f0 <mini_vsnprintf+0x424>
    50204652:	f8043783          	ld	a5,-128(s0)
    50204656:	00878713          	addi	a4,a5,8
    5020465a:	f8e43023          	sd	a4,-128(s0)
    5020465e:	439c                	lw	a5,0(a5)
    50204660:	0ff7f793          	zext.b	a5,a5
    50204664:	2781                	sext.w	a5,a5
    50204666:	fc040713          	addi	a4,s0,-64
    5020466a:	85ba                	mv	a1,a4
    5020466c:	853e                	mv	a0,a5
    5020466e:	af7ff0ef          	jal	50204164 <_putc>
    50204672:	a8bd                	j	502046f0 <mini_vsnprintf+0x424>
    50204674:	f8043783          	ld	a5,-128(s0)
    50204678:	00878713          	addi	a4,a5,8
    5020467c:	f8e43023          	sd	a4,-128(s0)
    50204680:	639c                	ld	a5,0(a5)
    50204682:	fcf43c23          	sd	a5,-40(s0)
    50204686:	fd843503          	ld	a0,-40(s0)
    5020468a:	865ff0ef          	jal	50203eee <mini_strlen>
    5020468e:	87aa                	mv	a5,a0
    50204690:	fef42023          	sw	a5,-32(s0)
    50204694:	fc040713          	addi	a4,s0,-64
    50204698:	fe042783          	lw	a5,-32(s0)
    5020469c:	863a                	mv	a2,a4
    5020469e:	85be                	mv	a1,a5
    502046a0:	fd843503          	ld	a0,-40(s0)
    502046a4:	b2bff0ef          	jal	502041ce <_puts>
    502046a8:	fe042783          	lw	a5,-32(s0)
    502046ac:	873e                	mv	a4,a5
    502046ae:	fe842783          	lw	a5,-24(s0)
    502046b2:	2701                	sext.w	a4,a4
    502046b4:	2781                	sext.w	a5,a5
    502046b6:	02f77c63          	bgeu	a4,a5,502046ee <mini_vsnprintf+0x422>
    502046ba:	fe842783          	lw	a5,-24(s0)
    502046be:	873e                	mv	a4,a5
    502046c0:	fe042783          	lw	a5,-32(s0)
    502046c4:	40f707bb          	subw	a5,a4,a5
    502046c8:	2781                	sext.w	a5,a5
    502046ca:	fc040713          	addi	a4,s0,-64
    502046ce:	863a                	mv	a2,a4
    502046d0:	85be                	mv	a1,a5
    502046d2:	4501                	li	a0,0
    502046d4:	afbff0ef          	jal	502041ce <_puts>
    502046d8:	a819                	j	502046ee <mini_vsnprintf+0x422>
    502046da:	fef44783          	lbu	a5,-17(s0)
    502046de:	2781                	sext.w	a5,a5
    502046e0:	fc040713          	addi	a4,s0,-64
    502046e4:	85ba                	mv	a1,a4
    502046e6:	853e                	mv	a0,a5
    502046e8:	a7dff0ef          	jal	50204164 <_putc>
    502046ec:	a011                	j	502046f0 <mini_vsnprintf+0x424>
    502046ee:	0001                	nop
    502046f0:	f8843783          	ld	a5,-120(s0)
    502046f4:	00178713          	addi	a4,a5,1
    502046f8:	f8e43423          	sd	a4,-120(s0)
    502046fc:	0007c783          	lbu	a5,0(a5)
    50204700:	fef407a3          	sb	a5,-17(s0)
    50204704:	fef44783          	lbu	a5,-17(s0)
    50204708:	0ff7f793          	zext.b	a5,a5
    5020470c:	be079ae3          	bnez	a5,50204300 <mini_vsnprintf+0x34>
    50204710:	a031                	j	5020471c <mini_vsnprintf+0x450>
    50204712:	0001                	nop
    50204714:	a021                	j	5020471c <mini_vsnprintf+0x450>
    50204716:	0001                	nop
    50204718:	a011                	j	5020471c <mini_vsnprintf+0x450>
    5020471a:	0001                	nop
    5020471c:	fc843703          	ld	a4,-56(s0)
    50204720:	fc043783          	ld	a5,-64(s0)
    50204724:	40f707b3          	sub	a5,a4,a5
    50204728:	2781                	sext.w	a5,a5
    5020472a:	853e                	mv	a0,a5
    5020472c:	70e6                	ld	ra,120(sp)
    5020472e:	7446                	ld	s0,112(sp)
    50204730:	6109                	addi	sp,sp,128
    50204732:	8082                	ret

0000000050204734 <_vprint>:
    50204734:	7129                	addi	sp,sp,-320
    50204736:	fe06                	sd	ra,312(sp)
    50204738:	fa22                	sd	s0,304(sp)
    5020473a:	0280                	addi	s0,sp,320
    5020473c:	eca43c23          	sd	a0,-296(s0)
    50204740:	ecb43823          	sd	a1,-304(s0)
    50204744:	ecc43423          	sd	a2,-312(s0)
    50204748:	ed043783          	ld	a5,-304(s0)
    5020474c:	fef43023          	sd	a5,-32(s0)
    50204750:	fe043703          	ld	a4,-32(s0)
    50204754:	ee040793          	addi	a5,s0,-288
    50204758:	86ba                	mv	a3,a4
    5020475a:	ed843603          	ld	a2,-296(s0)
    5020475e:	10000593          	li	a1,256
    50204762:	853e                	mv	a0,a5
    50204764:	b69ff0ef          	jal	502042cc <mini_vsnprintf>
    50204768:	87aa                	mv	a5,a0
    5020476a:	fef42623          	sw	a5,-20(s0)
    5020476e:	fec42783          	lw	a5,-20(s0)
    50204772:	17c1                	addi	a5,a5,-16
    50204774:	97a2                	add	a5,a5,s0
    50204776:	ee078823          	sb	zero,-272(a5)
    5020477a:	ee040713          	addi	a4,s0,-288
    5020477e:	ec843783          	ld	a5,-312(s0)
    50204782:	853a                	mv	a0,a4
    50204784:	9782                	jalr	a5
    50204786:	fec42783          	lw	a5,-20(s0)
    5020478a:	853e                	mv	a0,a5
    5020478c:	70f2                	ld	ra,312(sp)
    5020478e:	7452                	ld	s0,304(sp)
    50204790:	6131                	addi	sp,sp,320
    50204792:	8082                	ret

0000000050204794 <_output_wrapper>:
    50204794:	1101                	addi	sp,sp,-32
    50204796:	ec06                	sd	ra,24(sp)
    50204798:	e822                	sd	s0,16(sp)
    5020479a:	1000                	addi	s0,sp,32
    5020479c:	fea43423          	sd	a0,-24(s0)
    502047a0:	fe843503          	ld	a0,-24(s0)
    502047a4:	d7bfd0ef          	jal	5020251e <screen_write>
    502047a8:	dd7fd0ef          	jal	5020257e <screen_reflush>
    502047ac:	0001                	nop
    502047ae:	60e2                	ld	ra,24(sp)
    502047b0:	6442                	ld	s0,16(sp)
    502047b2:	6105                	addi	sp,sp,32
    502047b4:	8082                	ret

00000000502047b6 <vprintk>:
    502047b6:	1101                	addi	sp,sp,-32
    502047b8:	ec06                	sd	ra,24(sp)
    502047ba:	e822                	sd	s0,16(sp)
    502047bc:	1000                	addi	s0,sp,32
    502047be:	fea43423          	sd	a0,-24(s0)
    502047c2:	feb43023          	sd	a1,-32(s0)
    502047c6:	00000617          	auipc	a2,0x0
    502047ca:	fce60613          	addi	a2,a2,-50 # 50204794 <_output_wrapper>
    502047ce:	fe043583          	ld	a1,-32(s0)
    502047d2:	fe843503          	ld	a0,-24(s0)
    502047d6:	f5fff0ef          	jal	50204734 <_vprint>
    502047da:	87aa                	mv	a5,a0
    502047dc:	853e                	mv	a0,a5
    502047de:	60e2                	ld	ra,24(sp)
    502047e0:	6442                	ld	s0,16(sp)
    502047e2:	6105                	addi	sp,sp,32
    502047e4:	8082                	ret

00000000502047e6 <printk>:
    502047e6:	7159                	addi	sp,sp,-112
    502047e8:	f406                	sd	ra,40(sp)
    502047ea:	f022                	sd	s0,32(sp)
    502047ec:	1800                	addi	s0,sp,48
    502047ee:	fca43c23          	sd	a0,-40(s0)
    502047f2:	e40c                	sd	a1,8(s0)
    502047f4:	e810                	sd	a2,16(s0)
    502047f6:	ec14                	sd	a3,24(s0)
    502047f8:	f018                	sd	a4,32(s0)
    502047fa:	f41c                	sd	a5,40(s0)
    502047fc:	03043823          	sd	a6,48(s0)
    50204800:	03143c23          	sd	a7,56(s0)
    50204804:	fe042623          	sw	zero,-20(s0)
    50204808:	04040793          	addi	a5,s0,64
    5020480c:	fcf43823          	sd	a5,-48(s0)
    50204810:	fd043783          	ld	a5,-48(s0)
    50204814:	fc878793          	addi	a5,a5,-56
    50204818:	fef43023          	sd	a5,-32(s0)
    5020481c:	fe043783          	ld	a5,-32(s0)
    50204820:	85be                	mv	a1,a5
    50204822:	fd843503          	ld	a0,-40(s0)
    50204826:	f91ff0ef          	jal	502047b6 <vprintk>
    5020482a:	87aa                	mv	a5,a0
    5020482c:	fef42623          	sw	a5,-20(s0)
    50204830:	fec42783          	lw	a5,-20(s0)
    50204834:	853e                	mv	a0,a5
    50204836:	70a2                	ld	ra,40(sp)
    50204838:	7402                	ld	s0,32(sp)
    5020483a:	6165                	addi	sp,sp,112
    5020483c:	8082                	ret

000000005020483e <printv>:
    5020483e:	7159                	addi	sp,sp,-112
    50204840:	f406                	sd	ra,40(sp)
    50204842:	f022                	sd	s0,32(sp)
    50204844:	1800                	addi	s0,sp,48
    50204846:	fca43c23          	sd	a0,-40(s0)
    5020484a:	e40c                	sd	a1,8(s0)
    5020484c:	e810                	sd	a2,16(s0)
    5020484e:	ec14                	sd	a3,24(s0)
    50204850:	f018                	sd	a4,32(s0)
    50204852:	f41c                	sd	a5,40(s0)
    50204854:	03043823          	sd	a6,48(s0)
    50204858:	03143c23          	sd	a7,56(s0)
    5020485c:	fe042623          	sw	zero,-20(s0)
    50204860:	04040793          	addi	a5,s0,64
    50204864:	fcf43823          	sd	a5,-48(s0)
    50204868:	fd043783          	ld	a5,-48(s0)
    5020486c:	fc878793          	addi	a5,a5,-56
    50204870:	fef43023          	sd	a5,-32(s0)
    50204874:	fe043783          	ld	a5,-32(s0)
    50204878:	fffff617          	auipc	a2,0xfffff
    5020487c:	62660613          	addi	a2,a2,1574 # 50203e9e <bios_putstr>
    50204880:	85be                	mv	a1,a5
    50204882:	fd843503          	ld	a0,-40(s0)
    50204886:	eafff0ef          	jal	50204734 <_vprint>
    5020488a:	87aa                	mv	a5,a0
    5020488c:	fef42623          	sw	a5,-20(s0)
    50204890:	fec42783          	lw	a5,-20(s0)
    50204894:	853e                	mv	a0,a5
    50204896:	70a2                	ld	ra,40(sp)
    50204898:	7402                	ld	s0,32(sp)
    5020489a:	6165                	addi	sp,sp,112
    5020489c:	8082                	ret

000000005020489e <printl>:
    5020489e:	7159                	addi	sp,sp,-112
    502048a0:	f406                	sd	ra,40(sp)
    502048a2:	f022                	sd	s0,32(sp)
    502048a4:	1800                	addi	s0,sp,48
    502048a6:	fca43c23          	sd	a0,-40(s0)
    502048aa:	e40c                	sd	a1,8(s0)
    502048ac:	e810                	sd	a2,16(s0)
    502048ae:	ec14                	sd	a3,24(s0)
    502048b0:	f018                	sd	a4,32(s0)
    502048b2:	f41c                	sd	a5,40(s0)
    502048b4:	03043823          	sd	a6,48(s0)
    502048b8:	03143c23          	sd	a7,56(s0)
    502048bc:	fe042623          	sw	zero,-20(s0)
    502048c0:	04040793          	addi	a5,s0,64
    502048c4:	fcf43823          	sd	a5,-48(s0)
    502048c8:	fd043783          	ld	a5,-48(s0)
    502048cc:	fc878793          	addi	a5,a5,-56
    502048d0:	fef43023          	sd	a5,-32(s0)
    502048d4:	fe043783          	ld	a5,-32(s0)
    502048d8:	fffff617          	auipc	a2,0xfffff
    502048dc:	5ee60613          	addi	a2,a2,1518 # 50203ec6 <bios_logging>
    502048e0:	85be                	mv	a1,a5
    502048e2:	fd843503          	ld	a0,-40(s0)
    502048e6:	e4fff0ef          	jal	50204734 <_vprint>
    502048ea:	87aa                	mv	a5,a0
    502048ec:	fef42623          	sw	a5,-20(s0)
    502048f0:	fec42783          	lw	a5,-20(s0)
    502048f4:	853e                	mv	a0,a5
    502048f6:	70a2                	ld	ra,40(sp)
    502048f8:	7402                	ld	s0,32(sp)
    502048fa:	6165                	addi	sp,sp,112
    502048fc:	8082                	ret

00000000502048fe <memcpy>:
    502048fe:	7179                	addi	sp,sp,-48
    50204900:	f406                	sd	ra,40(sp)
    50204902:	f022                	sd	s0,32(sp)
    50204904:	1800                	addi	s0,sp,48
    50204906:	fea43423          	sd	a0,-24(s0)
    5020490a:	feb43023          	sd	a1,-32(s0)
    5020490e:	87b2                	mv	a5,a2
    50204910:	fcf42e23          	sw	a5,-36(s0)
    50204914:	a035                	j	50204940 <memcpy+0x42>
    50204916:	fe043703          	ld	a4,-32(s0)
    5020491a:	00170793          	addi	a5,a4,1
    5020491e:	fef43023          	sd	a5,-32(s0)
    50204922:	fe843783          	ld	a5,-24(s0)
    50204926:	00178693          	addi	a3,a5,1
    5020492a:	fed43423          	sd	a3,-24(s0)
    5020492e:	00074703          	lbu	a4,0(a4)
    50204932:	00e78023          	sb	a4,0(a5)
    50204936:	fdc42783          	lw	a5,-36(s0)
    5020493a:	37fd                	addiw	a5,a5,-1
    5020493c:	fcf42e23          	sw	a5,-36(s0)
    50204940:	fdc42783          	lw	a5,-36(s0)
    50204944:	2781                	sext.w	a5,a5
    50204946:	fbe1                	bnez	a5,50204916 <memcpy+0x18>
    50204948:	0001                	nop
    5020494a:	0001                	nop
    5020494c:	70a2                	ld	ra,40(sp)
    5020494e:	7402                	ld	s0,32(sp)
    50204950:	6145                	addi	sp,sp,48
    50204952:	8082                	ret

0000000050204954 <memset>:
    50204954:	7179                	addi	sp,sp,-48
    50204956:	f406                	sd	ra,40(sp)
    50204958:	f022                	sd	s0,32(sp)
    5020495a:	1800                	addi	s0,sp,48
    5020495c:	fca43c23          	sd	a0,-40(s0)
    50204960:	87ae                	mv	a5,a1
    50204962:	8732                	mv	a4,a2
    50204964:	fcf40ba3          	sb	a5,-41(s0)
    50204968:	87ba                	mv	a5,a4
    5020496a:	fcf42823          	sw	a5,-48(s0)
    5020496e:	fd843783          	ld	a5,-40(s0)
    50204972:	fef43423          	sd	a5,-24(s0)
    50204976:	a005                	j	50204996 <memset+0x42>
    50204978:	fe843783          	ld	a5,-24(s0)
    5020497c:	00178713          	addi	a4,a5,1
    50204980:	fee43423          	sd	a4,-24(s0)
    50204984:	fd744703          	lbu	a4,-41(s0)
    50204988:	00e78023          	sb	a4,0(a5)
    5020498c:	fd042783          	lw	a5,-48(s0)
    50204990:	37fd                	addiw	a5,a5,-1
    50204992:	fcf42823          	sw	a5,-48(s0)
    50204996:	fd042783          	lw	a5,-48(s0)
    5020499a:	2781                	sext.w	a5,a5
    5020499c:	fff1                	bnez	a5,50204978 <memset+0x24>
    5020499e:	0001                	nop
    502049a0:	0001                	nop
    502049a2:	70a2                	ld	ra,40(sp)
    502049a4:	7402                	ld	s0,32(sp)
    502049a6:	6145                	addi	sp,sp,48
    502049a8:	8082                	ret

00000000502049aa <bzero>:
    502049aa:	1101                	addi	sp,sp,-32
    502049ac:	ec06                	sd	ra,24(sp)
    502049ae:	e822                	sd	s0,16(sp)
    502049b0:	1000                	addi	s0,sp,32
    502049b2:	fea43423          	sd	a0,-24(s0)
    502049b6:	87ae                	mv	a5,a1
    502049b8:	fef42223          	sw	a5,-28(s0)
    502049bc:	fe442783          	lw	a5,-28(s0)
    502049c0:	863e                	mv	a2,a5
    502049c2:	4581                	li	a1,0
    502049c4:	fe843503          	ld	a0,-24(s0)
    502049c8:	f8dff0ef          	jal	50204954 <memset>
    502049cc:	0001                	nop
    502049ce:	60e2                	ld	ra,24(sp)
    502049d0:	6442                	ld	s0,16(sp)
    502049d2:	6105                	addi	sp,sp,32
    502049d4:	8082                	ret

00000000502049d6 <strlen>:
    502049d6:	7179                	addi	sp,sp,-48
    502049d8:	f406                	sd	ra,40(sp)
    502049da:	f022                	sd	s0,32(sp)
    502049dc:	1800                	addi	s0,sp,48
    502049de:	fca43c23          	sd	a0,-40(s0)
    502049e2:	fe042623          	sw	zero,-20(s0)
    502049e6:	a031                	j	502049f2 <strlen+0x1c>
    502049e8:	fec42783          	lw	a5,-20(s0)
    502049ec:	2785                	addiw	a5,a5,1
    502049ee:	fef42623          	sw	a5,-20(s0)
    502049f2:	fec42783          	lw	a5,-20(s0)
    502049f6:	fd843703          	ld	a4,-40(s0)
    502049fa:	97ba                	add	a5,a5,a4
    502049fc:	0007c783          	lbu	a5,0(a5)
    50204a00:	f7e5                	bnez	a5,502049e8 <strlen+0x12>
    50204a02:	fec42783          	lw	a5,-20(s0)
    50204a06:	853e                	mv	a0,a5
    50204a08:	70a2                	ld	ra,40(sp)
    50204a0a:	7402                	ld	s0,32(sp)
    50204a0c:	6145                	addi	sp,sp,48
    50204a0e:	8082                	ret

0000000050204a10 <strcmp>:
    50204a10:	1101                	addi	sp,sp,-32
    50204a12:	ec06                	sd	ra,24(sp)
    50204a14:	e822                	sd	s0,16(sp)
    50204a16:	1000                	addi	s0,sp,32
    50204a18:	fea43423          	sd	a0,-24(s0)
    50204a1c:	feb43023          	sd	a1,-32(s0)
    50204a20:	a0a1                	j	50204a68 <strcmp+0x58>
    50204a22:	fe843783          	ld	a5,-24(s0)
    50204a26:	0007c703          	lbu	a4,0(a5)
    50204a2a:	fe043783          	ld	a5,-32(s0)
    50204a2e:	0007c783          	lbu	a5,0(a5)
    50204a32:	02f70163          	beq	a4,a5,50204a54 <strcmp+0x44>
    50204a36:	fe843783          	ld	a5,-24(s0)
    50204a3a:	0007c783          	lbu	a5,0(a5)
    50204a3e:	0007871b          	sext.w	a4,a5
    50204a42:	fe043783          	ld	a5,-32(s0)
    50204a46:	0007c783          	lbu	a5,0(a5)
    50204a4a:	2781                	sext.w	a5,a5
    50204a4c:	40f707bb          	subw	a5,a4,a5
    50204a50:	2781                	sext.w	a5,a5
    50204a52:	a099                	j	50204a98 <strcmp+0x88>
    50204a54:	fe843783          	ld	a5,-24(s0)
    50204a58:	0785                	addi	a5,a5,1
    50204a5a:	fef43423          	sd	a5,-24(s0)
    50204a5e:	fe043783          	ld	a5,-32(s0)
    50204a62:	0785                	addi	a5,a5,1
    50204a64:	fef43023          	sd	a5,-32(s0)
    50204a68:	fe843783          	ld	a5,-24(s0)
    50204a6c:	0007c783          	lbu	a5,0(a5)
    50204a70:	c791                	beqz	a5,50204a7c <strcmp+0x6c>
    50204a72:	fe043783          	ld	a5,-32(s0)
    50204a76:	0007c783          	lbu	a5,0(a5)
    50204a7a:	f7c5                	bnez	a5,50204a22 <strcmp+0x12>
    50204a7c:	fe843783          	ld	a5,-24(s0)
    50204a80:	0007c783          	lbu	a5,0(a5)
    50204a84:	0007871b          	sext.w	a4,a5
    50204a88:	fe043783          	ld	a5,-32(s0)
    50204a8c:	0007c783          	lbu	a5,0(a5)
    50204a90:	2781                	sext.w	a5,a5
    50204a92:	40f707bb          	subw	a5,a4,a5
    50204a96:	2781                	sext.w	a5,a5
    50204a98:	853e                	mv	a0,a5
    50204a9a:	60e2                	ld	ra,24(sp)
    50204a9c:	6442                	ld	s0,16(sp)
    50204a9e:	6105                	addi	sp,sp,32
    50204aa0:	8082                	ret

0000000050204aa2 <strncmp>:
    50204aa2:	7139                	addi	sp,sp,-64
    50204aa4:	fc06                	sd	ra,56(sp)
    50204aa6:	f822                	sd	s0,48(sp)
    50204aa8:	0080                	addi	s0,sp,64
    50204aaa:	fca43c23          	sd	a0,-40(s0)
    50204aae:	fcb43823          	sd	a1,-48(s0)
    50204ab2:	87b2                	mv	a5,a2
    50204ab4:	fcf42623          	sw	a5,-52(s0)
    50204ab8:	fe042623          	sw	zero,-20(s0)
    50204abc:	a0a5                	j	50204b24 <strncmp+0x82>
    50204abe:	fec46783          	lwu	a5,-20(s0)
    50204ac2:	fd843703          	ld	a4,-40(s0)
    50204ac6:	97ba                	add	a5,a5,a4
    50204ac8:	0007c783          	lbu	a5,0(a5)
    50204acc:	c395                	beqz	a5,50204af0 <strncmp+0x4e>
    50204ace:	fec46783          	lwu	a5,-20(s0)
    50204ad2:	fd843703          	ld	a4,-40(s0)
    50204ad6:	97ba                	add	a5,a5,a4
    50204ad8:	0007c683          	lbu	a3,0(a5)
    50204adc:	fec46783          	lwu	a5,-20(s0)
    50204ae0:	fd043703          	ld	a4,-48(s0)
    50204ae4:	97ba                	add	a5,a5,a4
    50204ae6:	0007c783          	lbu	a5,0(a5)
    50204aea:	8736                	mv	a4,a3
    50204aec:	02f70763          	beq	a4,a5,50204b1a <strncmp+0x78>
    50204af0:	fec46783          	lwu	a5,-20(s0)
    50204af4:	fd843703          	ld	a4,-40(s0)
    50204af8:	97ba                	add	a5,a5,a4
    50204afa:	0007c783          	lbu	a5,0(a5)
    50204afe:	0007871b          	sext.w	a4,a5
    50204b02:	fec46783          	lwu	a5,-20(s0)
    50204b06:	fd043683          	ld	a3,-48(s0)
    50204b0a:	97b6                	add	a5,a5,a3
    50204b0c:	0007c783          	lbu	a5,0(a5)
    50204b10:	2781                	sext.w	a5,a5
    50204b12:	40f707bb          	subw	a5,a4,a5
    50204b16:	2781                	sext.w	a5,a5
    50204b18:	a005                	j	50204b38 <strncmp+0x96>
    50204b1a:	fec42783          	lw	a5,-20(s0)
    50204b1e:	2785                	addiw	a5,a5,1
    50204b20:	fef42623          	sw	a5,-20(s0)
    50204b24:	fec42783          	lw	a5,-20(s0)
    50204b28:	873e                	mv	a4,a5
    50204b2a:	fcc42783          	lw	a5,-52(s0)
    50204b2e:	2701                	sext.w	a4,a4
    50204b30:	2781                	sext.w	a5,a5
    50204b32:	f8f766e3          	bltu	a4,a5,50204abe <strncmp+0x1c>
    50204b36:	4781                	li	a5,0
    50204b38:	853e                	mv	a0,a5
    50204b3a:	70e2                	ld	ra,56(sp)
    50204b3c:	7442                	ld	s0,48(sp)
    50204b3e:	6121                	addi	sp,sp,64
    50204b40:	8082                	ret

0000000050204b42 <strcpy>:
    50204b42:	7179                	addi	sp,sp,-48
    50204b44:	f406                	sd	ra,40(sp)
    50204b46:	f022                	sd	s0,32(sp)
    50204b48:	1800                	addi	s0,sp,48
    50204b4a:	fca43c23          	sd	a0,-40(s0)
    50204b4e:	fcb43823          	sd	a1,-48(s0)
    50204b52:	fd843783          	ld	a5,-40(s0)
    50204b56:	fef43423          	sd	a5,-24(s0)
    50204b5a:	a00d                	j	50204b7c <strcpy+0x3a>
    50204b5c:	fd043703          	ld	a4,-48(s0)
    50204b60:	00170793          	addi	a5,a4,1
    50204b64:	fcf43823          	sd	a5,-48(s0)
    50204b68:	fd843783          	ld	a5,-40(s0)
    50204b6c:	00178693          	addi	a3,a5,1
    50204b70:	fcd43c23          	sd	a3,-40(s0)
    50204b74:	00074703          	lbu	a4,0(a4)
    50204b78:	00e78023          	sb	a4,0(a5)
    50204b7c:	fd043783          	ld	a5,-48(s0)
    50204b80:	0007c783          	lbu	a5,0(a5)
    50204b84:	ffe1                	bnez	a5,50204b5c <strcpy+0x1a>
    50204b86:	fd843783          	ld	a5,-40(s0)
    50204b8a:	00078023          	sb	zero,0(a5)
    50204b8e:	fe843783          	ld	a5,-24(s0)
    50204b92:	853e                	mv	a0,a5
    50204b94:	70a2                	ld	ra,40(sp)
    50204b96:	7402                	ld	s0,32(sp)
    50204b98:	6145                	addi	sp,sp,48
    50204b9a:	8082                	ret

0000000050204b9c <strncpy>:
    50204b9c:	7139                	addi	sp,sp,-64
    50204b9e:	fc06                	sd	ra,56(sp)
    50204ba0:	f822                	sd	s0,48(sp)
    50204ba2:	0080                	addi	s0,sp,64
    50204ba4:	fca43c23          	sd	a0,-40(s0)
    50204ba8:	fcb43823          	sd	a1,-48(s0)
    50204bac:	87b2                	mv	a5,a2
    50204bae:	fcf42623          	sw	a5,-52(s0)
    50204bb2:	fd843783          	ld	a5,-40(s0)
    50204bb6:	fef43423          	sd	a5,-24(s0)
    50204bba:	a00d                	j	50204bdc <strncpy+0x40>
    50204bbc:	fd043703          	ld	a4,-48(s0)
    50204bc0:	00170793          	addi	a5,a4,1
    50204bc4:	fcf43823          	sd	a5,-48(s0)
    50204bc8:	fd843783          	ld	a5,-40(s0)
    50204bcc:	00178693          	addi	a3,a5,1
    50204bd0:	fcd43c23          	sd	a3,-40(s0)
    50204bd4:	00074703          	lbu	a4,0(a4)
    50204bd8:	00e78023          	sb	a4,0(a5)
    50204bdc:	fd043783          	ld	a5,-48(s0)
    50204be0:	0007c783          	lbu	a5,0(a5)
    50204be4:	c395                	beqz	a5,50204c08 <strncpy+0x6c>
    50204be6:	fcc42783          	lw	a5,-52(s0)
    50204bea:	fff7871b          	addiw	a4,a5,-1
    50204bee:	fce42623          	sw	a4,-52(s0)
    50204bf2:	fcf045e3          	bgtz	a5,50204bbc <strncpy+0x20>
    50204bf6:	a809                	j	50204c08 <strncpy+0x6c>
    50204bf8:	fd843783          	ld	a5,-40(s0)
    50204bfc:	00178713          	addi	a4,a5,1
    50204c00:	fce43c23          	sd	a4,-40(s0)
    50204c04:	00078023          	sb	zero,0(a5)
    50204c08:	fcc42783          	lw	a5,-52(s0)
    50204c0c:	fff7871b          	addiw	a4,a5,-1
    50204c10:	fce42623          	sw	a4,-52(s0)
    50204c14:	fef042e3          	bgtz	a5,50204bf8 <strncpy+0x5c>
    50204c18:	fe843783          	ld	a5,-24(s0)
    50204c1c:	853e                	mv	a0,a5
    50204c1e:	70e2                	ld	ra,56(sp)
    50204c20:	7442                	ld	s0,48(sp)
    50204c22:	6121                	addi	sp,sp,64
    50204c24:	8082                	ret

0000000050204c26 <strcat>:
    50204c26:	7179                	addi	sp,sp,-48
    50204c28:	f406                	sd	ra,40(sp)
    50204c2a:	f022                	sd	s0,32(sp)
    50204c2c:	1800                	addi	s0,sp,48
    50204c2e:	fca43c23          	sd	a0,-40(s0)
    50204c32:	fcb43823          	sd	a1,-48(s0)
    50204c36:	fd843783          	ld	a5,-40(s0)
    50204c3a:	fef43423          	sd	a5,-24(s0)
    50204c3e:	a031                	j	50204c4a <strcat+0x24>
    50204c40:	fd843783          	ld	a5,-40(s0)
    50204c44:	0785                	addi	a5,a5,1
    50204c46:	fcf43c23          	sd	a5,-40(s0)
    50204c4a:	fd843783          	ld	a5,-40(s0)
    50204c4e:	0007c783          	lbu	a5,0(a5)
    50204c52:	f7fd                	bnez	a5,50204c40 <strcat+0x1a>
    50204c54:	a00d                	j	50204c76 <strcat+0x50>
    50204c56:	fd043703          	ld	a4,-48(s0)
    50204c5a:	00170793          	addi	a5,a4,1
    50204c5e:	fcf43823          	sd	a5,-48(s0)
    50204c62:	fd843783          	ld	a5,-40(s0)
    50204c66:	00178693          	addi	a3,a5,1
    50204c6a:	fcd43c23          	sd	a3,-40(s0)
    50204c6e:	00074703          	lbu	a4,0(a4)
    50204c72:	00e78023          	sb	a4,0(a5)
    50204c76:	fd043783          	ld	a5,-48(s0)
    50204c7a:	0007c783          	lbu	a5,0(a5)
    50204c7e:	ffe1                	bnez	a5,50204c56 <strcat+0x30>
    50204c80:	fd843783          	ld	a5,-40(s0)
    50204c84:	00078023          	sb	zero,0(a5)
    50204c88:	fe843783          	ld	a5,-24(s0)
    50204c8c:	853e                	mv	a0,a5
    50204c8e:	70a2                	ld	ra,40(sp)
    50204c90:	7402                	ld	s0,32(sp)
    50204c92:	6145                	addi	sp,sp,48
    50204c94:	8082                	ret
