
build/main:     file format elf64-littleriscv


Disassembly of section .text:

0000000050201000 <_start>:
    50201000:	10401073          	csrw	sie,zero
    50201004:	14401073          	csrw	sip,zero
    50201008:	00002297          	auipc	t0,0x2
    5020100c:	3f428293          	addi	t0,t0,1012 # 502033fc <__bss_start>
    50201010:	00005317          	auipc	t1,0x5
    50201014:	0f030313          	addi	t1,t1,240 # 50206100 <__BSS_END__>

0000000050201018 <clear_bss>:
    50201018:	0002a023          	sw	zero,0(t0)
    5020101c:	0291                	addi	t0,t0,4
    5020101e:	fe62cde3          	blt	t0,t1,50201018 <clear_bss>

0000000050201022 <end_clear_bss>:
    50201022:	50500137          	lui	sp,0x50500
    50201026:	00c000ef          	jal	50201032 <main>

000000005020102a <loop>:
    5020102a:	10500073          	wfi
    5020102e:	bff5                	j	5020102a <loop>
    50201030:	0001                	nop

0000000050201032 <main>:
    50201032:	7115                	addi	sp,sp,-224
    50201034:	ed86                	sd	ra,216(sp)
    50201036:	e9a2                	sd	s0,208(sp)
    50201038:	e1ca                	sd	s2,192(sp)
    5020103a:	fd4e                	sd	s3,184(sp)
    5020103c:	f952                	sd	s4,176(sp)
    5020103e:	f556                	sd	s5,168(sp)
    50201040:	f15a                	sd	s6,160(sp)
    50201042:	ed5e                	sd	s7,152(sp)
    50201044:	e962                	sd	s8,144(sp)
    50201046:	e566                	sd	s9,136(sp)
    50201048:	52000837          	lui	a6,0x52000
    5020104c:	502007b7          	lui	a5,0x50200
    50201050:	00000297          	auipc	t0,0x0
    50201054:	53c28293          	addi	t0,t0,1340 # 5020158c <port_write>
    50201058:	1fe79f83          	lh	t6,510(a5) # 502001fe <_start-0xe02>
    5020105c:	f0583023          	sd	t0,-256(a6) # 51ffff00 <__BSS_END__+0x1df9e00>
    50201060:	00000297          	auipc	t0,0x0
    50201064:	51828293          	addi	t0,t0,1304 # 50201578 <port_write_ch>
    50201068:	f0583423          	sd	t0,-248(a6)
    5020106c:	00000297          	auipc	t0,0x0
    50201070:	53428293          	addi	t0,t0,1332 # 502015a0 <port_read_ch>
    50201074:	f0583823          	sd	t0,-240(a6)
    50201078:	00000297          	auipc	t0,0x0
    5020107c:	54a28293          	addi	t0,t0,1354 # 502015c2 <sd_read>
    50201080:	f0583c23          	sd	t0,-232(a6)
    50201084:	002f9793          	slli	a5,t6,0x2
    50201088:	00000297          	auipc	t0,0x0
    5020108c:	56228293          	addi	t0,t0,1378 # 502015ea <sd_write>
    50201090:	f2583023          	sd	t0,-224(a6)
    50201094:	97fe                	add	a5,a5,t6
    50201096:	00000297          	auipc	t0,0x0
    5020109a:	5a828293          	addi	t0,t0,1448 # 5020163e <qemu_logging>
    5020109e:	f2583423          	sd	t0,-216(a6)
    502010a2:	078e                	slli	a5,a5,0x3
    502010a4:	00000297          	auipc	t0,0x0
    502010a8:	56e28293          	addi	t0,t0,1390 # 50201612 <set_timer>
    502010ac:	00000f17          	auipc	t5,0x0
    502010b0:	57af0f13          	addi	t5,t5,1402 # 50201626 <read_fdt>
    502010b4:	00000e97          	auipc	t4,0x0
    502010b8:	602e8e93          	addi	t4,t4,1538 # 502016b6 <screen_move_cursor>
    502010bc:	f2583823          	sd	t0,-208(a6)
    502010c0:	f3e83c23          	sd	t5,-200(a6)
    502010c4:	f5d83023          	sd	t4,-192(a6)
    502010c8:	00001397          	auipc	t2,0x1
    502010cc:	22038393          	addi	t2,t2,544 # 502022e8 <printk>
    502010d0:	00001297          	auipc	t0,0x1
    502010d4:	b5628293          	addi	t0,t0,-1194 # 50201c26 <do_scheduler>
    502010d8:	00001f17          	auipc	t5,0x1
    502010dc:	a1af0f13          	addi	t5,t5,-1510 # 50201af2 <do_mutex_lock_init>
    502010e0:	00001e97          	auipc	t4,0x1
    502010e4:	a6ae8e93          	addi	t4,t4,-1430 # 50201b4a <do_mutex_lock_acquire>
    502010e8:	00001e17          	auipc	t3,0x1
    502010ec:	aace0e13          	addi	t3,t3,-1364 # 50201b94 <do_mutex_lock_release>
    502010f0:	00000317          	auipc	t1,0x0
    502010f4:	60a30313          	addi	t1,t1,1546 # 502016fa <screen_write>
    502010f8:	00000897          	auipc	a7,0x0
    502010fc:	63088893          	addi	a7,a7,1584 # 50201728 <screen_reflush>
    50201100:	1f87f593          	andi	a1,a5,504
    50201104:	f4783c23          	sd	t2,-168(a6)
    50201108:	f6583023          	sd	t0,-160(a6)
    5020110c:	f7e83423          	sd	t5,-152(a6)
    50201110:	f7d83823          	sd	t4,-144(a6)
    50201114:	f7c83c23          	sd	t3,-136(a6)
    50201118:	f4683423          	sd	t1,-184(a6)
    5020111c:	f5183823          	sd	a7,-176(a6)
    50201120:	83a5                	srli	a5,a5,0x9
    50201122:	00b035b3          	snez	a1,a1
    50201126:	00002717          	auipc	a4,0x2
    5020112a:	2df72d23          	sw	t6,730(a4) # 50203400 <tasknum>
    5020112e:	9dbd                	addw	a1,a1,a5
    50201130:	502007b7          	lui	a5,0x50200
    50201134:	1f87e603          	lwu	a2,504(a5) # 502001f8 <_start-0xe08>
    50201138:	00002517          	auipc	a0,0x2
    5020113c:	2e850513          	addi	a0,a0,744 # 50203420 <tasks>
    50201140:	1582                	slli	a1,a1,0x20
    50201142:	1502                	slli	a0,a0,0x20
    50201144:	4701                	li	a4,0
    50201146:	9181                	srli	a1,a1,0x20
    50201148:	9101                	srli	a0,a0,0x20
    5020114a:	4681                	li	a3,0
    5020114c:	476000ef          	jal	502015c2 <sd_read>
    50201150:	00002797          	auipc	a5,0x2
    50201154:	65878793          	addi	a5,a5,1624 # 502037a8 <buf>
    50201158:	873e                	mv	a4,a5
    5020115a:	00002617          	auipc	a2,0x2
    5020115e:	68060613          	addi	a2,a2,1664 # 502037da <buf+0x32>
    50201162:	a019                	j	50201168 <main+0x136>
    50201164:	22c70563          	beq	a4,a2,5020138e <main+0x35c>
    50201168:	00074683          	lbu	a3,0(a4)
    5020116c:	0705                	addi	a4,a4,1
    5020116e:	dafd                	beqz	a3,50201164 <main+0x132>
    50201170:	06600713          	li	a4,102
    50201174:	00002697          	auipc	a3,0x2
    50201178:	2646a683          	lw	a3,612(a3) # 502033d8 <version>
    5020117c:	00e10423          	sb	a4,8(sp) # 50500008 <__BSS_END__+0x2f9f08>
    50201180:	00001717          	auipc	a4,0x1
    50201184:	4c070713          	addi	a4,a4,1216 # 50202640 <strcat+0x1a8>
    50201188:	6308                	ld	a0,0(a4)
    5020118a:	670c                	ld	a1,8(a4)
    5020118c:	6b10                	ld	a2,16(a4)
    5020118e:	00001717          	auipc	a4,0x1
    50201192:	4ca75703          	lhu	a4,1226(a4) # 50202658 <strcat+0x1c0>
    50201196:	0306869b          	addiw	a3,a3,48
    5020119a:	e82a                	sd	a0,16(sp)
    5020119c:	ec2e                	sd	a1,24(sp)
    5020119e:	f032                	sd	a2,32(sp)
    502011a0:	02e11423          	sh	a4,40(sp)
    502011a4:	00d104a3          	sb	a3,9(sp)
    502011a8:	0818                	addi	a4,sp,16
    502011aa:	00002517          	auipc	a0,0x2
    502011ae:	61850513          	addi	a0,a0,1560 # 502037c2 <buf+0x1a>
    502011b2:	4601                	li	a2,0
    502011b4:	05f00593          	li	a1,95
    502011b8:	00074683          	lbu	a3,0(a4)
    502011bc:	0705                	addi	a4,a4,1
    502011be:	00d78023          	sb	a3,0(a5)
    502011c2:	00b69963          	bne	a3,a1,502011d4 <main+0x1a2>
    502011c6:	002606b3          	add	a3,a2,sp
    502011ca:	0086c683          	lbu	a3,8(a3)
    502011ce:	2605                	addiw	a2,a2,1
    502011d0:	00d78023          	sb	a3,0(a5)
    502011d4:	0785                	addi	a5,a5,1
    502011d6:	fea791e3          	bne	a5,a0,502011b8 <main+0x186>
    502011da:	00001517          	auipc	a0,0x1
    502011de:	35650513          	addi	a0,a0,854 # 50202530 <strcat+0x98>
    502011e2:	248000ef          	jal	5020142a <bios_putstr>
    502011e6:	00002517          	auipc	a0,0x2
    502011ea:	5c250513          	addi	a0,a0,1474 # 502037a8 <buf>
    502011ee:	23c000ef          	jal	5020142a <bios_putstr>
    502011f2:	00001797          	auipc	a5,0x1
    502011f6:	69678793          	addi	a5,a5,1686 # 50202888 <strcat+0x3f0>
    502011fa:	6b98                	ld	a4,16(a5)
    502011fc:	6390                	ld	a2,0(a5)
    502011fe:	6794                	ld	a3,8(a5)
    50201200:	e0ba                	sd	a4,64(sp)
    50201202:	7798                	ld	a4,40(a5)
    50201204:	f832                	sd	a2,48(sp)
    50201206:	fc36                	sd	a3,56(sp)
    50201208:	6f90                	ld	a2,24(a5)
    5020120a:	7394                	ld	a3,32(a5)
    5020120c:	ecba                	sd	a4,88(sp)
    5020120e:	63b8                	ld	a4,64(a5)
    50201210:	e4b2                	sd	a2,72(sp)
    50201212:	e8b6                	sd	a3,80(sp)
    50201214:	7b90                	ld	a2,48(a5)
    50201216:	7f94                	ld	a3,56(a5)
    50201218:	f8ba                	sd	a4,112(sp)
    5020121a:	67b8                	ld	a4,72(a5)
    5020121c:	4505                	li	a0,1
    5020121e:	02051793          	slli	a5,a0,0x20
    50201222:	fcba                	sd	a4,120(sp)
    50201224:	f0b2                	sd	a2,96(sp)
    50201226:	00002717          	auipc	a4,0x2
    5020122a:	18f73123          	sd	a5,386(a4) # 502033a8 <pid0_pcb+0x20>
    5020122e:	f4b6                	sd	a3,104(sp)
    50201230:	1ab000ef          	jal	50201bda <allocKernelPage>
    50201234:	842a                	mv	s0,a0
    50201236:	12000613          	li	a2,288
    5020123a:	ee050513          	addi	a0,a0,-288
    5020123e:	4581                	li	a1,0
    50201240:	00002797          	auipc	a5,0x2
    50201244:	1487b423          	sd	s0,328(a5) # 50203388 <pid0_pcb>
    50201248:	00002797          	auipc	a5,0x2
    5020124c:	1407b423          	sd	zero,328(a5) # 50203390 <pid0_pcb+0x8>
    50201250:	00002797          	auipc	a5,0x2
    50201254:	1607b023          	sd	zero,352(a5) # 502033b0 <pid0_pcb+0x28>
    50201258:	12e010ef          	jal	50202386 <memset>
    5020125c:	e7040793          	addi	a5,s0,-400
    50201260:	00002717          	auipc	a4,0x2
    50201264:	12073823          	sd	zero,304(a4) # 50203390 <pid0_pcb+0x8>
    50201268:	02000b93          	li	s7,32
    5020126c:	00002717          	auipc	a4,0x2
    50201270:	10f73e23          	sd	a5,284(a4) # 50203388 <pid0_pcb>
    50201274:	fe043423          	sd	zero,-24(s0)
    50201278:	ee043823          	sd	zero,-272(s0)
    5020127c:	ff743023          	sd	s7,-32(s0)
    50201280:	e6043823          	sd	zero,-400(s0)
    50201284:	e6043c23          	sd	zero,-392(s0)
    50201288:	03010a93          	addi	s5,sp,48
    5020128c:	00004417          	auipc	s0,0x4
    50201290:	78440413          	addi	s0,s0,1924 # 50205a10 <pcb+0x10>
    50201294:	4901                	li	s2,0
    50201296:	4c89                	li	s9,2
    50201298:	4c15                	li	s8,5
    5020129a:	00002617          	auipc	a2,0x2
    5020129e:	16662603          	lw	a2,358(a2) # 50203400 <tasknum>
    502012a2:	2905                	addiw	s2,s2,1
    502012a4:	00002597          	auipc	a1,0x2
    502012a8:	17c58593          	addi	a1,a1,380 # 50203420 <tasks>
    502012ac:	8556                	mv	a0,s5
    502012ae:	01242823          	sw	s2,16(s0)
    502012b2:	6de000ef          	jal	50201990 <load_task_img>
    502012b6:	f408                	sd	a0,40(s0)
    502012b8:	4505                	li	a0,1
    502012ba:	121000ef          	jal	50201bda <allocKernelPage>
    502012be:	8a2a                	mv	s4,a0
    502012c0:	4505                	li	a0,1
    502012c2:	13f000ef          	jal	50201c00 <allocUserPage>
    502012c6:	02843b03          	ld	s6,40(s0)
    502012ca:	89aa                	mv	s3,a0
    502012cc:	12000613          	li	a2,288
    502012d0:	ee0a0513          	addi	a0,s4,-288
    502012d4:	4581                	li	a1,0
    502012d6:	0b0010ef          	jal	50202386 <memset>
    502012da:	e70a0793          	addi	a5,s4,-400
    502012de:	ff6a3423          	sd	s6,-24(s4)
    502012e2:	ff7a3023          	sd	s7,-32(s4)
    502012e6:	ef3a3823          	sd	s3,-272(s4)
    502012ea:	ff343c23          	sd	s3,-8(s0)
    502012ee:	fef43823          	sd	a5,-16(s0)
    502012f2:	e76a3823          	sd	s6,-400(s4)
    502012f6:	e73a3c23          	sd	s3,-392(s4)
    502012fa:	85a2                	mv	a1,s0
    502012fc:	01942a23          	sw	s9,20(s0)
    50201300:	02043023          	sd	zero,32(s0)
    50201304:	00002517          	auipc	a0,0x2
    50201308:	06450513          	addi	a0,a0,100 # 50203368 <ready_queue>
    5020130c:	239000ef          	jal	50201d44 <queue_pushback>
    50201310:	0ac1                	addi	s5,s5,16
    50201312:	04040413          	addi	s0,s0,64
    50201316:	f98912e3          	bne	s2,s8,5020129a <main+0x268>
    5020131a:	00001517          	auipc	a0,0x1
    5020131e:	22650513          	addi	a0,a0,550 # 50202540 <strcat+0xa8>
    50201322:	00002217          	auipc	tp,0x2
    50201326:	06620213          	addi	tp,tp,102 # 50203388 <pid0_pcb>
    5020132a:	7bf000ef          	jal	502022e8 <printk>
    5020132e:	520007b7          	lui	a5,0x52000
    50201332:	f3878793          	addi	a5,a5,-200 # 51ffff38 <__BSS_END__+0x1df9e38>
    50201336:	639c                	ld	a5,0(a5)
    50201338:	4701                	li	a4,0
    5020133a:	4681                	li	a3,0
    5020133c:	4601                	li	a2,0
    5020133e:	4581                	li	a1,0
    50201340:	4501                	li	a0,0
    50201342:	9782                	jalr	a5
    50201344:	00002797          	auipc	a5,0x2
    50201348:	0ca7b623          	sd	a0,204(a5) # 50203410 <time_base>
    5020134c:	76a000ef          	jal	50201ab6 <init_locks>
    50201350:	00001517          	auipc	a0,0x1
    50201354:	21850513          	addi	a0,a0,536 # 50202568 <strcat+0xd0>
    50201358:	791000ef          	jal	502022e8 <printk>
    5020135c:	538000ef          	jal	50201894 <init_exception>
    50201360:	00001517          	auipc	a0,0x1
    50201364:	24050513          	addi	a0,a0,576 # 502025a0 <strcat+0x108>
    50201368:	781000ef          	jal	502022e8 <printk>
    5020136c:	00001517          	auipc	a0,0x1
    50201370:	27450513          	addi	a0,a0,628 # 502025e0 <strcat+0x148>
    50201374:	775000ef          	jal	502022e8 <printk>
    50201378:	4b8000ef          	jal	50201830 <init_screen>
    5020137c:	00001517          	auipc	a0,0x1
    50201380:	29450513          	addi	a0,a0,660 # 50202610 <strcat+0x178>
    50201384:	765000ef          	jal	502022e8 <printk>
    50201388:	09f000ef          	jal	50201c26 <do_scheduler>
    5020138c:	bff5                	j	50201388 <main+0x356>
    5020138e:	07400713          	li	a4,116
    50201392:	b3cd                	j	50201174 <main+0x142>

0000000050201394 <enable_preempt>:
    50201394:	fff04293          	not	t0,zero
    50201398:	1042a073          	csrs	sie,t0
    5020139c:	8082                	ret
    5020139e:	0001                	nop

00000000502013a0 <disable_preempt>:
    502013a0:	10401073          	csrw	sie,zero
    502013a4:	8082                	ret
    502013a6:	0001                	nop

00000000502013a8 <enable_interrupt>:
    502013a8:	4289                	li	t0,2
    502013aa:	1002a073          	csrs	sstatus,t0
    502013ae:	8082                	ret

00000000502013b0 <disable_interrupt>:
    502013b0:	4289                	li	t0,2
    502013b2:	1002b073          	csrc	sstatus,t0
    502013b6:	8082                	ret

00000000502013b8 <switch_to>:
    502013b8:	7159                	addi	sp,sp,-112
    502013ba:	00153023          	sd	ra,0(a0)
    502013be:	00253423          	sd	sp,8(a0)
    502013c2:	e900                	sd	s0,16(a0)
    502013c4:	ed04                	sd	s1,24(a0)
    502013c6:	03253023          	sd	s2,32(a0)
    502013ca:	03353423          	sd	s3,40(a0)
    502013ce:	03453823          	sd	s4,48(a0)
    502013d2:	03553c23          	sd	s5,56(a0)
    502013d6:	05653023          	sd	s6,64(a0)
    502013da:	05753423          	sd	s7,72(a0)
    502013de:	05853823          	sd	s8,80(a0)
    502013e2:	05953c23          	sd	s9,88(a0)
    502013e6:	07a53023          	sd	s10,96(a0)
    502013ea:	07b53423          	sd	s11,104(a0)
    502013ee:	0005b083          	ld	ra,0(a1)
    502013f2:	0085b103          	ld	sp,8(a1)
    502013f6:	6980                	ld	s0,16(a1)
    502013f8:	6d84                	ld	s1,24(a1)
    502013fa:	0205b903          	ld	s2,32(a1)
    502013fe:	0285b983          	ld	s3,40(a1)
    50201402:	0305ba03          	ld	s4,48(a1)
    50201406:	0385ba83          	ld	s5,56(a1)
    5020140a:	0405bb03          	ld	s6,64(a1)
    5020140e:	0485bb83          	ld	s7,72(a1)
    50201412:	0505bc03          	ld	s8,80(a1)
    50201416:	0585bc83          	ld	s9,88(a1)
    5020141a:	0605bd03          	ld	s10,96(a1)
    5020141e:	0685bd83          	ld	s11,104(a1)
    50201422:	6165                	addi	sp,sp,112
    50201424:	8082                	ret
    50201426:	0001                	nop

0000000050201428 <exception_handler_entry>:
    50201428:	0001                	nop

000000005020142a <bios_putstr>:
    5020142a:	520007b7          	lui	a5,0x52000
    5020142e:	f0078793          	addi	a5,a5,-256 # 51ffff00 <__BSS_END__+0x1df9e00>
    50201432:	639c                	ld	a5,0(a5)
    50201434:	4701                	li	a4,0
    50201436:	4681                	li	a3,0
    50201438:	4601                	li	a2,0
    5020143a:	4581                	li	a1,0
    5020143c:	8782                	jr	a5

000000005020143e <list_files>:
    5020143e:	1101                	addi	sp,sp,-32
    50201440:	e04a                	sd	s2,0(sp)
    50201442:	52000937          	lui	s2,0x52000
    50201446:	f0093783          	ld	a5,-256(s2) # 51ffff00 <__BSS_END__+0x1df9e00>
    5020144a:	ec06                	sd	ra,24(sp)
    5020144c:	e822                	sd	s0,16(sp)
    5020144e:	e426                	sd	s1,8(sp)
    50201450:	4701                	li	a4,0
    50201452:	4681                	li	a3,0
    50201454:	4601                	li	a2,0
    50201456:	4581                	li	a1,0
    50201458:	00001517          	auipc	a0,0x1
    5020145c:	07050513          	addi	a0,a0,112 # 502024c8 <strcat+0x30>
    50201460:	9782                	jalr	a5
    50201462:	00002797          	auipc	a5,0x2
    50201466:	f9e7a783          	lw	a5,-98(a5) # 50203400 <tasknum>
    5020146a:	f0090913          	addi	s2,s2,-256
    5020146e:	cfe9                	beqz	a5,50201548 <list_files+0x10a>
    50201470:	00002497          	auipc	s1,0x2
    50201474:	fc448493          	addi	s1,s1,-60 # 50203434 <tasks+0x14>
    50201478:	4401                	li	s0,0
    5020147a:	02f05e63          	blez	a5,502014b6 <list_files+0x78>
    5020147e:	00093783          	ld	a5,0(s2)
    50201482:	4701                	li	a4,0
    50201484:	4681                	li	a3,0
    50201486:	4601                	li	a2,0
    50201488:	4581                	li	a1,0
    5020148a:	8526                	mv	a0,s1
    5020148c:	9782                	jalr	a5
    5020148e:	00093783          	ld	a5,0(s2)
    50201492:	4701                	li	a4,0
    50201494:	4681                	li	a3,0
    50201496:	4601                	li	a2,0
    50201498:	4581                	li	a1,0
    5020149a:	00001517          	auipc	a0,0x1
    5020149e:	04650513          	addi	a0,a0,70 # 502024e0 <strcat+0x48>
    502014a2:	9782                	jalr	a5
    502014a4:	00002797          	auipc	a5,0x2
    502014a8:	f5c7a783          	lw	a5,-164(a5) # 50203400 <tasknum>
    502014ac:	2405                	addiw	s0,s0,1
    502014ae:	02848493          	addi	s1,s1,40
    502014b2:	fcf446e3          	blt	s0,a5,5020147e <list_files+0x40>
    502014b6:	52000937          	lui	s2,0x52000
    502014ba:	f0093783          	ld	a5,-256(s2) # 51ffff00 <__BSS_END__+0x1df9e00>
    502014be:	4701                	li	a4,0
    502014c0:	4681                	li	a3,0
    502014c2:	4601                	li	a2,0
    502014c4:	4581                	li	a1,0
    502014c6:	00001517          	auipc	a0,0x1
    502014ca:	03250513          	addi	a0,a0,50 # 502024f8 <strcat+0x60>
    502014ce:	9782                	jalr	a5
    502014d0:	00002797          	auipc	a5,0x2
    502014d4:	1d07a783          	lw	a5,464(a5) # 502036a0 <batchfiles>
    502014d8:	f0090913          	addi	s2,s2,-256
    502014dc:	c3d1                	beqz	a5,50201560 <list_files+0x122>
    502014de:	00002497          	auipc	s1,0x2
    502014e2:	1c648493          	addi	s1,s1,454 # 502036a4 <batchfiles+0x4>
    502014e6:	4401                	li	s0,0
    502014e8:	02f05d63          	blez	a5,50201522 <list_files+0xe4>
    502014ec:	00093783          	ld	a5,0(s2)
    502014f0:	4701                	li	a4,0
    502014f2:	4681                	li	a3,0
    502014f4:	4601                	li	a2,0
    502014f6:	4581                	li	a1,0
    502014f8:	8526                	mv	a0,s1
    502014fa:	9782                	jalr	a5
    502014fc:	00093783          	ld	a5,0(s2)
    50201500:	4701                	li	a4,0
    50201502:	4681                	li	a3,0
    50201504:	4601                	li	a2,0
    50201506:	4581                	li	a1,0
    50201508:	00001517          	auipc	a0,0x1
    5020150c:	fd850513          	addi	a0,a0,-40 # 502024e0 <strcat+0x48>
    50201510:	9782                	jalr	a5
    50201512:	00002797          	auipc	a5,0x2
    50201516:	18e7a783          	lw	a5,398(a5) # 502036a0 <batchfiles>
    5020151a:	2405                	addiw	s0,s0,1
    5020151c:	04c1                	addi	s1,s1,16
    5020151e:	fcf447e3          	blt	s0,a5,502014ec <list_files+0xae>
    50201522:	520007b7          	lui	a5,0x52000
    50201526:	6442                	ld	s0,16(sp)
    50201528:	f0078793          	addi	a5,a5,-256 # 51ffff00 <__BSS_END__+0x1df9e00>
    5020152c:	60e2                	ld	ra,24(sp)
    5020152e:	64a2                	ld	s1,8(sp)
    50201530:	6902                	ld	s2,0(sp)
    50201532:	639c                	ld	a5,0(a5)
    50201534:	4701                	li	a4,0
    50201536:	4681                	li	a3,0
    50201538:	4601                	li	a2,0
    5020153a:	4581                	li	a1,0
    5020153c:	00001517          	auipc	a0,0x1
    50201540:	fa450513          	addi	a0,a0,-92 # 502024e0 <strcat+0x48>
    50201544:	6105                	addi	sp,sp,32
    50201546:	8782                	jr	a5
    50201548:	00093783          	ld	a5,0(s2)
    5020154c:	4701                	li	a4,0
    5020154e:	4681                	li	a3,0
    50201550:	4601                	li	a2,0
    50201552:	4581                	li	a1,0
    50201554:	00001517          	auipc	a0,0x1
    50201558:	f9450513          	addi	a0,a0,-108 # 502024e8 <strcat+0x50>
    5020155c:	9782                	jalr	a5
    5020155e:	bfa1                	j	502014b6 <list_files+0x78>
    50201560:	00093783          	ld	a5,0(s2)
    50201564:	4701                	li	a4,0
    50201566:	4681                	li	a3,0
    50201568:	4601                	li	a2,0
    5020156a:	4581                	li	a1,0
    5020156c:	00001517          	auipc	a0,0x1
    50201570:	fa450513          	addi	a0,a0,-92 # 50202510 <strcat+0x78>
    50201574:	9782                	jalr	a5
    50201576:	b775                	j	50201522 <list_files+0xe4>

0000000050201578 <port_write_ch>:
    50201578:	50150337          	lui	t1,0x50150
    5020157c:	4885                	li	a7,1
    5020157e:	4801                	li	a6,0
    50201580:	4781                	li	a5,0
    50201582:	4701                	li	a4,0
    50201584:	4681                	li	a3,0
    50201586:	4601                	li	a2,0
    50201588:	4581                	li	a1,0
    5020158a:	8302                	jr	t1

000000005020158c <port_write>:
    5020158c:	50150337          	lui	t1,0x50150
    50201590:	48a5                	li	a7,9
    50201592:	4801                	li	a6,0
    50201594:	4781                	li	a5,0
    50201596:	4701                	li	a4,0
    50201598:	4681                	li	a3,0
    5020159a:	4601                	li	a2,0
    5020159c:	4581                	li	a1,0
    5020159e:	8302                	jr	t1

00000000502015a0 <port_read_ch>:
    502015a0:	1141                	addi	sp,sp,-16
    502015a2:	e406                	sd	ra,8(sp)
    502015a4:	50150337          	lui	t1,0x50150
    502015a8:	4889                	li	a7,2
    502015aa:	4801                	li	a6,0
    502015ac:	4781                	li	a5,0
    502015ae:	4701                	li	a4,0
    502015b0:	4681                	li	a3,0
    502015b2:	4601                	li	a2,0
    502015b4:	4581                	li	a1,0
    502015b6:	4501                	li	a0,0
    502015b8:	9302                	jalr	t1
    502015ba:	60a2                	ld	ra,8(sp)
    502015bc:	2501                	sext.w	a0,a0
    502015be:	0141                	addi	sp,sp,16
    502015c0:	8082                	ret

00000000502015c2 <sd_read>:
    502015c2:	1141                	addi	sp,sp,-16
    502015c4:	1502                	slli	a0,a0,0x20
    502015c6:	1582                	slli	a1,a1,0x20
    502015c8:	1602                	slli	a2,a2,0x20
    502015ca:	e406                	sd	ra,8(sp)
    502015cc:	9101                	srli	a0,a0,0x20
    502015ce:	9181                	srli	a1,a1,0x20
    502015d0:	9201                	srli	a2,a2,0x20
    502015d2:	50150337          	lui	t1,0x50150
    502015d6:	48ad                	li	a7,11
    502015d8:	4801                	li	a6,0
    502015da:	4781                	li	a5,0
    502015dc:	4701                	li	a4,0
    502015de:	4681                	li	a3,0
    502015e0:	9302                	jalr	t1
    502015e2:	60a2                	ld	ra,8(sp)
    502015e4:	2501                	sext.w	a0,a0
    502015e6:	0141                	addi	sp,sp,16
    502015e8:	8082                	ret

00000000502015ea <sd_write>:
    502015ea:	1141                	addi	sp,sp,-16
    502015ec:	1502                	slli	a0,a0,0x20
    502015ee:	1582                	slli	a1,a1,0x20
    502015f0:	1602                	slli	a2,a2,0x20
    502015f2:	e406                	sd	ra,8(sp)
    502015f4:	9101                	srli	a0,a0,0x20
    502015f6:	9181                	srli	a1,a1,0x20
    502015f8:	9201                	srli	a2,a2,0x20
    502015fa:	50150337          	lui	t1,0x50150
    502015fe:	48a9                	li	a7,10
    50201600:	4801                	li	a6,0
    50201602:	4781                	li	a5,0
    50201604:	4701                	li	a4,0
    50201606:	4681                	li	a3,0
    50201608:	9302                	jalr	t1
    5020160a:	60a2                	ld	ra,8(sp)
    5020160c:	2501                	sext.w	a0,a0
    5020160e:	0141                	addi	sp,sp,16
    50201610:	8082                	ret

0000000050201612 <set_timer>:
    50201612:	50150337          	lui	t1,0x50150
    50201616:	4881                	li	a7,0
    50201618:	4801                	li	a6,0
    5020161a:	4781                	li	a5,0
    5020161c:	4701                	li	a4,0
    5020161e:	4681                	li	a3,0
    50201620:	4601                	li	a2,0
    50201622:	4581                	li	a1,0
    50201624:	8302                	jr	t1

0000000050201626 <read_fdt>:
    50201626:	1502                	slli	a0,a0,0x20
    50201628:	9101                	srli	a0,a0,0x20
    5020162a:	50150337          	lui	t1,0x50150
    5020162e:	48b1                	li	a7,12
    50201630:	4801                	li	a6,0
    50201632:	4781                	li	a5,0
    50201634:	4701                	li	a4,0
    50201636:	4681                	li	a3,0
    50201638:	4601                	li	a2,0
    5020163a:	4581                	li	a1,0
    5020163c:	8302                	jr	t1

000000005020163e <qemu_logging>:
    5020163e:	50150337          	lui	t1,0x50150
    50201642:	48b9                	li	a7,14
    50201644:	4801                	li	a6,0
    50201646:	4781                	li	a5,0
    50201648:	4701                	li	a4,0
    5020164a:	4681                	li	a3,0
    5020164c:	4601                	li	a2,0
    5020164e:	4581                	li	a1,0
    50201650:	8302                	jr	t1

0000000050201652 <screen_write_ch>:
    50201652:	47a9                	li	a5,10
    50201654:	04f50263          	beq	a0,a5,50201698 <screen_write_ch+0x46>
    50201658:	ff850793          	addi	a5,a0,-8
    5020165c:	0005071b          	sext.w	a4,a0
    50201660:	c7b9                	beqz	a5,502016ae <screen_write_ch+0x5c>
    50201662:	f8170713          	addi	a4,a4,-127
    50201666:	c721                	beqz	a4,502016ae <screen_write_ch+0x5c>
    50201668:	02c22603          	lw	a2,44(tp) # 2c <_start-0x50200fd4>
    5020166c:	02822683          	lw	a3,40(tp) # 28 <_start-0x50200fd8>
    50201670:	00003717          	auipc	a4,0x3
    50201674:	11070713          	addi	a4,a4,272 # 50204780 <new_screen>
    50201678:	0026179b          	slliw	a5,a2,0x2
    5020167c:	9fb1                	addw	a5,a5,a2
    5020167e:	0047979b          	slliw	a5,a5,0x4
    50201682:	9fb5                	addw	a5,a5,a3
    50201684:	97ba                	add	a5,a5,a4
    50201686:	00a78023          	sb	a0,0(a5)
    5020168a:	02822783          	lw	a5,40(tp) # 28 <_start-0x50200fd8>
    5020168e:	04f00713          	li	a4,79
    50201692:	2785                	addiw	a5,a5,1
    50201694:	00f75e63          	bge	a4,a5,502016b0 <screen_write_ch+0x5e>
    50201698:	02c22783          	lw	a5,44(tp) # 2c <_start-0x50200fd4>
    5020169c:	02022423          	sw	zero,40(tp) # 28 <_start-0x50200fd8>
    502016a0:	03100713          	li	a4,49
    502016a4:	00f74563          	blt	a4,a5,502016ae <screen_write_ch+0x5c>
    502016a8:	2785                	addiw	a5,a5,1
    502016aa:	02f22623          	sw	a5,44(tp) # 2c <_start-0x50200fd4>
    502016ae:	8082                	ret
    502016b0:	02f22423          	sw	a5,40(tp) # 28 <_start-0x50200fd8>
    502016b4:	8082                	ret

00000000502016b6 <screen_move_cursor>:
    502016b6:	0005069b          	sext.w	a3,a0
    502016ba:	00055363          	bgez	a0,502016c0 <screen_move_cursor+0xa>
    502016be:	4681                	li	a3,0
    502016c0:	04f00793          	li	a5,79
    502016c4:	00d7d363          	bge	a5,a3,502016ca <screen_move_cursor+0x14>
    502016c8:	86be                	mv	a3,a5
    502016ca:	862e                	mv	a2,a1
    502016cc:	0005d363          	bgez	a1,502016d2 <screen_move_cursor+0x1c>
    502016d0:	4601                	li	a2,0
    502016d2:	0006079b          	sext.w	a5,a2
    502016d6:	03100713          	li	a4,49
    502016da:	00f75363          	bge	a4,a5,502016e0 <screen_move_cursor+0x2a>
    502016de:	863a                	mv	a2,a4
    502016e0:	02d22423          	sw	a3,40(tp) # 28 <_start-0x50200fd8>
    502016e4:	02c22623          	sw	a2,44(tp) # 2c <_start-0x50200fd4>
    502016e8:	2685                	addiw	a3,a3,1
    502016ea:	2605                	addiw	a2,a2,1
    502016ec:	45ed                	li	a1,27
    502016ee:	00001517          	auipc	a0,0x1
    502016f2:	f7250513          	addi	a0,a0,-142 # 50202660 <strcat+0x1c8>
    502016f6:	41f0006f          	j	50202314 <printv>

00000000502016fa <screen_write>:
    502016fa:	1101                	addi	sp,sp,-32
    502016fc:	e822                	sd	s0,16(sp)
    502016fe:	ec06                	sd	ra,24(sp)
    50201700:	842a                	mv	s0,a0
    50201702:	4ad000ef          	jal	502023ae <strlen>
    50201706:	00a05d63          	blez	a0,50201720 <screen_write+0x26>
    5020170a:	e426                	sd	s1,8(sp)
    5020170c:	00a404b3          	add	s1,s0,a0
    50201710:	00044503          	lbu	a0,0(s0)
    50201714:	0405                	addi	s0,s0,1
    50201716:	f3dff0ef          	jal	50201652 <screen_write_ch>
    5020171a:	fe941be3          	bne	s0,s1,50201710 <screen_write+0x16>
    5020171e:	64a2                	ld	s1,8(sp)
    50201720:	60e2                	ld	ra,24(sp)
    50201722:	6442                	ld	s0,16(sp)
    50201724:	6105                	addi	sp,sp,32
    50201726:	8082                	ret

0000000050201728 <screen_reflush>:
    50201728:	715d                	addi	sp,sp,-80
    5020172a:	ec56                	sd	s5,24(sp)
    5020172c:	e85a                	sd	s6,16(sp)
    5020172e:	52000ab7          	lui	s5,0x52000
    50201732:	00002b17          	auipc	s6,0x2
    50201736:	0aeb0b13          	addi	s6,s6,174 # 502037e0 <old_screen>
    5020173a:	f84a                	sd	s2,48(sp)
    5020173c:	f44e                	sd	s3,40(sp)
    5020173e:	e45e                	sd	s7,8(sp)
    50201740:	e062                	sd	s8,0(sp)
    50201742:	e486                	sd	ra,72(sp)
    50201744:	e0a2                	sd	s0,64(sp)
    50201746:	fc26                	sd	s1,56(sp)
    50201748:	f052                	sd	s4,32(sp)
    5020174a:	41600b3b          	negw	s6,s6
    5020174e:	f08a8a93          	addi	s5,s5,-248 # 51ffff08 <__BSS_END__+0x1df9e08>
    50201752:	00002997          	auipc	s3,0x2
    50201756:	0de98993          	addi	s3,s3,222 # 50203830 <old_screen+0x50>
    5020175a:	00003b97          	auipc	s7,0x3
    5020175e:	026b8b93          	addi	s7,s7,38 # 50204780 <new_screen>
    50201762:	4901                	li	s2,0
    50201764:	03200c13          	li	s8,50
    50201768:	2905                	addiw	s2,s2,1
    5020176a:	fb098413          	addi	s0,s3,-80
    5020176e:	84de                	mv	s1,s7
    50201770:	001b0a1b          	addiw	s4,s6,1
    50201774:	0004c703          	lbu	a4,0(s1)
    50201778:	00044783          	lbu	a5,0(s0)
    5020177c:	008a06bb          	addw	a3,s4,s0
    50201780:	864a                	mv	a2,s2
    50201782:	45ed                	li	a1,27
    50201784:	00001517          	auipc	a0,0x1
    50201788:	edc50513          	addi	a0,a0,-292 # 50202660 <strcat+0x1c8>
    5020178c:	02f70163          	beq	a4,a5,502017ae <screen_reflush+0x86>
    50201790:	385000ef          	jal	50202314 <printv>
    50201794:	000ab783          	ld	a5,0(s5)
    50201798:	0004c503          	lbu	a0,0(s1)
    5020179c:	4701                	li	a4,0
    5020179e:	4681                	li	a3,0
    502017a0:	4601                	li	a2,0
    502017a2:	4581                	li	a1,0
    502017a4:	9782                	jalr	a5
    502017a6:	0004c783          	lbu	a5,0(s1)
    502017aa:	00f40023          	sb	a5,0(s0)
    502017ae:	0405                	addi	s0,s0,1
    502017b0:	0485                	addi	s1,s1,1
    502017b2:	fd3411e3          	bne	s0,s3,50201774 <screen_reflush+0x4c>
    502017b6:	05040993          	addi	s3,s0,80
    502017ba:	050b8b93          	addi	s7,s7,80
    502017be:	fb0b0b1b          	addiw	s6,s6,-80
    502017c2:	fb8913e3          	bne	s2,s8,50201768 <screen_reflush+0x40>
    502017c6:	02c22603          	lw	a2,44(tp) # 2c <_start-0x50200fd4>
    502017ca:	6406                	ld	s0,64(sp)
    502017cc:	60a6                	ld	ra,72(sp)
    502017ce:	74e2                	ld	s1,56(sp)
    502017d0:	7942                	ld	s2,48(sp)
    502017d2:	79a2                	ld	s3,40(sp)
    502017d4:	7a02                	ld	s4,32(sp)
    502017d6:	6ae2                	ld	s5,24(sp)
    502017d8:	6b42                	ld	s6,16(sp)
    502017da:	6ba2                	ld	s7,8(sp)
    502017dc:	6c02                	ld	s8,0(sp)
    502017de:	02822683          	lw	a3,40(tp) # 28 <_start-0x50200fd8>
    502017e2:	45ed                	li	a1,27
    502017e4:	367d                	addiw	a2,a2,-1
    502017e6:	00001517          	auipc	a0,0x1
    502017ea:	e7a50513          	addi	a0,a0,-390 # 50202660 <strcat+0x1c8>
    502017ee:	6161                	addi	sp,sp,80
    502017f0:	3250006f          	j	50202314 <printv>

00000000502017f4 <screen_clear>:
    502017f4:	00002697          	auipc	a3,0x2
    502017f8:	bd46b683          	ld	a3,-1068(a3) # 502033c8 <__SDATA_BEGIN__>
    502017fc:	00003617          	auipc	a2,0x3
    50201800:	f8460613          	addi	a2,a2,-124 # 50204780 <new_screen>
    50201804:	00003717          	auipc	a4,0x3
    50201808:	fcc70713          	addi	a4,a4,-52 # 502047d0 <new_screen+0x50>
    5020180c:	00004597          	auipc	a1,0x4
    50201810:	f6458593          	addi	a1,a1,-156 # 50205770 <exc_table+0x50>
    50201814:	87b2                	mv	a5,a2
    50201816:	e394                	sd	a3,0(a5)
    50201818:	07a1                	addi	a5,a5,8
    5020181a:	fee79ee3          	bne	a5,a4,50201816 <screen_clear+0x22>
    5020181e:	05078713          	addi	a4,a5,80
    50201822:	05060613          	addi	a2,a2,80
    50201826:	feb717e3          	bne	a4,a1,50201814 <screen_clear+0x20>
    5020182a:	02023423          	sd	zero,40(tp) # 28 <_start-0x50200fd8>
    5020182e:	bded                	j	50201728 <screen_reflush>

0000000050201830 <init_screen>:
    50201830:	1141                	addi	sp,sp,-16
    50201832:	45ed                	li	a1,27
    50201834:	00001517          	auipc	a0,0x1
    50201838:	e3c50513          	addi	a0,a0,-452 # 50202670 <strcat+0x1d8>
    5020183c:	e406                	sd	ra,8(sp)
    5020183e:	2d7000ef          	jal	50202314 <printv>
    50201842:	45ed                	li	a1,27
    50201844:	00001517          	auipc	a0,0x1
    50201848:	e3450513          	addi	a0,a0,-460 # 50202678 <strcat+0x1e0>
    5020184c:	2c9000ef          	jal	50202314 <printv>
    50201850:	00002617          	auipc	a2,0x2
    50201854:	b7863603          	ld	a2,-1160(a2) # 502033c8 <__SDATA_BEGIN__>
    50201858:	00003717          	auipc	a4,0x3
    5020185c:	f2870713          	addi	a4,a4,-216 # 50204780 <new_screen>
    50201860:	00003697          	auipc	a3,0x3
    50201864:	f7068693          	addi	a3,a3,-144 # 502047d0 <new_screen+0x50>
    50201868:	00004597          	auipc	a1,0x4
    5020186c:	eb858593          	addi	a1,a1,-328 # 50205720 <exc_table>
    50201870:	87ba                	mv	a5,a4
    50201872:	e390                	sd	a2,0(a5)
    50201874:	07a1                	addi	a5,a5,8
    50201876:	fed79ee3          	bne	a5,a3,50201872 <init_screen+0x42>
    5020187a:	05070713          	addi	a4,a4,80
    5020187e:	05078693          	addi	a3,a5,80
    50201882:	feb717e3          	bne	a4,a1,50201870 <init_screen+0x40>
    50201886:	60a2                	ld	ra,8(sp)
    50201888:	02023423          	sd	zero,40(tp) # 28 <_start-0x50200fd8>
    5020188c:	0141                	addi	sp,sp,16
    5020188e:	bd69                	j	50201728 <screen_reflush>

0000000050201890 <interrupt_helper>:
    50201890:	8082                	ret

0000000050201892 <handle_irq_timer>:
    50201892:	8082                	ret

0000000050201894 <init_exception>:
    50201894:	8082                	ret

0000000050201896 <handle_other>:
    50201896:	710d                	addi	sp,sp,-352
    50201898:	ee5e                	sd	s7,280(sp)
    5020189a:	ea62                	sd	s8,272(sp)
    5020189c:	e666                	sd	s9,264(sp)
    5020189e:	ee86                	sd	ra,344(sp)
    502018a0:	eaa2                	sd	s0,336(sp)
    502018a2:	e6a6                	sd	s1,328(sp)
    502018a4:	e2ca                	sd	s2,320(sp)
    502018a6:	fe4e                	sd	s3,312(sp)
    502018a8:	fa52                	sd	s4,304(sp)
    502018aa:	f656                	sd	s5,296(sp)
    502018ac:	f25a                	sd	s6,288(sp)
    502018ae:	8baa                	mv	s7,a0
    502018b0:	8c2e                	mv	s8,a1
    502018b2:	8cb2                	mv	s9,a2
    502018b4:	00001797          	auipc	a5,0x1
    502018b8:	02478793          	addi	a5,a5,36 # 502028d8 <strcat+0x440>
    502018bc:	870a                	mv	a4,sp
    502018be:	00001697          	auipc	a3,0x1
    502018c2:	11a68693          	addi	a3,a3,282 # 502029d8 <__FUNCTION__.0>
    502018c6:	0007b803          	ld	a6,0(a5)
    502018ca:	6788                	ld	a0,8(a5)
    502018cc:	6b8c                	ld	a1,16(a5)
    502018ce:	6f90                	ld	a2,24(a5)
    502018d0:	01073023          	sd	a6,0(a4)
    502018d4:	e708                	sd	a0,8(a4)
    502018d6:	eb0c                	sd	a1,16(a4)
    502018d8:	ef10                	sd	a2,24(a4)
    502018da:	02078793          	addi	a5,a5,32
    502018de:	02070713          	addi	a4,a4,32
    502018e2:	fed792e3          	bne	a5,a3,502018c6 <handle_other+0x30>
    502018e6:	8a8a                	mv	s5,sp
    502018e8:	8a5e                	mv	s4,s7
    502018ea:	598d                	li	s3,-29
    502018ec:	4b11                	li	s6,4
    502018ee:	8952                	mv	s2,s4
    502018f0:	84d6                	mv	s1,s5
    502018f2:	440d                	li	s0,3
    502018f4:	00001517          	auipc	a0,0x1
    502018f8:	d8c50513          	addi	a0,a0,-628 # 50202680 <strcat+0x1e8>
    502018fc:	09340363          	beq	s0,s3,50201982 <handle_other+0xec>
    50201900:	00093603          	ld	a2,0(s2)
    50201904:	608c                	ld	a1,0(s1)
    50201906:	347d                	addiw	s0,s0,-1
    50201908:	04a1                	addi	s1,s1,8
    5020190a:	1df000ef          	jal	502022e8 <printk>
    5020190e:	0921                	addi	s2,s2,8
    50201910:	f075                	bnez	s0,502018f4 <handle_other+0x5e>
    50201912:	00001517          	auipc	a0,0x1
    50201916:	bce50513          	addi	a0,a0,-1074 # 502024e0 <strcat+0x48>
    5020191a:	298d                	addiw	s3,s3,3
    5020191c:	1cd000ef          	jal	502022e8 <printk>
    50201920:	0ae1                	addi	s5,s5,24
    50201922:	0a61                	addi	s4,s4,24
    50201924:	fd6995e3          	bne	s3,s6,502018ee <handle_other+0x58>
    50201928:	118bb683          	ld	a3,280(s7)
    5020192c:	110bb603          	ld	a2,272(s7)
    50201930:	100bb583          	ld	a1,256(s7)
    50201934:	00001517          	auipc	a0,0x1
    50201938:	d5c50513          	addi	a0,a0,-676 # 50202690 <strcat+0x1f8>
    5020193c:	1ad000ef          	jal	502022e8 <printk>
    50201940:	108bb583          	ld	a1,264(s7)
    50201944:	00001517          	auipc	a0,0x1
    50201948:	d7c50513          	addi	a0,a0,-644 # 502026c0 <strcat+0x228>
    5020194c:	19d000ef          	jal	502022e8 <printk>
    50201950:	8666                	mv	a2,s9
    50201952:	85e2                	mv	a1,s8
    50201954:	00001517          	auipc	a0,0x1
    50201958:	d7c50513          	addi	a0,a0,-644 # 502026d0 <strcat+0x238>
    5020195c:	18d000ef          	jal	502022e8 <printk>
    50201960:	03900693          	li	a3,57
    50201964:	00001617          	auipc	a2,0x1
    50201968:	d8c60613          	addi	a2,a2,-628 # 502026f0 <strcat+0x258>
    5020196c:	00001597          	auipc	a1,0x1
    50201970:	06c58593          	addi	a1,a1,108 # 502029d8 <__FUNCTION__.0>
    50201974:	00001517          	auipc	a0,0x1
    50201978:	d9450513          	addi	a0,a0,-620 # 50202708 <strcat+0x270>
    5020197c:	16d000ef          	jal	502022e8 <printk>
    50201980:	a001                	j	50201980 <handle_other+0xea>
    50201982:	00001517          	auipc	a0,0x1
    50201986:	b5e50513          	addi	a0,a0,-1186 # 502024e0 <strcat+0x48>
    5020198a:	15f000ef          	jal	502022e8 <printk>
    5020198e:	bf69                	j	50201928 <handle_other+0x92>

0000000050201990 <load_task_img>:
    50201990:	7179                	addi	sp,sp,-48
    50201992:	f406                	sd	ra,40(sp)
    50201994:	ec26                	sd	s1,24(sp)
    50201996:	0ac05f63          	blez	a2,50201a54 <load_task_img+0xc4>
    5020199a:	f022                	sd	s0,32(sp)
    5020199c:	e84a                	sd	s2,16(sp)
    5020199e:	e44e                	sd	s3,8(sp)
    502019a0:	e052                	sd	s4,0(sp)
    502019a2:	8932                	mv	s2,a2
    502019a4:	89aa                	mv	s3,a0
    502019a6:	8a2e                	mv	s4,a1
    502019a8:	01458493          	addi	s1,a1,20
    502019ac:	4401                	li	s0,0
    502019ae:	a031                	j	502019ba <load_task_img+0x2a>
    502019b0:	2405                	addiw	s0,s0,1
    502019b2:	02848493          	addi	s1,s1,40
    502019b6:	08890b63          	beq	s2,s0,50201a4c <load_task_img+0xbc>
    502019ba:	85ce                	mv	a1,s3
    502019bc:	8526                	mv	a0,s1
    502019be:	20f000ef          	jal	502023cc <strcmp>
    502019c2:	f57d                	bnez	a0,502019b0 <load_task_img+0x20>
    502019c4:	00241793          	slli	a5,s0,0x2
    502019c8:	97a2                	add	a5,a5,s0
    502019ca:	078e                	slli	a5,a5,0x3
    502019cc:	9a3e                	add	s4,s4,a5
    502019ce:	00ca2683          	lw	a3,12(s4)
    502019d2:	010a2783          	lw	a5,16(s4)
    502019d6:	52000737          	lui	a4,0x52000
    502019da:	41f6d61b          	sraiw	a2,a3,0x1f
    502019de:	9fb5                	addw	a5,a5,a3
    502019e0:	41f7d59b          	sraiw	a1,a5,0x1f
    502019e4:	0175d59b          	srliw	a1,a1,0x17
    502019e8:	0176561b          	srliw	a2,a2,0x17
    502019ec:	9dbd                	addw	a1,a1,a5
    502019ee:	9e35                	addw	a2,a2,a3
    502019f0:	4096561b          	sraiw	a2,a2,0x9
    502019f4:	4095d59b          	sraiw	a1,a1,0x9
    502019f8:	9d91                	subw	a1,a1,a2
    502019fa:	f1873783          	ld	a5,-232(a4) # 51ffff18 <__BSS_END__+0x1df9e18>
    502019fe:	2585                	addiw	a1,a1,1
    50201a00:	1582                	slli	a1,a1,0x20
    50201a02:	1602                	slli	a2,a2,0x20
    50201a04:	9181                	srli	a1,a1,0x20
    50201a06:	9201                	srli	a2,a2,0x20
    50201a08:	4701                	li	a4,0
    50201a0a:	4681                	li	a3,0
    50201a0c:	59000537          	lui	a0,0x59000
    50201a10:	000a3483          	ld	s1,0(s4)
    50201a14:	9782                	jalr	a5
    50201a16:	00ca2783          	lw	a5,12(s4)
    50201a1a:	010a2603          	lw	a2,16(s4)
    50201a1e:	590005b7          	lui	a1,0x59000
    50201a22:	41f7d71b          	sraiw	a4,a5,0x1f
    50201a26:	0177571b          	srliw	a4,a4,0x17
    50201a2a:	9fb9                	addw	a5,a5,a4
    50201a2c:	1ff7f793          	andi	a5,a5,511
    50201a30:	9f99                	subw	a5,a5,a4
    50201a32:	8526                	mv	a0,s1
    50201a34:	9dbd                	addw	a1,a1,a5
    50201a36:	137000ef          	jal	5020236c <memcpy>
    50201a3a:	70a2                	ld	ra,40(sp)
    50201a3c:	7402                	ld	s0,32(sp)
    50201a3e:	6942                	ld	s2,16(sp)
    50201a40:	69a2                	ld	s3,8(sp)
    50201a42:	6a02                	ld	s4,0(sp)
    50201a44:	8526                	mv	a0,s1
    50201a46:	64e2                	ld	s1,24(sp)
    50201a48:	6145                	addi	sp,sp,48
    50201a4a:	8082                	ret
    50201a4c:	7402                	ld	s0,32(sp)
    50201a4e:	6942                	ld	s2,16(sp)
    50201a50:	69a2                	ld	s3,8(sp)
    50201a52:	6a02                	ld	s4,0(sp)
    50201a54:	520007b7          	lui	a5,0x52000
    50201a58:	f0078793          	addi	a5,a5,-256 # 51ffff00 <__BSS_END__+0x1df9e00>
    50201a5c:	639c                	ld	a5,0(a5)
    50201a5e:	4701                	li	a4,0
    50201a60:	4681                	li	a3,0
    50201a62:	4601                	li	a2,0
    50201a64:	4581                	li	a1,0
    50201a66:	00001517          	auipc	a0,0x1
    50201a6a:	dca50513          	addi	a0,a0,-566 # 50202830 <strcat+0x398>
    50201a6e:	9782                	jalr	a5
    50201a70:	70a2                	ld	ra,40(sp)
    50201a72:	4481                	li	s1,0
    50201a74:	8526                	mv	a0,s1
    50201a76:	64e2                	ld	s1,24(sp)
    50201a78:	6145                	addi	sp,sp,48
    50201a7a:	8082                	ret

0000000050201a7c <excute_by_name>:
    50201a7c:	7179                	addi	sp,sp,-48
    50201a7e:	e436                	sd	a3,8(sp)
    50201a80:	f406                	sd	ra,40(sp)
    50201a82:	f0fff0ef          	jal	50201990 <load_task_img>
    50201a86:	66a2                	ld	a3,8(sp)
    50201a88:	00001797          	auipc	a5,0x1
    50201a8c:	dd078793          	addi	a5,a5,-560 # 50202858 <strcat+0x3c0>
    50201a90:	e83e                	sd	a5,16(sp)
    50201a92:	00001717          	auipc	a4,0x1
    50201a96:	db670713          	addi	a4,a4,-586 # 50202848 <strcat+0x3b0>
    50201a9a:	87aa                	mv	a5,a0
    50201a9c:	e689                	bnez	a3,50201aa6 <excute_by_name+0x2a>
    50201a9e:	00001717          	auipc	a4,0x1
    50201aa2:	db270713          	addi	a4,a4,-590 # 50202850 <strcat+0x3b8>
    50201aa6:	ec3a                	sd	a4,24(sp)
    50201aa8:	c781                	beqz	a5,50201ab0 <excute_by_name+0x34>
    50201aaa:	080c                	addi	a1,sp,16
    50201aac:	4509                	li	a0,2
    50201aae:	9782                	jalr	a5
    50201ab0:	70a2                	ld	ra,40(sp)
    50201ab2:	6145                	addi	sp,sp,48
    50201ab4:	8082                	ret

0000000050201ab6 <init_locks>:
    50201ab6:	00004797          	auipc	a5,0x4
    50201aba:	d5278793          	addi	a5,a5,-686 # 50205808 <mlocks+0x8>
    50201abe:	4701                	li	a4,0
    50201ac0:	00004597          	auipc	a1,0x4
    50201ac4:	d4058593          	addi	a1,a1,-704 # 50205800 <mlocks>
    50201ac8:	4641                	li	a2,16
    50201aca:	00571693          	slli	a3,a4,0x5
    50201ace:	96ae                	add	a3,a3,a1
    50201ad0:	0006a023          	sw	zero,0(a3)
    50201ad4:	e39c                	sd	a5,0(a5)
    50201ad6:	e79c                	sd	a5,8(a5)
    50201ad8:	0007a823          	sw	zero,16(a5)
    50201adc:	2705                	addiw	a4,a4,1
    50201ade:	02078793          	addi	a5,a5,32
    50201ae2:	fec714e3          	bne	a4,a2,50201aca <init_locks+0x14>
    50201ae6:	8082                	ret

0000000050201ae8 <spin_lock_init>:
    50201ae8:	8082                	ret

0000000050201aea <spin_lock_try_acquire>:
    50201aea:	4501                	li	a0,0
    50201aec:	8082                	ret

0000000050201aee <spin_lock_acquire>:
    50201aee:	8082                	ret

0000000050201af0 <spin_lock_release>:
    50201af0:	8082                	ret

0000000050201af2 <do_mutex_lock_init>:
    50201af2:	00004617          	auipc	a2,0x4
    50201af6:	d2660613          	addi	a2,a2,-730 # 50205818 <mlocks+0x18>
    50201afa:	8732                	mv	a4,a2
    50201afc:	4781                	li	a5,0
    50201afe:	45c1                	li	a1,16
    50201b00:	4314                	lw	a3,0(a4)
    50201b02:	02070713          	addi	a4,a4,32
    50201b06:	00a68f63          	beq	a3,a0,50201b24 <do_mutex_lock_init+0x32>
    50201b0a:	2785                	addiw	a5,a5,1
    50201b0c:	feb79ae3          	bne	a5,a1,50201b00 <do_mutex_lock_init+0xe>
    50201b10:	4781                	li	a5,0
    50201b12:	46c1                	li	a3,16
    50201b14:	4218                	lw	a4,0(a2)
    50201b16:	02060613          	addi	a2,a2,32
    50201b1a:	c719                	beqz	a4,50201b28 <do_mutex_lock_init+0x36>
    50201b1c:	2785                	addiw	a5,a5,1
    50201b1e:	fed79be3          	bne	a5,a3,50201b14 <do_mutex_lock_init+0x22>
    50201b22:	57fd                	li	a5,-1
    50201b24:	853e                	mv	a0,a5
    50201b26:	8082                	ret
    50201b28:	00579613          	slli	a2,a5,0x5
    50201b2c:	00860693          	addi	a3,a2,8
    50201b30:	00004717          	auipc	a4,0x4
    50201b34:	cd070713          	addi	a4,a4,-816 # 50205800 <mlocks>
    50201b38:	96ba                	add	a3,a3,a4
    50201b3a:	9732                	add	a4,a4,a2
    50201b3c:	cf08                	sw	a0,24(a4)
    50201b3e:	e714                	sd	a3,8(a4)
    50201b40:	eb14                	sd	a3,16(a4)
    50201b42:	00072023          	sw	zero,0(a4)
    50201b46:	853e                	mv	a0,a5
    50201b48:	8082                	ret

0000000050201b4a <do_mutex_lock_acquire>:
    50201b4a:	00551793          	slli	a5,a0,0x5
    50201b4e:	00004697          	auipc	a3,0x4
    50201b52:	cb268693          	addi	a3,a3,-846 # 50205800 <mlocks>
    50201b56:	00f68733          	add	a4,a3,a5
    50201b5a:	4310                	lw	a2,0(a4)
    50201b5c:	e601                	bnez	a2,50201b64 <do_mutex_lock_acquire+0x1a>
    50201b5e:	4785                	li	a5,1
    50201b60:	c31c                	sw	a5,0(a4)
    50201b62:	8082                	ret
    50201b64:	02022583          	lw	a1,32(tp) # 20 <_start-0x50200fe0>
    50201b68:	1101                	addi	sp,sp,-32
    50201b6a:	00001517          	auipc	a0,0x1
    50201b6e:	cf650513          	addi	a0,a0,-778 # 50202860 <strcat+0x3c8>
    50201b72:	ec06                	sd	ra,24(sp)
    50201b74:	e43e                	sd	a5,8(sp)
    50201b76:	772000ef          	jal	502022e8 <printk>
    50201b7a:	67a2                	ld	a5,8(sp)
    50201b7c:	60e2                	ld	ra,24(sp)
    50201b7e:	00004697          	auipc	a3,0x4
    50201b82:	c8268693          	addi	a3,a3,-894 # 50205800 <mlocks>
    50201b86:	00878593          	addi	a1,a5,8
    50201b8a:	95b6                	add	a1,a1,a3
    50201b8c:	01020513          	addi	a0,tp,16 # 10 <_start-0x50200ff0>
    50201b90:	6105                	addi	sp,sp,32
    50201b92:	a8f5                	j	50201c8e <do_block>

0000000050201b94 <do_mutex_lock_release>:
    50201b94:	1101                	addi	sp,sp,-32
    50201b96:	e822                	sd	s0,16(sp)
    50201b98:	00551413          	slli	s0,a0,0x5
    50201b9c:	e426                	sd	s1,8(sp)
    50201b9e:	00840513          	addi	a0,s0,8
    50201ba2:	00004497          	auipc	s1,0x4
    50201ba6:	c5e48493          	addi	s1,s1,-930 # 50205800 <mlocks>
    50201baa:	9526                	add	a0,a0,s1
    50201bac:	ec06                	sd	ra,24(sp)
    50201bae:	16a000ef          	jal	50201d18 <do_unblock>
    50201bb2:	c511                	beqz	a0,50201bbe <do_mutex_lock_release+0x2a>
    50201bb4:	60e2                	ld	ra,24(sp)
    50201bb6:	6442                	ld	s0,16(sp)
    50201bb8:	64a2                	ld	s1,8(sp)
    50201bba:	6105                	addi	sp,sp,32
    50201bbc:	8082                	ret
    50201bbe:	94a2                	add	s1,s1,s0
    50201bc0:	6442                	ld	s0,16(sp)
    50201bc2:	02022583          	lw	a1,32(tp) # 20 <_start-0x50200fe0>
    50201bc6:	60e2                	ld	ra,24(sp)
    50201bc8:	0004a023          	sw	zero,0(s1)
    50201bcc:	64a2                	ld	s1,8(sp)
    50201bce:	00001517          	auipc	a0,0x1
    50201bd2:	caa50513          	addi	a0,a0,-854 # 50202878 <strcat+0x3e0>
    50201bd6:	6105                	addi	sp,sp,32
    50201bd8:	af01                	j	502022e8 <printk>

0000000050201bda <allocKernelPage>:
    50201bda:	00002797          	auipc	a5,0x2
    50201bde:	80e7b783          	ld	a5,-2034(a5) # 502033e8 <kernMemCurr>
    50201be2:	6705                	lui	a4,0x1
    50201be4:	177d                	addi	a4,a4,-1 # fff <_start-0x50200001>
    50201be6:	97ba                	add	a5,a5,a4
    50201be8:	76fd                	lui	a3,0xfffff
    50201bea:	00c5171b          	slliw	a4,a0,0xc
    50201bee:	00d7f533          	and	a0,a5,a3
    50201bf2:	00a707b3          	add	a5,a4,a0
    50201bf6:	00001717          	auipc	a4,0x1
    50201bfa:	7ef73923          	sd	a5,2034(a4) # 502033e8 <kernMemCurr>
    50201bfe:	8082                	ret

0000000050201c00 <allocUserPage>:
    50201c00:	00001797          	auipc	a5,0x1
    50201c04:	7e07b783          	ld	a5,2016(a5) # 502033e0 <userMemCurr>
    50201c08:	6705                	lui	a4,0x1
    50201c0a:	177d                	addi	a4,a4,-1 # fff <_start-0x50200001>
    50201c0c:	97ba                	add	a5,a5,a4
    50201c0e:	76fd                	lui	a3,0xfffff
    50201c10:	00c5171b          	slliw	a4,a0,0xc
    50201c14:	00d7f533          	and	a0,a5,a3
    50201c18:	00a707b3          	add	a5,a4,a0
    50201c1c:	00001717          	auipc	a4,0x1
    50201c20:	7cf73223          	sd	a5,1988(a4) # 502033e0 <userMemCurr>
    50201c24:	8082                	ret

0000000050201c26 <do_scheduler>:
    50201c26:	00020a63          	beqz	tp,50201c3a <do_scheduler+0x14>
    50201c2a:	02422703          	lw	a4,36(tp) # 24 <_start-0x50200fdc>
    50201c2e:	4689                	li	a3,2
    50201c30:	00d70663          	beq	a4,a3,50201c3c <do_scheduler+0x16>
    50201c34:	4605                	li	a2,1
    50201c36:	00c70763          	beq	a4,a2,50201c44 <do_scheduler+0x1e>
    50201c3a:	8082                	ret
    50201c3c:	4705                	li	a4,1
    50201c3e:	02e22223          	sw	a4,36(tp) # 24 <_start-0x50200fdc>
    50201c42:	8082                	ret
    50201c44:	00001617          	auipc	a2,0x1
    50201c48:	72460613          	addi	a2,a2,1828 # 50203368 <ready_queue>
    50201c4c:	02d22223          	sw	a3,36(tp) # 24 <_start-0x50200fdc>
    50201c50:	6214                	ld	a3,0(a2)
    50201c52:	02c68a63          	beq	a3,a2,50201c86 <do_scheduler+0x60>
    50201c56:	660c                	ld	a1,8(a2)
    50201c58:	01020813          	addi	a6,tp,16 # 10 <_start-0x50200ff0>
    50201c5c:	00023503          	ld	a0,0(tp) # 0 <_start-0x50201000>
    50201c60:	0105b023          	sd	a6,0(a1)
    50201c64:	00d23823          	sd	a3,16(tp) # 10 <_start-0x50200ff0>
    50201c68:	0106b423          	sd	a6,8(a3) # fffffffffffff008 <__BSS_END__+0xffffffffafdf8f08>
    50201c6c:	00b23c23          	sd	a1,24(tp) # 18 <_start-0x50200fe8>
    50201c70:	629c                	ld	a5,0(a3)
    50201c72:	ff06b583          	ld	a1,-16(a3)
    50201c76:	ff068213          	addi	tp,a3,-16
    50201c7a:	e21c                	sd	a5,0(a2)
    50201c7c:	669c                	ld	a5,8(a3)
    50201c7e:	e61c                	sd	a5,8(a2)
    50201c80:	cad8                	sw	a4,20(a3)
    50201c82:	f36ff06f          	j	502013b8 <switch_to>
    50201c86:	00803783          	ld	a5,8(zero) # 8 <_start-0x50200ff8>
    50201c8a:	9002                	ebreak

0000000050201c8c <do_sleep>:
    50201c8c:	8082                	ret

0000000050201c8e <do_block>:
    50201c8e:	495c                	lw	a5,20(a0)
    50201c90:	862e                	mv	a2,a1
    50201c92:	cbb1                	beqz	a5,50201ce6 <do_block+0x58>
    50201c94:	00001717          	auipc	a4,0x1
    50201c98:	6d470713          	addi	a4,a4,1748 # 50203368 <ready_queue>
    50201c9c:	631c                	ld	a5,0(a4)
    50201c9e:	04e78563          	beq	a5,a4,50201ce8 <do_block+0x5a>
    50201ca2:	670c                	ld	a1,8(a4)
    50201ca4:	00023503          	ld	a0,0(tp) # 0 <_start-0x50201000>
    50201ca8:	01020813          	addi	a6,tp,16 # 10 <_start-0x50200ff0>
    50201cac:	e78c                	sd	a1,8(a5)
    50201cae:	e19c                	sd	a5,0(a1)
    50201cb0:	0007b883          	ld	a7,0(a5)
    50201cb4:	ff07b583          	ld	a1,-16(a5)
    50201cb8:	8692                	mv	a3,tp
    50201cba:	01173023          	sd	a7,0(a4)
    50201cbe:	0087b303          	ld	t1,8(a5)
    50201cc2:	02022223          	sw	zero,36(tp) # 24 <_start-0x50200fdc>
    50201cc6:	4885                	li	a7,1
    50201cc8:	00673423          	sd	t1,8(a4)
    50201ccc:	6618                	ld	a4,8(a2)
    50201cce:	ff078213          	addi	tp,a5,-16
    50201cd2:	01073023          	sd	a6,0(a4)
    50201cd6:	ea90                	sd	a2,16(a3)
    50201cd8:	01063423          	sd	a6,8(a2)
    50201cdc:	ee98                	sd	a4,24(a3)
    50201cde:	0117aa23          	sw	a7,20(a5)
    50201ce2:	ed6ff06f          	j	502013b8 <switch_to>
    50201ce6:	8082                	ret
    50201ce8:	00003703          	ld	a4,0(zero) # 0 <_start-0x50201000>
    50201cec:	e398                	sd	a4,0(a5)
    50201cee:	00803703          	ld	a4,8(zero) # 8 <_start-0x50200ff8>
    50201cf2:	e798                	sd	a4,8(a5)
    50201cf4:	9002                	ebreak

0000000050201cf6 <Enqueue>:
    50201cf6:	619c                	ld	a5,0(a1)
    50201cf8:	e188                	sd	a0,0(a1)
    50201cfa:	e50c                	sd	a1,8(a0)
    50201cfc:	e11c                	sd	a5,0(a0)
    50201cfe:	e788                	sd	a0,8(a5)
    50201d00:	8082                	ret

0000000050201d02 <Dequeue>:
    50201d02:	651c                	ld	a5,8(a0)
    50201d04:	00f50863          	beq	a0,a5,50201d14 <Dequeue+0x12>
    50201d08:	6794                	ld	a3,8(a5)
    50201d0a:	6398                	ld	a4,0(a5)
    50201d0c:	e298                	sd	a4,0(a3)
    50201d0e:	e714                	sd	a3,8(a4)
    50201d10:	853e                	mv	a0,a5
    50201d12:	8082                	ret
    50201d14:	4781                	li	a5,0
    50201d16:	bfed                	j	50201d10 <Dequeue+0xe>

0000000050201d18 <do_unblock>:
    50201d18:	611c                	ld	a5,0(a0)
    50201d1a:	6398                	ld	a4,0(a5)
    50201d1c:	02e78263          	beq	a5,a4,50201d40 <do_unblock+0x28>
    50201d20:	678c                	ld	a1,8(a5)
    50201d22:	00001697          	auipc	a3,0x1
    50201d26:	64668693          	addi	a3,a3,1606 # 50203368 <ready_queue>
    50201d2a:	4509                	li	a0,2
    50201d2c:	e70c                	sd	a1,8(a4)
    50201d2e:	6690                	ld	a2,8(a3)
    50201d30:	e198                	sd	a4,0(a1)
    50201d32:	cbc8                	sw	a0,20(a5)
    50201d34:	e21c                	sd	a5,0(a2)
    50201d36:	e394                	sd	a3,0(a5)
    50201d38:	e69c                	sd	a5,8(a3)
    50201d3a:	e790                	sd	a2,8(a5)
    50201d3c:	4505                	li	a0,1
    50201d3e:	8082                	ret
    50201d40:	4501                	li	a0,0
    50201d42:	8082                	ret

0000000050201d44 <queue_pushback>:
    50201d44:	651c                	ld	a5,8(a0)
    50201d46:	e38c                	sd	a1,0(a5)
    50201d48:	e188                	sd	a0,0(a1)
    50201d4a:	e50c                	sd	a1,8(a0)
    50201d4c:	e59c                	sd	a5,8(a1)
    50201d4e:	8082                	ret

0000000050201d50 <queue_popfront>:
    50201d50:	611c                	ld	a5,0(a0)
    50201d52:	00a78763          	beq	a5,a0,50201d60 <queue_popfront+0x10>
    50201d56:	6518                	ld	a4,8(a0)
    50201d58:	e798                	sd	a4,8(a5)
    50201d5a:	e31c                	sd	a5,0(a4)
    50201d5c:	853e                	mv	a0,a5
    50201d5e:	8082                	ret
    50201d60:	4781                	li	a5,0
    50201d62:	bfed                	j	50201d5c <queue_popfront+0xc>

0000000050201d64 <get_ticks>:
    50201d64:	c0102573          	rdtime	a0
    50201d68:	00001797          	auipc	a5,0x1
    50201d6c:	6aa7b823          	sd	a0,1712(a5) # 50203418 <time_elapsed>
    50201d70:	8082                	ret

0000000050201d72 <get_timer>:
    50201d72:	c01027f3          	rdtime	a5
    50201d76:	00001517          	auipc	a0,0x1
    50201d7a:	69a53503          	ld	a0,1690(a0) # 50203410 <time_base>
    50201d7e:	00001717          	auipc	a4,0x1
    50201d82:	68f73d23          	sd	a5,1690(a4) # 50203418 <time_elapsed>
    50201d86:	02a7d533          	divu	a0,a5,a0
    50201d8a:	8082                	ret

0000000050201d8c <get_time_base>:
    50201d8c:	00001517          	auipc	a0,0x1
    50201d90:	68453503          	ld	a0,1668(a0) # 50203410 <time_base>
    50201d94:	8082                	ret

0000000050201d96 <latency>:
    50201d96:	c01026f3          	rdtime	a3
    50201d9a:	00001617          	auipc	a2,0x1
    50201d9e:	67660613          	addi	a2,a2,1654 # 50203410 <time_base>
    50201da2:	621c                	ld	a5,0(a2)
    50201da4:	02f6d6b3          	divu	a3,a3,a5
    50201da8:	c01027f3          	rdtime	a5
    50201dac:	6218                	ld	a4,0(a2)
    50201dae:	00001597          	auipc	a1,0x1
    50201db2:	66f5b523          	sd	a5,1642(a1) # 50203418 <time_elapsed>
    50201db6:	02e7d7b3          	divu	a5,a5,a4
    50201dba:	8f95                	sub	a5,a5,a3
    50201dbc:	fea7e6e3          	bltu	a5,a0,50201da8 <latency+0x12>
    50201dc0:	8082                	ret

0000000050201dc2 <check_sleeping>:
    50201dc2:	8082                	ret

0000000050201dc4 <handle_syscall>:
    50201dc4:	8082                	ret

0000000050201dc6 <bios_putstr>:
    50201dc6:	520007b7          	lui	a5,0x52000
    50201dca:	f0078793          	addi	a5,a5,-256 # 51ffff00 <__BSS_END__+0x1df9e00>
    50201dce:	639c                	ld	a5,0(a5)
    50201dd0:	4701                	li	a4,0
    50201dd2:	4681                	li	a3,0
    50201dd4:	4601                	li	a2,0
    50201dd6:	4581                	li	a1,0
    50201dd8:	8782                	jr	a5

0000000050201dda <bios_logging>:
    50201dda:	520007b7          	lui	a5,0x52000
    50201dde:	f2878793          	addi	a5,a5,-216 # 51ffff28 <__BSS_END__+0x1df9e28>
    50201de2:	639c                	ld	a5,0(a5)
    50201de4:	4701                	li	a4,0
    50201de6:	4681                	li	a3,0
    50201de8:	4601                	li	a2,0
    50201dea:	4581                	li	a1,0
    50201dec:	8782                	jr	a5

0000000050201dee <_output_wrapper>:
    50201dee:	1141                	addi	sp,sp,-16
    50201df0:	e406                	sd	ra,8(sp)
    50201df2:	909ff0ef          	jal	502016fa <screen_write>
    50201df6:	60a2                	ld	ra,8(sp)
    50201df8:	0141                	addi	sp,sp,16
    50201dfa:	b23d                	j	50201728 <screen_reflush>

0000000050201dfc <mini_itoa.part.0>:
    50201dfc:	12055c63          	bgez	a0,50201f34 <mini_itoa.part.0+0x138>
    50201e00:	03f69313          	slli	t1,a3,0x3f
    50201e04:	03f35893          	srli	a7,t1,0x3f
    50201e08:	12089663          	bnez	a7,50201f34 <mini_itoa.part.0+0x138>
    50201e0c:	40a00533          	neg	a0,a0
    50201e10:	4f05                	li	t5,1
    50201e12:	0016f893          	andi	a7,a3,1
    50201e16:	06100e93          	li	t4,97
    50201e1a:	00088463          	beqz	a7,50201e22 <mini_itoa.part.0+0x26>
    50201e1e:	04100e93          	li	t4,65
    50201e22:	1582                	slli	a1,a1,0x20
    50201e24:	3ed9                	addiw	t4,t4,-10
    50201e26:	00170893          	addi	a7,a4,1
    50201e2a:	9181                	srli	a1,a1,0x20
    50201e2c:	4fa5                	li	t6,9
    50201e2e:	4e25                	li	t3,9
    50201e30:	ce81                	beqz	a3,50201e48 <mini_itoa.part.0+0x4c>
    50201e32:	a85d                	j	50201ee8 <mini_itoa.part.0+0xec>
    50201e34:	01d68fbb          	addw	t6,a3,t4
    50201e38:	ea65                	bnez	a2,50201f28 <mini_itoa.part.0+0x12c>
    50201e3a:	4341                	li	t1,16
    50201e3c:	02654533          	div	a0,a0,t1
    50201e40:	fff88fa3          	sb	t6,-1(a7)
    50201e44:	cd11                	beqz	a0,50201e60 <mini_itoa.part.0+0x64>
    50201e46:	0885                	addi	a7,a7,1
    50201e48:	02b566b3          	rem	a3,a0,a1
    50201e4c:	832e                	mv	t1,a1
    50201e4e:	fede43e3          	blt	t3,a3,50201e34 <mini_itoa.part.0+0x38>
    50201e52:	0306869b          	addiw	a3,a3,48
    50201e56:	fed88fa3          	sb	a3,-1(a7)
    50201e5a:	02654533          	div	a0,a0,t1
    50201e5e:	f565                	bnez	a0,50201e46 <mini_itoa.part.0+0x4a>
    50201e60:	40e886bb          	subw	a3,a7,a4
    50201e64:	02f6f263          	bgeu	a3,a5,50201e88 <mini_itoa.part.0+0x8c>
    50201e68:	fff7861b          	addiw	a2,a5,-1
    50201e6c:	9e15                	subw	a2,a2,a3
    50201e6e:	1602                	slli	a2,a2,0x20
    50201e70:	9201                	srli	a2,a2,0x20
    50201e72:	00160693          	addi	a3,a2,1
    50201e76:	87c6                	mv	a5,a7
    50201e78:	96c6                	add	a3,a3,a7
    50201e7a:	0785                	addi	a5,a5,1
    50201e7c:	ff078fa3          	sb	a6,-1(a5)
    50201e80:	fed79de3          	bne	a5,a3,50201e7a <mini_itoa.part.0+0x7e>
    50201e84:	0885                	addi	a7,a7,1
    50201e86:	98b2                	add	a7,a7,a2
    50201e88:	000f0763          	beqz	t5,50201e96 <mini_itoa.part.0+0x9a>
    50201e8c:	02d00793          	li	a5,45
    50201e90:	00f88023          	sb	a5,0(a7)
    50201e94:	0885                	addi	a7,a7,1
    50201e96:	40e8853b          	subw	a0,a7,a4
    50201e9a:	00088023          	sb	zero,0(a7)
    50201e9e:	0015589b          	srliw	a7,a0,0x1
    50201ea2:	08088863          	beqz	a7,50201f32 <mini_itoa.part.0+0x136>
    50201ea6:	fff7081b          	addiw	a6,a4,-1
    50201eaa:	98ba                	add	a7,a7,a4
    50201eac:	00a8083b          	addw	a6,a6,a0
    50201eb0:	86ba                	mv	a3,a4
    50201eb2:	40d807bb          	subw	a5,a6,a3
    50201eb6:	1782                	slli	a5,a5,0x20
    50201eb8:	9381                	srli	a5,a5,0x20
    50201eba:	97ba                	add	a5,a5,a4
    50201ebc:	0007c583          	lbu	a1,0(a5)
    50201ec0:	0006c603          	lbu	a2,0(a3)
    50201ec4:	0685                	addi	a3,a3,1
    50201ec6:	feb68fa3          	sb	a1,-1(a3)
    50201eca:	00c78023          	sb	a2,0(a5)
    50201ece:	fed892e3          	bne	a7,a3,50201eb2 <mini_itoa.part.0+0xb6>
    50201ed2:	8082                	ret
    50201ed4:	4e41                	li	t3,16
    50201ed6:	0306869b          	addiw	a3,a3,48
    50201eda:	fed88fa3          	sb	a3,-1(a7)
    50201ede:	f9c361e3          	bltu	t1,t3,50201e60 <mini_itoa.part.0+0x64>
    50201ee2:	03c35533          	divu	a0,t1,t3
    50201ee6:	0885                	addi	a7,a7,1
    50201ee8:	832a                	mv	t1,a0
    50201eea:	8e2e                	mv	t3,a1
    50201eec:	02b576b3          	remu	a3,a0,a1
    50201ef0:	fedff3e3          	bgeu	t6,a3,50201ed6 <mini_itoa.part.0+0xda>
    50201ef4:	c605                	beqz	a2,50201f1c <mini_itoa.part.0+0x120>
    50201ef6:	01d686bb          	addw	a3,a3,t4
    50201efa:	fed88fa3          	sb	a3,-1(a7)
    50201efe:	00455313          	srli	t1,a0,0x4
    50201f02:	00f37693          	andi	a3,t1,15
    50201f06:	f4030de3          	beqz	t1,50201e60 <mini_itoa.part.0+0x64>
    50201f0a:	0885                	addi	a7,a7,1
    50201f0c:	fcdff4e3          	bgeu	t6,a3,50201ed4 <mini_itoa.part.0+0xd8>
    50201f10:	01d686bb          	addw	a3,a3,t4
    50201f14:	fed88fa3          	sb	a3,-1(a7)
    50201f18:	851a                	mv	a0,t1
    50201f1a:	b7d5                	j	50201efe <mini_itoa.part.0+0x102>
    50201f1c:	0576869b          	addiw	a3,a3,87
    50201f20:	fed88fa3          	sb	a3,-1(a7)
    50201f24:	4e41                	li	t3,16
    50201f26:	bf65                	j	50201ede <mini_itoa.part.0+0xe2>
    50201f28:	0376869b          	addiw	a3,a3,55
    50201f2c:	fed88fa3          	sb	a3,-1(a7)
    50201f30:	b72d                	j	50201e5a <mini_itoa.part.0+0x5e>
    50201f32:	8082                	ret
    50201f34:	4f01                	li	t5,0
    50201f36:	bdf1                	j	50201e12 <mini_itoa.part.0+0x16>

0000000050201f38 <_vprint>:
    50201f38:	7125                	addi	sp,sp,-416
    50201f3a:	fece                	sd	s3,376(sp)
    50201f3c:	ef06                	sd	ra,408(sp)
    50201f3e:	fad2                	sd	s4,368(sp)
    50201f40:	f6d6                	sd	s5,360(sp)
    50201f42:	00054783          	lbu	a5,0(a0)
    50201f46:	89b2                	mv	s3,a2
    50201f48:	38078363          	beqz	a5,502022ce <_vprint+0x396>
    50201f4c:	03010a13          	addi	s4,sp,48
    50201f50:	eb22                	sd	s0,400(sp)
    50201f52:	e726                	sd	s1,392(sp)
    50201f54:	f2da                	sd	s6,352(sp)
    50201f56:	eede                	sd	s7,344(sp)
    50201f58:	eae2                	sd	s8,336(sp)
    50201f5a:	e6e6                	sd	s9,328(sp)
    50201f5c:	e2ea                	sd	s10,320(sp)
    50201f5e:	fe6e                	sd	s11,312(sp)
    50201f60:	e34a                	sd	s2,384(sp)
    50201f62:	842a                	mv	s0,a0
    50201f64:	84d2                	mv	s1,s4
    50201f66:	00150613          	addi	a2,a0,1
    50201f6a:	0ff00b13          	li	s6,255
    50201f6e:	02500b93          	li	s7,37
    50201f72:	4ca5                	li	s9,9
    50201f74:	02000d13          	li	s10,32
    50201f78:	00001c17          	auipc	s8,0x1
    50201f7c:	a70c0c13          	addi	s8,s8,-1424 # 502029e8 <__FUNCTION__.0+0x10>
    50201f80:	06c00d93          	li	s11,108
    50201f84:	a005                	j	50201fa4 <_vprint+0x6c>
    50201f86:	00148713          	addi	a4,s1,1
    50201f8a:	00f48023          	sb	a5,0(s1)
    50201f8e:	000480a3          	sb	zero,1(s1)
    50201f92:	8432                	mv	s0,a2
    50201f94:	41470933          	sub	s2,a4,s4
    50201f98:	84ba                	mv	s1,a4
    50201f9a:	00044783          	lbu	a5,0(s0)
    50201f9e:	00140613          	addi	a2,s0,1
    50201fa2:	c3cd                	beqz	a5,50202044 <_vprint+0x10c>
    50201fa4:	41448933          	sub	s2,s1,s4
    50201fa8:	0019071b          	addiw	a4,s2,1
    50201fac:	00090a9b          	sext.w	s5,s2
    50201fb0:	08eb6c63          	bltu	s6,a4,50202048 <_vprint+0x110>
    50201fb4:	fd7799e3          	bne	a5,s7,50201f86 <_vprint+0x4e>
    50201fb8:	00144683          	lbu	a3,1(s0)
    50201fbc:	fd06879b          	addiw	a5,a3,-48
    50201fc0:	0ff7f793          	zext.b	a5,a5
    50201fc4:	02fcf563          	bgeu	s9,a5,50201fee <_vprint+0xb6>
    50201fc8:	0409                	addi	s0,s0,2
    50201fca:	02000813          	li	a6,32
    50201fce:	4781                	li	a5,0
    50201fd0:	4601                	li	a2,0
    50201fd2:	07b68463          	beq	a3,s11,5020203a <_vprint+0x102>
    50201fd6:	caad                	beqz	a3,50202048 <_vprint+0x110>
    50201fd8:	fa86871b          	addiw	a4,a3,-88
    50201fdc:	0ff77713          	zext.b	a4,a4
    50201fe0:	08ed6a63          	bltu	s10,a4,50202074 <_vprint+0x13c>
    50201fe4:	070a                	slli	a4,a4,0x2
    50201fe6:	9762                	add	a4,a4,s8
    50201fe8:	4318                	lw	a4,0(a4)
    50201fea:	9762                	add	a4,a4,s8
    50201fec:	8702                	jr	a4
    50201fee:	03000793          	li	a5,48
    50201ff2:	02000813          	li	a6,32
    50201ff6:	00f69363          	bne	a3,a5,50201ffc <_vprint+0xc4>
    50201ffa:	8836                	mv	a6,a3
    50201ffc:	00064683          	lbu	a3,0(a2)
    50202000:	c6a1                	beqz	a3,50202048 <_vprint+0x110>
    50202002:	00160413          	addi	s0,a2,1
    50202006:	4781                	li	a5,0
    50202008:	4625                	li	a2,9
    5020200a:	a829                	j	50202024 <_vprint+0xec>
    5020200c:	0027971b          	slliw	a4,a5,0x2
    50202010:	9f3d                	addw	a4,a4,a5
    50202012:	0405                	addi	s0,s0,1
    50202014:	0017171b          	slliw	a4,a4,0x1
    50202018:	9f35                	addw	a4,a4,a3
    5020201a:	fff44683          	lbu	a3,-1(s0)
    5020201e:	fd07079b          	addiw	a5,a4,-48
    50202022:	c29d                	beqz	a3,50202048 <_vprint+0x110>
    50202024:	fd06871b          	addiw	a4,a3,-48
    50202028:	0ff77713          	zext.b	a4,a4
    5020202c:	fee670e3          	bgeu	a2,a4,5020200c <_vprint+0xd4>
    50202030:	06c00713          	li	a4,108
    50202034:	4601                	li	a2,0
    50202036:	fae691e3          	bne	a3,a4,50201fd8 <_vprint+0xa0>
    5020203a:	4605                	li	a2,1
    5020203c:	00044683          	lbu	a3,0(s0)
    50202040:	9432                	add	s0,s0,a2
    50202042:	bf51                	j	50201fd6 <_vprint+0x9e>
    50202044:	00090a9b          	sext.w	s5,s2
    50202048:	645a                	ld	s0,400(sp)
    5020204a:	64ba                	ld	s1,392(sp)
    5020204c:	691a                	ld	s2,384(sp)
    5020204e:	7b16                	ld	s6,352(sp)
    50202050:	6bf6                	ld	s7,344(sp)
    50202052:	6c56                	ld	s8,336(sp)
    50202054:	6cb6                	ld	s9,328(sp)
    50202056:	6d16                	ld	s10,320(sp)
    50202058:	7df2                	ld	s11,312(sp)
    5020205a:	002a87b3          	add	a5,s5,sp
    5020205e:	8552                	mv	a0,s4
    50202060:	02078823          	sb	zero,48(a5)
    50202064:	9982                	jalr	s3
    50202066:	60fa                	ld	ra,408(sp)
    50202068:	79f6                	ld	s3,376(sp)
    5020206a:	7a56                	ld	s4,368(sp)
    5020206c:	8556                	mv	a0,s5
    5020206e:	7ab6                	ld	s5,360(sp)
    50202070:	611d                	addi	sp,sp,416
    50202072:	8082                	ret
    50202074:	00148793          	addi	a5,s1,1
    50202078:	00d48023          	sb	a3,0(s1)
    5020207c:	000480a3          	sb	zero,1(s1)
    50202080:	41478933          	sub	s2,a5,s4
    50202084:	84be                	mv	s1,a5
    50202086:	bf11                	j	50201f9a <_vprint+0x62>
    50202088:	00858893          	addi	a7,a1,8
    5020208c:	1e061963          	bnez	a2,5020227e <_vprint+0x346>
    50202090:	0005e503          	lwu	a0,0(a1)
    50202094:	fa868693          	addi	a3,a3,-88
    50202098:	0838                	addi	a4,sp,24
    5020209a:	0016b613          	seqz	a2,a3
    5020209e:	45c1                	li	a1,16
    502020a0:	4685                	li	a3,1
    502020a2:	e446                	sd	a7,8(sp)
    502020a4:	e03a                	sd	a4,0(sp)
    502020a6:	d57ff0ef          	jal	50201dfc <mini_itoa.part.0>
    502020aa:	02051613          	slli	a2,a0,0x20
    502020ae:	10000793          	li	a5,256
    502020b2:	9201                	srli	a2,a2,0x20
    502020b4:	412787b3          	sub	a5,a5,s2
    502020b8:	6702                	ld	a4,0(sp)
    502020ba:	68a2                	ld	a7,8(sp)
    502020bc:	1af64e63          	blt	a2,a5,50202278 <_vprint+0x340>
    502020c0:	0ff00513          	li	a0,255
    502020c4:	4155053b          	subw	a0,a0,s5
    502020c8:	02051613          	slli	a2,a0,0x20
    502020cc:	9201                	srli	a2,a2,0x20
    502020ce:	963a                	add	a2,a2,a4
    502020d0:	87a6                	mv	a5,s1
    502020d2:	00074683          	lbu	a3,0(a4)
    502020d6:	0705                	addi	a4,a4,1
    502020d8:	0785                	addi	a5,a5,1
    502020da:	fed78fa3          	sb	a3,-1(a5)
    502020de:	fee61ae3          	bne	a2,a4,502020d2 <_vprint+0x19a>
    502020e2:	357d                	addiw	a0,a0,-1
    502020e4:	1502                	slli	a0,a0,0x20
    502020e6:	9101                	srli	a0,a0,0x20
    502020e8:	0485                	addi	s1,s1,1
    502020ea:	94aa                	add	s1,s1,a0
    502020ec:	41448933          	sub	s2,s1,s4
    502020f0:	00048023          	sb	zero,0(s1)
    502020f4:	85c6                	mv	a1,a7
    502020f6:	b555                	j	50201f9a <_vprint+0x62>
    502020f8:	00858893          	addi	a7,a1,8
    502020fc:	18061663          	bnez	a2,50202288 <_vprint+0x350>
    50202100:	0005e503          	lwu	a0,0(a1)
    50202104:	0838                	addi	a4,sp,24
    50202106:	4601                	li	a2,0
    50202108:	4685                	li	a3,1
    5020210a:	45a9                	li	a1,10
    5020210c:	e446                	sd	a7,8(sp)
    5020210e:	e03a                	sd	a4,0(sp)
    50202110:	cedff0ef          	jal	50201dfc <mini_itoa.part.0>
    50202114:	02051613          	slli	a2,a0,0x20
    50202118:	10000793          	li	a5,256
    5020211c:	9201                	srli	a2,a2,0x20
    5020211e:	412787b3          	sub	a5,a5,s2
    50202122:	6702                	ld	a4,0(sp)
    50202124:	68a2                	ld	a7,8(sp)
    50202126:	14f64e63          	blt	a2,a5,50202282 <_vprint+0x34a>
    5020212a:	0ff00513          	li	a0,255
    5020212e:	4155053b          	subw	a0,a0,s5
    50202132:	02051613          	slli	a2,a0,0x20
    50202136:	9201                	srli	a2,a2,0x20
    50202138:	963a                	add	a2,a2,a4
    5020213a:	87a6                	mv	a5,s1
    5020213c:	00074683          	lbu	a3,0(a4)
    50202140:	0705                	addi	a4,a4,1
    50202142:	0785                	addi	a5,a5,1
    50202144:	fed78fa3          	sb	a3,-1(a5)
    50202148:	fec71ae3          	bne	a4,a2,5020213c <_vprint+0x204>
    5020214c:	bf59                	j	502020e2 <_vprint+0x1aa>
    5020214e:	6198                	ld	a4,0(a1)
    50202150:	00858813          	addi	a6,a1,8
    50202154:	00074683          	lbu	a3,0(a4)
    50202158:	14068a63          	beqz	a3,502022ac <_vprint+0x374>
    5020215c:	4681                	li	a3,0
    5020215e:	2685                	addiw	a3,a3,1
    50202160:	02069613          	slli	a2,a3,0x20
    50202164:	9201                	srli	a2,a2,0x20
    50202166:	00c705b3          	add	a1,a4,a2
    5020216a:	0005c583          	lbu	a1,0(a1)
    5020216e:	f9e5                	bnez	a1,5020215e <_vprint+0x226>
    50202170:	10000593          	li	a1,256
    50202174:	412585b3          	sub	a1,a1,s2
    50202178:	10b64e63          	blt	a2,a1,50202294 <_vprint+0x35c>
    5020217c:	0ff00893          	li	a7,255
    50202180:	415888bb          	subw	a7,a7,s5
    50202184:	02089513          	slli	a0,a7,0x20
    50202188:	9101                	srli	a0,a0,0x20
    5020218a:	8626                	mv	a2,s1
    5020218c:	9526                	add	a0,a0,s1
    5020218e:	00074583          	lbu	a1,0(a4)
    50202192:	0605                	addi	a2,a2,1
    50202194:	0705                	addi	a4,a4,1
    50202196:	feb60fa3          	sb	a1,-1(a2)
    5020219a:	fea61ae3          	bne	a2,a0,5020218e <_vprint+0x256>
    5020219e:	38fd                	addiw	a7,a7,-1
    502021a0:	1882                	slli	a7,a7,0x20
    502021a2:	0208d893          	srli	a7,a7,0x20
    502021a6:	0485                	addi	s1,s1,1
    502021a8:	94c6                	add	s1,s1,a7
    502021aa:	00048023          	sb	zero,0(s1)
    502021ae:	85c2                	mv	a1,a6
    502021b0:	41448933          	sub	s2,s1,s4
    502021b4:	def6f3e3          	bgeu	a3,a5,50201f9a <_vprint+0x62>
    502021b8:	9f95                	subw	a5,a5,a3
    502021ba:	02079693          	slli	a3,a5,0x20
    502021be:	10000713          	li	a4,256
    502021c2:	9281                	srli	a3,a3,0x20
    502021c4:	41270733          	sub	a4,a4,s2
    502021c8:	00e6cf63          	blt	a3,a4,502021e6 <_vprint+0x2ae>
    502021cc:	00090a9b          	sext.w	s5,s2
    502021d0:	0ff00793          	li	a5,255
    502021d4:	02fa8963          	beq	s5,a5,50202206 <_vprint+0x2ce>
    502021d8:	0ff00793          	li	a5,255
    502021dc:	415787bb          	subw	a5,a5,s5
    502021e0:	02079693          	slli	a3,a5,0x20
    502021e4:	9281                	srli	a3,a3,0x20
    502021e6:	96a6                	add	a3,a3,s1
    502021e8:	8726                	mv	a4,s1
    502021ea:	02000613          	li	a2,32
    502021ee:	00c70023          	sb	a2,0(a4)
    502021f2:	0705                	addi	a4,a4,1
    502021f4:	fee69de3          	bne	a3,a4,502021ee <_vprint+0x2b6>
    502021f8:	37fd                	addiw	a5,a5,-1
    502021fa:	1782                	slli	a5,a5,0x20
    502021fc:	9381                	srli	a5,a5,0x20
    502021fe:	0485                	addi	s1,s1,1
    50202200:	94be                	add	s1,s1,a5
    50202202:	41448933          	sub	s2,s1,s4
    50202206:	00048023          	sb	zero,0(s1)
    5020220a:	85c2                	mv	a1,a6
    5020220c:	b379                	j	50201f9a <_vprint+0x62>
    5020220e:	00858893          	addi	a7,a1,8
    50202212:	ee3d                	bnez	a2,50202290 <_vprint+0x358>
    50202214:	4188                	lw	a0,0(a1)
    50202216:	0838                	addi	a4,sp,24
    50202218:	4601                	li	a2,0
    5020221a:	4681                	li	a3,0
    5020221c:	45a9                	li	a1,10
    5020221e:	e446                	sd	a7,8(sp)
    50202220:	e03a                	sd	a4,0(sp)
    50202222:	bdbff0ef          	jal	50201dfc <mini_itoa.part.0>
    50202226:	02051613          	slli	a2,a0,0x20
    5020222a:	10000793          	li	a5,256
    5020222e:	9201                	srli	a2,a2,0x20
    50202230:	412787b3          	sub	a5,a5,s2
    50202234:	6702                	ld	a4,0(sp)
    50202236:	68a2                	ld	a7,8(sp)
    50202238:	04f64a63          	blt	a2,a5,5020228c <_vprint+0x354>
    5020223c:	0ff00513          	li	a0,255
    50202240:	4155053b          	subw	a0,a0,s5
    50202244:	02051613          	slli	a2,a0,0x20
    50202248:	9201                	srli	a2,a2,0x20
    5020224a:	963a                	add	a2,a2,a4
    5020224c:	87a6                	mv	a5,s1
    5020224e:	00074683          	lbu	a3,0(a4)
    50202252:	0705                	addi	a4,a4,1
    50202254:	0785                	addi	a5,a5,1
    50202256:	fed78fa3          	sb	a3,-1(a5)
    5020225a:	fec71ae3          	bne	a4,a2,5020224e <_vprint+0x316>
    5020225e:	b551                	j	502020e2 <_vprint+0x1aa>
    50202260:	4198                	lw	a4,0(a1)
    50202262:	00148793          	addi	a5,s1,1
    50202266:	000480a3          	sb	zero,1(s1)
    5020226a:	00e48023          	sb	a4,0(s1)
    5020226e:	05a1                	addi	a1,a1,8
    50202270:	41478933          	sub	s2,a5,s4
    50202274:	84be                	mv	s1,a5
    50202276:	b315                	j	50201f9a <_vprint+0x62>
    50202278:	e4051be3          	bnez	a0,502020ce <_vprint+0x196>
    5020227c:	bd95                	j	502020f0 <_vprint+0x1b8>
    5020227e:	6188                	ld	a0,0(a1)
    50202280:	bd11                	j	50202094 <_vprint+0x15c>
    50202282:	ea051be3          	bnez	a0,50202138 <_vprint+0x200>
    50202286:	b5ad                	j	502020f0 <_vprint+0x1b8>
    50202288:	6188                	ld	a0,0(a1)
    5020228a:	bdad                	j	50202104 <_vprint+0x1cc>
    5020228c:	fd5d                	bnez	a0,5020224a <_vprint+0x312>
    5020228e:	b58d                	j	502020f0 <_vprint+0x1b8>
    50202290:	6188                	ld	a0,0(a1)
    50202292:	b751                	j	50202216 <_vprint+0x2de>
    50202294:	88b6                	mv	a7,a3
    50202296:	ee0697e3          	bnez	a3,50202184 <_vprint+0x24c>
    5020229a:	00048023          	sb	zero,0(s1)
    5020229e:	d7b5                	beqz	a5,5020220a <_vprint+0x2d2>
    502022a0:	02079693          	slli	a3,a5,0x20
    502022a4:	9281                	srli	a3,a3,0x20
    502022a6:	f4b6c0e3          	blt	a3,a1,502021e6 <_vprint+0x2ae>
    502022aa:	b73d                	j	502021d8 <_vprint+0x2a0>
    502022ac:	0ff00893          	li	a7,255
    502022b0:	0328c363          	blt	a7,s2,502022d6 <_vprint+0x39e>
    502022b4:	00048023          	sb	zero,0(s1)
    502022b8:	dba9                	beqz	a5,5020220a <_vprint+0x2d2>
    502022ba:	10000713          	li	a4,256
    502022be:	02079693          	slli	a3,a5,0x20
    502022c2:	41270733          	sub	a4,a4,s2
    502022c6:	9281                	srli	a3,a3,0x20
    502022c8:	f0e6cfe3          	blt	a3,a4,502021e6 <_vprint+0x2ae>
    502022cc:	b731                	j	502021d8 <_vprint+0x2a0>
    502022ce:	4a81                	li	s5,0
    502022d0:	03010a13          	addi	s4,sp,48
    502022d4:	b359                	j	5020205a <_vprint+0x122>
    502022d6:	415888bb          	subw	a7,a7,s5
    502022da:	4681                	li	a3,0
    502022dc:	b565                	j	50202184 <_vprint+0x24c>

00000000502022de <vprintk>:
    502022de:	00000617          	auipc	a2,0x0
    502022e2:	b1060613          	addi	a2,a2,-1264 # 50201dee <_output_wrapper>
    502022e6:	b989                	j	50201f38 <_vprint>

00000000502022e8 <printk>:
    502022e8:	711d                	addi	sp,sp,-96
    502022ea:	02810313          	addi	t1,sp,40
    502022ee:	f42e                	sd	a1,40(sp)
    502022f0:	f832                	sd	a2,48(sp)
    502022f2:	859a                	mv	a1,t1
    502022f4:	00000617          	auipc	a2,0x0
    502022f8:	afa60613          	addi	a2,a2,-1286 # 50201dee <_output_wrapper>
    502022fc:	ec06                	sd	ra,24(sp)
    502022fe:	fc36                	sd	a3,56(sp)
    50202300:	e0ba                	sd	a4,64(sp)
    50202302:	e4be                	sd	a5,72(sp)
    50202304:	e8c2                	sd	a6,80(sp)
    50202306:	ecc6                	sd	a7,88(sp)
    50202308:	e41a                	sd	t1,8(sp)
    5020230a:	c2fff0ef          	jal	50201f38 <_vprint>
    5020230e:	60e2                	ld	ra,24(sp)
    50202310:	6125                	addi	sp,sp,96
    50202312:	8082                	ret

0000000050202314 <printv>:
    50202314:	711d                	addi	sp,sp,-96
    50202316:	02810313          	addi	t1,sp,40
    5020231a:	f42e                	sd	a1,40(sp)
    5020231c:	f832                	sd	a2,48(sp)
    5020231e:	859a                	mv	a1,t1
    50202320:	00000617          	auipc	a2,0x0
    50202324:	aa660613          	addi	a2,a2,-1370 # 50201dc6 <bios_putstr>
    50202328:	ec06                	sd	ra,24(sp)
    5020232a:	fc36                	sd	a3,56(sp)
    5020232c:	e0ba                	sd	a4,64(sp)
    5020232e:	e4be                	sd	a5,72(sp)
    50202330:	e8c2                	sd	a6,80(sp)
    50202332:	ecc6                	sd	a7,88(sp)
    50202334:	e41a                	sd	t1,8(sp)
    50202336:	c03ff0ef          	jal	50201f38 <_vprint>
    5020233a:	60e2                	ld	ra,24(sp)
    5020233c:	6125                	addi	sp,sp,96
    5020233e:	8082                	ret

0000000050202340 <printl>:
    50202340:	711d                	addi	sp,sp,-96
    50202342:	02810313          	addi	t1,sp,40
    50202346:	f42e                	sd	a1,40(sp)
    50202348:	f832                	sd	a2,48(sp)
    5020234a:	859a                	mv	a1,t1
    5020234c:	00000617          	auipc	a2,0x0
    50202350:	a8e60613          	addi	a2,a2,-1394 # 50201dda <bios_logging>
    50202354:	ec06                	sd	ra,24(sp)
    50202356:	fc36                	sd	a3,56(sp)
    50202358:	e0ba                	sd	a4,64(sp)
    5020235a:	e4be                	sd	a5,72(sp)
    5020235c:	e8c2                	sd	a6,80(sp)
    5020235e:	ecc6                	sd	a7,88(sp)
    50202360:	e41a                	sd	t1,8(sp)
    50202362:	bd7ff0ef          	jal	50201f38 <_vprint>
    50202366:	60e2                	ld	ra,24(sp)
    50202368:	6125                	addi	sp,sp,96
    5020236a:	8082                	ret

000000005020236c <memcpy>:
    5020236c:	ce01                	beqz	a2,50202384 <memcpy+0x18>
    5020236e:	1602                	slli	a2,a2,0x20
    50202370:	9201                	srli	a2,a2,0x20
    50202372:	962a                	add	a2,a2,a0
    50202374:	0005c783          	lbu	a5,0(a1)
    50202378:	0505                	addi	a0,a0,1
    5020237a:	0585                	addi	a1,a1,1
    5020237c:	fef50fa3          	sb	a5,-1(a0)
    50202380:	fec51ae3          	bne	a0,a2,50202374 <memcpy+0x8>
    50202384:	8082                	ret

0000000050202386 <memset>:
    50202386:	ca09                	beqz	a2,50202398 <memset+0x12>
    50202388:	1602                	slli	a2,a2,0x20
    5020238a:	9201                	srli	a2,a2,0x20
    5020238c:	962a                	add	a2,a2,a0
    5020238e:	0505                	addi	a0,a0,1
    50202390:	feb50fa3          	sb	a1,-1(a0)
    50202394:	fec51de3          	bne	a0,a2,5020238e <memset+0x8>
    50202398:	8082                	ret

000000005020239a <bzero>:
    5020239a:	c989                	beqz	a1,502023ac <bzero+0x12>
    5020239c:	1582                	slli	a1,a1,0x20
    5020239e:	9181                	srli	a1,a1,0x20
    502023a0:	95aa                	add	a1,a1,a0
    502023a2:	0505                	addi	a0,a0,1
    502023a4:	fe050fa3          	sb	zero,-1(a0)
    502023a8:	feb51de3          	bne	a0,a1,502023a2 <bzero+0x8>
    502023ac:	8082                	ret

00000000502023ae <strlen>:
    502023ae:	00054783          	lbu	a5,0(a0)
    502023b2:	cb99                	beqz	a5,502023c8 <strlen+0x1a>
    502023b4:	00150793          	addi	a5,a0,1
    502023b8:	86be                	mv	a3,a5
    502023ba:	0007c703          	lbu	a4,0(a5)
    502023be:	0785                	addi	a5,a5,1
    502023c0:	ff65                	bnez	a4,502023b8 <strlen+0xa>
    502023c2:	40a6853b          	subw	a0,a3,a0
    502023c6:	8082                	ret
    502023c8:	4501                	li	a0,0
    502023ca:	8082                	ret

00000000502023cc <strcmp>:
    502023cc:	00054703          	lbu	a4,0(a0)
    502023d0:	eb01                	bnez	a4,502023e0 <strcmp+0x14>
    502023d2:	a025                	j	502023fa <strcmp+0x2e>
    502023d4:	00e79b63          	bne	a5,a4,502023ea <strcmp+0x1e>
    502023d8:	00054703          	lbu	a4,0(a0)
    502023dc:	cb11                	beqz	a4,502023f0 <strcmp+0x24>
    502023de:	0585                	addi	a1,a1,1
    502023e0:	0005c783          	lbu	a5,0(a1)
    502023e4:	0505                	addi	a0,a0,1
    502023e6:	f7fd                	bnez	a5,502023d4 <strcmp+0x8>
    502023e8:	2701                	sext.w	a4,a4
    502023ea:	40f7053b          	subw	a0,a4,a5
    502023ee:	8082                	ret
    502023f0:	0015c783          	lbu	a5,1(a1)
    502023f4:	40f7053b          	subw	a0,a4,a5
    502023f8:	8082                	ret
    502023fa:	0005c783          	lbu	a5,0(a1)
    502023fe:	b7f5                	j	502023ea <strcmp+0x1e>

0000000050202400 <strncmp>:
    50202400:	c21d                	beqz	a2,50202426 <strncmp+0x26>
    50202402:	1602                	slli	a2,a2,0x20
    50202404:	9201                	srli	a2,a2,0x20
    50202406:	962a                	add	a2,a2,a0
    50202408:	a031                	j	50202414 <strncmp+0x14>
    5020240a:	0585                	addi	a1,a1,1
    5020240c:	00e79f63          	bne	a5,a4,5020242a <strncmp+0x2a>
    50202410:	00c50b63          	beq	a0,a2,50202426 <strncmp+0x26>
    50202414:	00054783          	lbu	a5,0(a0)
    50202418:	0005c703          	lbu	a4,0(a1)
    5020241c:	0505                	addi	a0,a0,1
    5020241e:	f7f5                	bnez	a5,5020240a <strncmp+0xa>
    50202420:	4501                	li	a0,0
    50202422:	9d19                	subw	a0,a0,a4
    50202424:	8082                	ret
    50202426:	4501                	li	a0,0
    50202428:	8082                	ret
    5020242a:	0007851b          	sext.w	a0,a5
    5020242e:	9d19                	subw	a0,a0,a4
    50202430:	8082                	ret

0000000050202432 <strcpy>:
    50202432:	0005c783          	lbu	a5,0(a1)
    50202436:	872a                	mv	a4,a0
    50202438:	cb81                	beqz	a5,50202448 <strcpy+0x16>
    5020243a:	0585                	addi	a1,a1,1
    5020243c:	00f70023          	sb	a5,0(a4)
    50202440:	0005c783          	lbu	a5,0(a1)
    50202444:	0705                	addi	a4,a4,1
    50202446:	fbf5                	bnez	a5,5020243a <strcpy+0x8>
    50202448:	00070023          	sb	zero,0(a4)
    5020244c:	8082                	ret

000000005020244e <strncpy>:
    5020244e:	0005c683          	lbu	a3,0(a1)
    50202452:	88b2                	mv	a7,a2
    50202454:	87aa                	mv	a5,a0
    50202456:	c685                	beqz	a3,5020247e <strncpy+0x30>
    50202458:	fff6081b          	addiw	a6,a2,-1
    5020245c:	0105083b          	addw	a6,a0,a6
    50202460:	9e29                	addw	a2,a2,a0
    50202462:	a039                	j	50202470 <strncpy+0x22>
    50202464:	00d78023          	sb	a3,0(a5)
    50202468:	0005c683          	lbu	a3,0(a1)
    5020246c:	0785                	addi	a5,a5,1
    5020246e:	ca81                	beqz	a3,5020247e <strncpy+0x30>
    50202470:	40f6073b          	subw	a4,a2,a5
    50202474:	0585                	addi	a1,a1,1
    50202476:	40f808bb          	subw	a7,a6,a5
    5020247a:	fee045e3          	bgtz	a4,50202464 <strncpy+0x16>
    5020247e:	02089713          	slli	a4,a7,0x20
    50202482:	9301                	srli	a4,a4,0x20
    50202484:	973e                	add	a4,a4,a5
    50202486:	01105863          	blez	a7,50202496 <strncpy+0x48>
    5020248a:	0785                	addi	a5,a5,1
    5020248c:	fe078fa3          	sb	zero,-1(a5)
    50202490:	fef71de3          	bne	a4,a5,5020248a <strncpy+0x3c>
    50202494:	8082                	ret
    50202496:	8082                	ret

0000000050202498 <strcat>:
    50202498:	00054783          	lbu	a5,0(a0)
    5020249c:	c39d                	beqz	a5,502024c2 <strcat+0x2a>
    5020249e:	87aa                	mv	a5,a0
    502024a0:	0017c703          	lbu	a4,1(a5)
    502024a4:	0785                	addi	a5,a5,1
    502024a6:	ff6d                	bnez	a4,502024a0 <strcat+0x8>
    502024a8:	0005c703          	lbu	a4,0(a1)
    502024ac:	cb01                	beqz	a4,502024bc <strcat+0x24>
    502024ae:	0785                	addi	a5,a5,1
    502024b0:	0585                	addi	a1,a1,1
    502024b2:	fee78fa3          	sb	a4,-1(a5)
    502024b6:	0005c703          	lbu	a4,0(a1)
    502024ba:	fb75                	bnez	a4,502024ae <strcat+0x16>
    502024bc:	00078023          	sb	zero,0(a5)
    502024c0:	8082                	ret
    502024c2:	87aa                	mv	a5,a0
    502024c4:	bfcd                	j	502024b6 <strcat+0x1e>
