
build/main:     file format elf64-littleriscv


Disassembly of section .text:

0000000050201000 <_start>:
    50201000:	10401073          	csrw	sie,zero
    50201004:	14401073          	csrw	sip,zero
    50201008:	00000297          	auipc	t0,0x0
    5020100c:	71028293          	addi	t0,t0,1808 # 50201718 <buf>
    50201010:	00000317          	auipc	t1,0x0
    50201014:	74030313          	addi	t1,t1,1856 # 50201750 <tasks>

0000000050201018 <clear_bss>:
    50201018:	0002a023          	sw	zero,0(t0)
    5020101c:	0291                	addi	t0,t0,4
    5020101e:	fe62cde3          	blt	t0,t1,50201018 <clear_bss>

0000000050201022 <end_clear_bss>:
    50201022:	50500137          	lui	sp,0x50500
    50201026:	00c000ef          	jal	50201032 <main>

000000005020102a <loop>:
    5020102a:	10500073          	wfi
    5020102e:	bff5                	j	5020102a <loop>
    50201030:	0001                	nop

0000000050201032 <main>:
    50201032:	7119                	addi	sp,sp,-128
    50201034:	00000797          	auipc	a5,0x0
    50201038:	6e478793          	addi	a5,a5,1764 # 50201718 <buf>
    5020103c:	fc86                	sd	ra,120(sp)
    5020103e:	f8a2                	sd	s0,112(sp)
    50201040:	f4a6                	sd	s1,104(sp)
    50201042:	f0ca                	sd	s2,96(sp)
    50201044:	ecce                	sd	s3,88(sp)
    50201046:	e8d2                	sd	s4,80(sp)
    50201048:	e4d6                	sd	s5,72(sp)
    5020104a:	e0da                	sd	s6,64(sp)
    5020104c:	fc5e                	sd	s7,56(sp)
    5020104e:	873e                	mv	a4,a5
    50201050:	00000617          	auipc	a2,0x0
    50201054:	6fa60613          	addi	a2,a2,1786 # 5020174a <buf+0x32>
    50201058:	a019                	j	5020105e <main+0x2c>
    5020105a:	1ac70563          	beq	a4,a2,50201204 <main+0x1d2>
    5020105e:	00074683          	lbu	a3,0(a4)
    50201062:	0705                	addi	a4,a4,1
    50201064:	dafd                	beqz	a3,5020105a <main+0x28>
    50201066:	06600513          	li	a0,102
    5020106a:	520005b7          	lui	a1,0x52000
    5020106e:	00000e17          	auipc	t3,0x0
    50201072:	1c4e0e13          	addi	t3,t3,452 # 50201232 <port_write>
    50201076:	00000317          	auipc	t1,0x0
    5020107a:	1a830313          	addi	t1,t1,424 # 5020121e <port_write_ch>
    5020107e:	00000897          	auipc	a7,0x0
    50201082:	1c888893          	addi	a7,a7,456 # 50201246 <port_read_ch>
    50201086:	00000817          	auipc	a6,0x0
    5020108a:	1e280813          	addi	a6,a6,482 # 50201268 <sd_read>
    5020108e:	f1c5b023          	sd	t3,-256(a1) # 51ffff00 <tasks+0x1dfe7b0>
    50201092:	f065b423          	sd	t1,-248(a1)
    50201096:	f115b823          	sd	a7,-240(a1)
    5020109a:	f105bc23          	sd	a6,-232(a1)
    5020109e:	00000717          	auipc	a4,0x0
    502010a2:	41a70713          	addi	a4,a4,1050 # 502014b8 <strcat+0x96>
    502010a6:	00000697          	auipc	a3,0x0
    502010aa:	66e6a683          	lw	a3,1646(a3) # 50201714 <version>
    502010ae:	670c                	ld	a1,8(a4)
    502010b0:	6b10                	ld	a2,16(a4)
    502010b2:	00a10423          	sb	a0,8(sp) # 50500008 <tasks+0x2fe8b8>
    502010b6:	6308                	ld	a0,0(a4)
    502010b8:	00000717          	auipc	a4,0x0
    502010bc:	41875703          	lhu	a4,1048(a4) # 502014d0 <strcat+0xae>
    502010c0:	0306869b          	addiw	a3,a3,48
    502010c4:	e82a                	sd	a0,16(sp)
    502010c6:	ec2e                	sd	a1,24(sp)
    502010c8:	f032                	sd	a2,32(sp)
    502010ca:	02e11423          	sh	a4,40(sp)
    502010ce:	00d104a3          	sb	a3,9(sp)
    502010d2:	0818                	addi	a4,sp,16
    502010d4:	00000597          	auipc	a1,0x0
    502010d8:	65e58593          	addi	a1,a1,1630 # 50201732 <buf+0x1a>
    502010dc:	4501                	li	a0,0
    502010de:	05f00613          	li	a2,95
    502010e2:	00074683          	lbu	a3,0(a4)
    502010e6:	0705                	addi	a4,a4,1
    502010e8:	00d78023          	sb	a3,0(a5)
    502010ec:	00c69963          	bne	a3,a2,502010fe <main+0xcc>
    502010f0:	002506b3          	add	a3,a0,sp
    502010f4:	0086c683          	lbu	a3,8(a3)
    502010f8:	2505                	addiw	a0,a0,1
    502010fa:	00d78023          	sb	a3,0(a5)
    502010fe:	0785                	addi	a5,a5,1
    50201100:	fef591e3          	bne	a1,a5,502010e2 <main+0xb0>
    50201104:	00000517          	auipc	a0,0x0
    50201108:	34c50513          	addi	a0,a0,844 # 50201450 <strcat+0x2e>
    5020110c:	0fe000ef          	jal	5020120a <bios_putstr>
    50201110:	00000517          	auipc	a0,0x0
    50201114:	60850513          	addi	a0,a0,1544 # 50201718 <buf>
    50201118:	52000937          	lui	s2,0x52000
    5020111c:	52000a37          	lui	s4,0x52000
    50201120:	52000b37          	lui	s6,0x52000
    50201124:	0e6000ef          	jal	5020120a <bios_putstr>
    50201128:	f1090913          	addi	s2,s2,-240 # 51ffff10 <tasks+0x1dfe7c0>
    5020112c:	f00a0a13          	addi	s4,s4,-256 # 51ffff00 <tasks+0x1dfe7b0>
    50201130:	f08b0b13          	addi	s6,s6,-248 # 51ffff08 <tasks+0x1dfe7b8>
    50201134:	4b81                	li	s7,0
    50201136:	59fd                	li	s3,-1
    50201138:	4abd                	li	s5,15
    5020113a:	00093783          	ld	a5,0(s2)
    5020113e:	4701                	li	a4,0
    50201140:	4681                	li	a3,0
    50201142:	4601                	li	a2,0
    50201144:	4581                	li	a1,0
    50201146:	4501                	li	a0,0
    50201148:	9782                	jalr	a5
    5020114a:	0005041b          	sext.w	s0,a0
    5020114e:	84aa                	mv	s1,a0
    50201150:	ff3405e3          	beq	s0,s3,5020113a <main+0x108>
    50201154:	ff340793          	addi	a5,s0,-13
    50201158:	4701                	li	a4,0
    5020115a:	4681                	li	a3,0
    5020115c:	4601                	li	a2,0
    5020115e:	4581                	li	a1,0
    50201160:	00000517          	auipc	a0,0x0
    50201164:	30050513          	addi	a0,a0,768 # 50201460 <strcat+0x3e>
    50201168:	ff640813          	addi	a6,s0,-10
    5020116c:	cb9d                	beqz	a5,502011a2 <main+0x170>
    5020116e:	02080a63          	beqz	a6,502011a2 <main+0x170>
    50201172:	000b3783          	ld	a5,0(s6)
    50201176:	4701                	li	a4,0
    50201178:	8522                	mv	a0,s0
    5020117a:	4681                	li	a3,0
    5020117c:	4601                	li	a2,0
    5020117e:	4581                	li	a1,0
    50201180:	9782                	jalr	a5
    50201182:	002b979b          	slliw	a5,s7,0x2
    50201186:	017787bb          	addw	a5,a5,s7
    5020118a:	fd04849b          	addiw	s1,s1,-48
    5020118e:	4725                	li	a4,9
    50201190:	0017979b          	slliw	a5,a5,0x1
    50201194:	fd04041b          	addiw	s0,s0,-48
    50201198:	02976e63          	bltu	a4,s1,502011d4 <main+0x1a2>
    5020119c:	00f40bbb          	addw	s7,s0,a5
    502011a0:	bf69                	j	5020113a <main+0x108>
    502011a2:	000a3783          	ld	a5,0(s4)
    502011a6:	9782                	jalr	a5
    502011a8:	855e                	mv	a0,s7
    502011aa:	3bfd                	addiw	s7,s7,-1
    502011ac:	017ae763          	bltu	s5,s7,502011ba <main+0x188>
    502011b0:	108000ef          	jal	502012b8 <load_task_img>
    502011b4:	9502                	jalr	a0
    502011b6:	4b81                	li	s7,0
    502011b8:	b749                	j	5020113a <main+0x108>
    502011ba:	000a3783          	ld	a5,0(s4)
    502011be:	4701                	li	a4,0
    502011c0:	4681                	li	a3,0
    502011c2:	4601                	li	a2,0
    502011c4:	4581                	li	a1,0
    502011c6:	00000517          	auipc	a0,0x0
    502011ca:	2a250513          	addi	a0,a0,674 # 50201468 <strcat+0x46>
    502011ce:	9782                	jalr	a5
    502011d0:	4b81                	li	s7,0
    502011d2:	b7a5                	j	5020113a <main+0x108>
    502011d4:	000a3783          	ld	a5,0(s4)
    502011d8:	4701                	li	a4,0
    502011da:	4681                	li	a3,0
    502011dc:	4601                	li	a2,0
    502011de:	4581                	li	a1,0
    502011e0:	00000517          	auipc	a0,0x0
    502011e4:	28050513          	addi	a0,a0,640 # 50201460 <strcat+0x3e>
    502011e8:	9782                	jalr	a5
    502011ea:	000a3783          	ld	a5,0(s4)
    502011ee:	4701                	li	a4,0
    502011f0:	4681                	li	a3,0
    502011f2:	4601                	li	a2,0
    502011f4:	4581                	li	a1,0
    502011f6:	00000517          	auipc	a0,0x0
    502011fa:	28a50513          	addi	a0,a0,650 # 50201480 <strcat+0x5e>
    502011fe:	9782                	jalr	a5
    50201200:	4b81                	li	s7,0
    50201202:	bf25                	j	5020113a <main+0x108>
    50201204:	07400513          	li	a0,116
    50201208:	b58d                	j	5020106a <main+0x38>

000000005020120a <bios_putstr>:
    5020120a:	520007b7          	lui	a5,0x52000
    5020120e:	f0078793          	addi	a5,a5,-256 # 51ffff00 <tasks+0x1dfe7b0>
    50201212:	639c                	ld	a5,0(a5)
    50201214:	4701                	li	a4,0
    50201216:	4681                	li	a3,0
    50201218:	4601                	li	a2,0
    5020121a:	4581                	li	a1,0
    5020121c:	8782                	jr	a5

000000005020121e <port_write_ch>:
    5020121e:	50150337          	lui	t1,0x50150
    50201222:	4885                	li	a7,1
    50201224:	4801                	li	a6,0
    50201226:	4781                	li	a5,0
    50201228:	4701                	li	a4,0
    5020122a:	4681                	li	a3,0
    5020122c:	4601                	li	a2,0
    5020122e:	4581                	li	a1,0
    50201230:	8302                	jr	t1

0000000050201232 <port_write>:
    50201232:	50150337          	lui	t1,0x50150
    50201236:	48a5                	li	a7,9
    50201238:	4801                	li	a6,0
    5020123a:	4781                	li	a5,0
    5020123c:	4701                	li	a4,0
    5020123e:	4681                	li	a3,0
    50201240:	4601                	li	a2,0
    50201242:	4581                	li	a1,0
    50201244:	8302                	jr	t1

0000000050201246 <port_read_ch>:
    50201246:	1141                	addi	sp,sp,-16
    50201248:	e406                	sd	ra,8(sp)
    5020124a:	50150337          	lui	t1,0x50150
    5020124e:	4889                	li	a7,2
    50201250:	4801                	li	a6,0
    50201252:	4781                	li	a5,0
    50201254:	4701                	li	a4,0
    50201256:	4681                	li	a3,0
    50201258:	4601                	li	a2,0
    5020125a:	4581                	li	a1,0
    5020125c:	4501                	li	a0,0
    5020125e:	9302                	jalr	t1
    50201260:	60a2                	ld	ra,8(sp)
    50201262:	2501                	sext.w	a0,a0
    50201264:	0141                	addi	sp,sp,16
    50201266:	8082                	ret

0000000050201268 <sd_read>:
    50201268:	1141                	addi	sp,sp,-16
    5020126a:	1502                	slli	a0,a0,0x20
    5020126c:	1582                	slli	a1,a1,0x20
    5020126e:	1602                	slli	a2,a2,0x20
    50201270:	e406                	sd	ra,8(sp)
    50201272:	9101                	srli	a0,a0,0x20
    50201274:	9181                	srli	a1,a1,0x20
    50201276:	9201                	srli	a2,a2,0x20
    50201278:	50150337          	lui	t1,0x50150
    5020127c:	48ad                	li	a7,11
    5020127e:	4801                	li	a6,0
    50201280:	4781                	li	a5,0
    50201282:	4701                	li	a4,0
    50201284:	4681                	li	a3,0
    50201286:	9302                	jalr	t1
    50201288:	60a2                	ld	ra,8(sp)
    5020128a:	2501                	sext.w	a0,a0
    5020128c:	0141                	addi	sp,sp,16
    5020128e:	8082                	ret

0000000050201290 <sd_write>:
    50201290:	1141                	addi	sp,sp,-16
    50201292:	1502                	slli	a0,a0,0x20
    50201294:	1582                	slli	a1,a1,0x20
    50201296:	1602                	slli	a2,a2,0x20
    50201298:	e406                	sd	ra,8(sp)
    5020129a:	9101                	srli	a0,a0,0x20
    5020129c:	9181                	srli	a1,a1,0x20
    5020129e:	9201                	srli	a2,a2,0x20
    502012a0:	50150337          	lui	t1,0x50150
    502012a4:	48a9                	li	a7,10
    502012a6:	4801                	li	a6,0
    502012a8:	4781                	li	a5,0
    502012aa:	4701                	li	a4,0
    502012ac:	4681                	li	a3,0
    502012ae:	9302                	jalr	t1
    502012b0:	60a2                	ld	ra,8(sp)
    502012b2:	2501                	sext.w	a0,a0
    502012b4:	0141                	addi	sp,sp,16
    502012b6:	8082                	ret

00000000502012b8 <load_task_img>:
    502012b8:	1141                	addi	sp,sp,-16
    502012ba:	e022                	sd	s0,0(sp)
    502012bc:	51ff07b7          	lui	a5,0x51ff0
    502012c0:	01051413          	slli	s0,a0,0x10
    502012c4:	9c3d                	addw	s0,s0,a5
    502012c6:	0045161b          	slliw	a2,a0,0x4
    502012ca:	520007b7          	lui	a5,0x52000
    502012ce:	9e09                	subw	a2,a2,a0
    502012d0:	f1878793          	addi	a5,a5,-232 # 51ffff18 <tasks+0x1dfe7c8>
    502012d4:	639c                	ld	a5,0(a5)
    502012d6:	2605                	addiw	a2,a2,1
    502012d8:	02041513          	slli	a0,s0,0x20
    502012dc:	1602                	slli	a2,a2,0x20
    502012de:	e406                	sd	ra,8(sp)
    502012e0:	9101                	srli	a0,a0,0x20
    502012e2:	9201                	srli	a2,a2,0x20
    502012e4:	4701                	li	a4,0
    502012e6:	4681                	li	a3,0
    502012e8:	45bd                	li	a1,15
    502012ea:	9782                	jalr	a5
    502012ec:	60a2                	ld	ra,8(sp)
    502012ee:	8522                	mv	a0,s0
    502012f0:	6402                	ld	s0,0(sp)
    502012f2:	0141                	addi	sp,sp,16
    502012f4:	8082                	ret

00000000502012f6 <memcpy>:
    502012f6:	ce01                	beqz	a2,5020130e <memcpy+0x18>
    502012f8:	1602                	slli	a2,a2,0x20
    502012fa:	9201                	srli	a2,a2,0x20
    502012fc:	962a                	add	a2,a2,a0
    502012fe:	0005c783          	lbu	a5,0(a1)
    50201302:	0505                	addi	a0,a0,1
    50201304:	0585                	addi	a1,a1,1
    50201306:	fef50fa3          	sb	a5,-1(a0)
    5020130a:	fec51ae3          	bne	a0,a2,502012fe <memcpy+0x8>
    5020130e:	8082                	ret

0000000050201310 <memset>:
    50201310:	ca09                	beqz	a2,50201322 <memset+0x12>
    50201312:	1602                	slli	a2,a2,0x20
    50201314:	9201                	srli	a2,a2,0x20
    50201316:	962a                	add	a2,a2,a0
    50201318:	0505                	addi	a0,a0,1
    5020131a:	feb50fa3          	sb	a1,-1(a0)
    5020131e:	fec51de3          	bne	a0,a2,50201318 <memset+0x8>
    50201322:	8082                	ret

0000000050201324 <bzero>:
    50201324:	c989                	beqz	a1,50201336 <bzero+0x12>
    50201326:	1582                	slli	a1,a1,0x20
    50201328:	9181                	srli	a1,a1,0x20
    5020132a:	95aa                	add	a1,a1,a0
    5020132c:	0505                	addi	a0,a0,1
    5020132e:	fe050fa3          	sb	zero,-1(a0)
    50201332:	feb51de3          	bne	a0,a1,5020132c <bzero+0x8>
    50201336:	8082                	ret

0000000050201338 <strlen>:
    50201338:	00054783          	lbu	a5,0(a0)
    5020133c:	cb99                	beqz	a5,50201352 <strlen+0x1a>
    5020133e:	00150793          	addi	a5,a0,1
    50201342:	86be                	mv	a3,a5
    50201344:	0007c703          	lbu	a4,0(a5)
    50201348:	0785                	addi	a5,a5,1
    5020134a:	ff65                	bnez	a4,50201342 <strlen+0xa>
    5020134c:	40a6853b          	subw	a0,a3,a0
    50201350:	8082                	ret
    50201352:	4501                	li	a0,0
    50201354:	8082                	ret

0000000050201356 <strcmp>:
    50201356:	00054703          	lbu	a4,0(a0)
    5020135a:	eb01                	bnez	a4,5020136a <strcmp+0x14>
    5020135c:	a025                	j	50201384 <strcmp+0x2e>
    5020135e:	00e79b63          	bne	a5,a4,50201374 <strcmp+0x1e>
    50201362:	00054703          	lbu	a4,0(a0)
    50201366:	cb11                	beqz	a4,5020137a <strcmp+0x24>
    50201368:	0585                	addi	a1,a1,1
    5020136a:	0005c783          	lbu	a5,0(a1)
    5020136e:	0505                	addi	a0,a0,1
    50201370:	f7fd                	bnez	a5,5020135e <strcmp+0x8>
    50201372:	2701                	sext.w	a4,a4
    50201374:	40f7053b          	subw	a0,a4,a5
    50201378:	8082                	ret
    5020137a:	0015c783          	lbu	a5,1(a1)
    5020137e:	40f7053b          	subw	a0,a4,a5
    50201382:	8082                	ret
    50201384:	0005c783          	lbu	a5,0(a1)
    50201388:	b7f5                	j	50201374 <strcmp+0x1e>

000000005020138a <strncmp>:
    5020138a:	c21d                	beqz	a2,502013b0 <strncmp+0x26>
    5020138c:	1602                	slli	a2,a2,0x20
    5020138e:	9201                	srli	a2,a2,0x20
    50201390:	962a                	add	a2,a2,a0
    50201392:	a031                	j	5020139e <strncmp+0x14>
    50201394:	0585                	addi	a1,a1,1
    50201396:	00e79f63          	bne	a5,a4,502013b4 <strncmp+0x2a>
    5020139a:	00c50b63          	beq	a0,a2,502013b0 <strncmp+0x26>
    5020139e:	00054783          	lbu	a5,0(a0)
    502013a2:	0005c703          	lbu	a4,0(a1)
    502013a6:	0505                	addi	a0,a0,1
    502013a8:	f7f5                	bnez	a5,50201394 <strncmp+0xa>
    502013aa:	4501                	li	a0,0
    502013ac:	9d19                	subw	a0,a0,a4
    502013ae:	8082                	ret
    502013b0:	4501                	li	a0,0
    502013b2:	8082                	ret
    502013b4:	0007851b          	sext.w	a0,a5
    502013b8:	9d19                	subw	a0,a0,a4
    502013ba:	8082                	ret

00000000502013bc <strcpy>:
    502013bc:	0005c783          	lbu	a5,0(a1)
    502013c0:	872a                	mv	a4,a0
    502013c2:	cb81                	beqz	a5,502013d2 <strcpy+0x16>
    502013c4:	0585                	addi	a1,a1,1
    502013c6:	00f70023          	sb	a5,0(a4)
    502013ca:	0005c783          	lbu	a5,0(a1)
    502013ce:	0705                	addi	a4,a4,1
    502013d0:	fbf5                	bnez	a5,502013c4 <strcpy+0x8>
    502013d2:	00070023          	sb	zero,0(a4)
    502013d6:	8082                	ret

00000000502013d8 <strncpy>:
    502013d8:	0005c683          	lbu	a3,0(a1)
    502013dc:	88b2                	mv	a7,a2
    502013de:	87aa                	mv	a5,a0
    502013e0:	c685                	beqz	a3,50201408 <strncpy+0x30>
    502013e2:	fff6081b          	addiw	a6,a2,-1
    502013e6:	0105083b          	addw	a6,a0,a6
    502013ea:	9e29                	addw	a2,a2,a0
    502013ec:	a039                	j	502013fa <strncpy+0x22>
    502013ee:	00d78023          	sb	a3,0(a5)
    502013f2:	0005c683          	lbu	a3,0(a1)
    502013f6:	0785                	addi	a5,a5,1
    502013f8:	ca81                	beqz	a3,50201408 <strncpy+0x30>
    502013fa:	40f6073b          	subw	a4,a2,a5
    502013fe:	0585                	addi	a1,a1,1
    50201400:	40f808bb          	subw	a7,a6,a5
    50201404:	fee045e3          	bgtz	a4,502013ee <strncpy+0x16>
    50201408:	02089713          	slli	a4,a7,0x20
    5020140c:	9301                	srli	a4,a4,0x20
    5020140e:	973e                	add	a4,a4,a5
    50201410:	01105863          	blez	a7,50201420 <strncpy+0x48>
    50201414:	0785                	addi	a5,a5,1
    50201416:	fe078fa3          	sb	zero,-1(a5)
    5020141a:	fef71de3          	bne	a4,a5,50201414 <strncpy+0x3c>
    5020141e:	8082                	ret
    50201420:	8082                	ret

0000000050201422 <strcat>:
    50201422:	00054783          	lbu	a5,0(a0)
    50201426:	c39d                	beqz	a5,5020144c <strcat+0x2a>
    50201428:	87aa                	mv	a5,a0
    5020142a:	0017c703          	lbu	a4,1(a5)
    5020142e:	0785                	addi	a5,a5,1
    50201430:	ff6d                	bnez	a4,5020142a <strcat+0x8>
    50201432:	0005c703          	lbu	a4,0(a1)
    50201436:	cb01                	beqz	a4,50201446 <strcat+0x24>
    50201438:	0785                	addi	a5,a5,1
    5020143a:	0585                	addi	a1,a1,1
    5020143c:	fee78fa3          	sb	a4,-1(a5)
    50201440:	0005c703          	lbu	a4,0(a1)
    50201444:	fb75                	bnez	a4,50201438 <strcat+0x16>
    50201446:	00078023          	sb	zero,0(a5)
    5020144a:	8082                	ret
    5020144c:	87aa                	mv	a5,a0
    5020144e:	bfcd                	j	50201440 <strcat+0x1e>
