
build/main:     file format elf64-littleriscv


Disassembly of section .text:

0000000050201000 <_start>:
    50201000:	10401073          	csrw	sie,zero
    50201004:	14401073          	csrw	sip,zero
    50201008:	00003297          	auipc	t0,0x3
    5020100c:	b2428293          	addi	t0,t0,-1244 # 50203b2c <__bss_start>
    50201010:	00006317          	auipc	t1,0x6
    50201014:	92030313          	addi	t1,t1,-1760 # 50206930 <__BSS_END__>

0000000050201018 <clear_bss>:
    50201018:	0002a023          	sw	zero,0(t0)
    5020101c:	0291                	addi	t0,t0,4
    5020101e:	fe62cde3          	blt	t0,t1,50201018 <clear_bss>

0000000050201022 <end_clear_bss>:
    50201022:	50500137          	lui	sp,0x50500
    50201026:	00c000ef          	jal	50201032 <main>

000000005020102a <loop>:
    5020102a:	10500073          	wfi
    5020102e:	bff5                	j	5020102a <loop>
    50201030:	0001                	nop

0000000050201032 <main>:
    50201032:	7151                	addi	sp,sp,-240
    50201034:	f1a2                	sd	s0,224(sp)
    50201036:	f586                	sd	ra,232(sp)
    50201038:	eda6                	sd	s1,216(sp)
    5020103a:	e9ca                	sd	s2,208(sp)
    5020103c:	e5ce                	sd	s3,200(sp)
    5020103e:	e1d2                	sd	s4,192(sp)
    50201040:	fd56                	sd	s5,184(sp)
    50201042:	f95a                	sd	s6,176(sp)
    50201044:	f55e                	sd	s7,168(sp)
    50201046:	f162                	sd	s8,160(sp)
    50201048:	ed66                	sd	s9,152(sp)
    5020104a:	e56e                	sd	s11,136(sp)
    5020104c:	520005b7          	lui	a1,0x52000
    50201050:	502007b7          	lui	a5,0x50200
    50201054:	00000297          	auipc	t0,0x0
    50201058:	7a428293          	addi	t0,t0,1956 # 502017f8 <port_write>
    5020105c:	1fe79703          	lh	a4,510(a5) # 502001fe <_start-0xe02>
    50201060:	f055b023          	sd	t0,-256(a1) # 51ffff00 <__BSS_END__+0x1df95d0>
    50201064:	00000297          	auipc	t0,0x0
    50201068:	78028293          	addi	t0,t0,1920 # 502017e4 <port_write_ch>
    5020106c:	f055b423          	sd	t0,-248(a1)
    50201070:	00000297          	auipc	t0,0x0
    50201074:	79c28293          	addi	t0,t0,1948 # 5020180c <port_read_ch>
    50201078:	f055b823          	sd	t0,-240(a1)
    5020107c:	00000297          	auipc	t0,0x0
    50201080:	7b228293          	addi	t0,t0,1970 # 5020182e <sd_read>
    50201084:	f055bc23          	sd	t0,-232(a1)
    50201088:	00001417          	auipc	s0,0x1
    5020108c:	89a40413          	addi	s0,s0,-1894 # 50201922 <screen_move_cursor>
    50201090:	00000297          	auipc	t0,0x0
    50201094:	7c628293          	addi	t0,t0,1990 # 50201856 <sd_write>
    50201098:	f255b023          	sd	t0,-224(a1)
    5020109c:	f485b023          	sd	s0,-192(a1)
    502010a0:	00271793          	slli	a5,a4,0x2
    502010a4:	00001297          	auipc	t0,0x1
    502010a8:	80628293          	addi	t0,t0,-2042 # 502018aa <qemu_logging>
    502010ac:	00001417          	auipc	s0,0x1
    502010b0:	1fe40413          	addi	s0,s0,510 # 502022aa <do_scheduler>
    502010b4:	f255b423          	sd	t0,-216(a1)
    502010b8:	f685b023          	sd	s0,-160(a1)
    502010bc:	97ba                	add	a5,a5,a4
    502010be:	00000297          	auipc	t0,0x0
    502010c2:	7c028293          	addi	t0,t0,1984 # 5020187e <set_timer>
    502010c6:	00000f97          	auipc	t6,0x0
    502010ca:	7ccf8f93          	addi	t6,t6,1996 # 50201892 <read_fdt>
    502010ce:	00002f17          	auipc	t5,0x2
    502010d2:	8a8f0f13          	addi	t5,t5,-1880 # 50202976 <printk>
    502010d6:	00001417          	auipc	s0,0x1
    502010da:	d2840413          	addi	s0,s0,-728 # 50201dfe <do_mutex_lock_init>
    502010de:	f685b423          	sd	s0,-152(a1)
    502010e2:	f255b823          	sd	t0,-208(a1)
    502010e6:	f3f5bc23          	sd	t6,-200(a1)
    502010ea:	f5e5bc23          	sd	t5,-168(a1)
    502010ee:	882e                	mv	a6,a1
    502010f0:	078e                	slli	a5,a5,0x3
    502010f2:	00001417          	auipc	s0,0x1
    502010f6:	d6440413          	addi	s0,s0,-668 # 50201e56 <do_mutex_lock_acquire>
    502010fa:	f6883823          	sd	s0,-144(a6)
    502010fe:	1f87f593          	andi	a1,a5,504
    50201102:	00001517          	auipc	a0,0x1
    50201106:	86450513          	addi	a0,a0,-1948 # 50201966 <screen_write>
    5020110a:	00001617          	auipc	a2,0x1
    5020110e:	88a60613          	addi	a2,a2,-1910 # 50201994 <screen_reflush>
    50201112:	00001417          	auipc	s0,0x1
    50201116:	d6640413          	addi	s0,s0,-666 # 50201e78 <do_mutex_lock_release>
    5020111a:	f4a83423          	sd	a0,-184(a6)
    5020111e:	f4c83823          	sd	a2,-176(a6)
    50201122:	f6883c23          	sd	s0,-136(a6)
    50201126:	83a5                	srli	a5,a5,0x9
    50201128:	00b035b3          	snez	a1,a1
    5020112c:	00003697          	auipc	a3,0x3
    50201130:	a0e6a223          	sw	a4,-1532(a3) # 50203b30 <tasknum>
    50201134:	9dbd                	addw	a1,a1,a5
    50201136:	502007b7          	lui	a5,0x50200
    5020113a:	1f87e603          	lwu	a2,504(a5) # 502001f8 <_start-0xe08>
    5020113e:	00003517          	auipc	a0,0x3
    50201142:	a1250513          	addi	a0,a0,-1518 # 50203b50 <tasks>
    50201146:	1582                	slli	a1,a1,0x20
    50201148:	1502                	slli	a0,a0,0x20
    5020114a:	4701                	li	a4,0
    5020114c:	9181                	srli	a1,a1,0x20
    5020114e:	9101                	srli	a0,a0,0x20
    50201150:	4681                	li	a3,0
    50201152:	6dc000ef          	jal	5020182e <sd_read>
    50201156:	00003797          	auipc	a5,0x3
    5020115a:	d8278793          	addi	a5,a5,-638 # 50203ed8 <buf>
    5020115e:	873e                	mv	a4,a5
    50201160:	00003617          	auipc	a2,0x3
    50201164:	daa60613          	addi	a2,a2,-598 # 50203f0a <buf+0x32>
    50201168:	a019                	j	5020116e <main+0x13c>
    5020116a:	36c70c63          	beq	a4,a2,502014e2 <main+0x4b0>
    5020116e:	00074683          	lbu	a3,0(a4)
    50201172:	0705                	addi	a4,a4,1
    50201174:	dafd                	beqz	a3,5020116a <main+0x138>
    50201176:	06600713          	li	a4,102
    5020117a:	00003697          	auipc	a3,0x3
    5020117e:	9966a683          	lw	a3,-1642(a3) # 50203b10 <version>
    50201182:	00e10423          	sb	a4,8(sp) # 50500008 <__BSS_END__+0x2f96d8>
    50201186:	00002717          	auipc	a4,0x2
    5020118a:	b7270713          	addi	a4,a4,-1166 # 50202cf8 <strcat+0x1d2>
    5020118e:	6308                	ld	a0,0(a4)
    50201190:	670c                	ld	a1,8(a4)
    50201192:	6b10                	ld	a2,16(a4)
    50201194:	00002717          	auipc	a4,0x2
    50201198:	b7c75703          	lhu	a4,-1156(a4) # 50202d10 <strcat+0x1ea>
    5020119c:	0306869b          	addiw	a3,a3,48
    502011a0:	e82a                	sd	a0,16(sp)
    502011a2:	ec2e                	sd	a1,24(sp)
    502011a4:	f032                	sd	a2,32(sp)
    502011a6:	02e11423          	sh	a4,40(sp)
    502011aa:	00d104a3          	sb	a3,9(sp)
    502011ae:	0818                	addi	a4,sp,16
    502011b0:	00003517          	auipc	a0,0x3
    502011b4:	d4250513          	addi	a0,a0,-702 # 50203ef2 <buf+0x1a>
    502011b8:	4601                	li	a2,0
    502011ba:	05f00593          	li	a1,95
    502011be:	00074683          	lbu	a3,0(a4)
    502011c2:	0705                	addi	a4,a4,1
    502011c4:	00d78023          	sb	a3,0(a5)
    502011c8:	00b69963          	bne	a3,a1,502011da <main+0x1a8>
    502011cc:	002606b3          	add	a3,a2,sp
    502011d0:	0086c683          	lbu	a3,8(a3)
    502011d4:	2605                	addiw	a2,a2,1
    502011d6:	00d78023          	sb	a3,0(a5)
    502011da:	0785                	addi	a5,a5,1
    502011dc:	fea791e3          	bne	a5,a0,502011be <main+0x18c>
    502011e0:	00002517          	auipc	a0,0x2
    502011e4:	9e050513          	addi	a0,a0,-1568 # 50202bc0 <strcat+0x9a>
    502011e8:	4ae000ef          	jal	50201696 <bios_putstr>
    502011ec:	00003517          	auipc	a0,0x3
    502011f0:	cec50513          	addi	a0,a0,-788 # 50203ed8 <buf>
    502011f4:	4a2000ef          	jal	50201696 <bios_putstr>
    502011f8:	00002797          	auipc	a5,0x2
    502011fc:	d2078793          	addi	a5,a5,-736 # 50202f18 <strcat+0x3f2>
    50201200:	6b98                	ld	a4,16(a5)
    50201202:	6390                	ld	a2,0(a5)
    50201204:	6794                	ld	a3,8(a5)
    50201206:	e0ba                	sd	a4,64(sp)
    50201208:	7798                	ld	a4,40(a5)
    5020120a:	f832                	sd	a2,48(sp)
    5020120c:	fc36                	sd	a3,56(sp)
    5020120e:	6f90                	ld	a2,24(a5)
    50201210:	7394                	ld	a3,32(a5)
    50201212:	ecba                	sd	a4,88(sp)
    50201214:	63b8                	ld	a4,64(a5)
    50201216:	e4b2                	sd	a2,72(sp)
    50201218:	e8b6                	sd	a3,80(sp)
    5020121a:	7b90                	ld	a2,48(a5)
    5020121c:	7f94                	ld	a3,56(a5)
    5020121e:	f8ba                	sd	a4,112(sp)
    50201220:	67b8                	ld	a4,72(a5)
    50201222:	4a05                	li	s4,1
    50201224:	020a1793          	slli	a5,s4,0x20
    50201228:	00003917          	auipc	s2,0x3
    5020122c:	88890913          	addi	s2,s2,-1912 # 50203ab0 <pid0_pcb>
    50201230:	8552                	mv	a0,s4
    50201232:	02f93023          	sd	a5,32(s2)
    50201236:	fcba                	sd	a4,120(sp)
    50201238:	f0b2                	sd	a2,96(sp)
    5020123a:	f4b6                	sd	a3,104(sp)
    5020123c:	46d000ef          	jal	50201ea8 <allocKernelPage>
    50201240:	ee050413          	addi	s0,a0,-288
    50201244:	84aa                	mv	s1,a0
    50201246:	12000613          	li	a2,288
    5020124a:	8522                	mv	a0,s0
    5020124c:	4581                	li	a1,0
    5020124e:	00993023          	sd	s1,0(s2)
    50201252:	00003797          	auipc	a5,0x3
    50201256:	8607b323          	sd	zero,-1946(a5) # 50203ab8 <pid0_pcb+0x8>
    5020125a:	00003797          	auipc	a5,0x3
    5020125e:	8607bf23          	sd	zero,-1922(a5) # 50203ad8 <pid0_pcb+0x28>
    50201262:	7b2010ef          	jal	50202a14 <memset>
    50201266:	e7048793          	addi	a5,s1,-400
    5020126a:	00003717          	auipc	a4,0x3
    5020126e:	84073723          	sd	zero,-1970(a4) # 50203ab8 <pid0_pcb+0x8>
    50201272:	02000b13          	li	s6,32
    50201276:	00f93023          	sd	a5,0(s2)
    5020127a:	00000a97          	auipc	s5,0x0
    5020127e:	31aa8a93          	addi	s5,s5,794 # 50201594 <ret_from_exception>
    50201282:	fe04b423          	sd	zero,-24(s1)
    50201286:	ee04b823          	sd	zero,-272(s1)
    5020128a:	f124b023          	sd	s2,-256(s1)
    5020128e:	ff64b023          	sd	s6,-32(s1)
    50201292:	e754b823          	sd	s5,-400(s1)
    50201296:	020a1993          	slli	s3,s4,0x20
    5020129a:	e79c                	sd	a5,8(a5)
    5020129c:	99d2                	add	s3,s3,s4
    5020129e:	1800                	addi	s0,sp,48
    502012a0:	00005c17          	auipc	s8,0x5
    502012a4:	e90c0c13          	addi	s8,s8,-368 # 50206130 <pcb>
    502012a8:	4481                	li	s1,0
    502012aa:	4b89                	li	s7,2
    502012ac:	00003617          	auipc	a2,0x3
    502012b0:	88462603          	lw	a2,-1916(a2) # 50203b30 <tasknum>
    502012b4:	00003597          	auipc	a1,0x3
    502012b8:	89c58593          	addi	a1,a1,-1892 # 50203b50 <tasks>
    502012bc:	2485                	addiw	s1,s1,1
    502012be:	8522                	mv	a0,s0
    502012c0:	029c2023          	sw	s1,32(s8)
    502012c4:	1d9000ef          	jal	50201c9c <load_task_img>
    502012c8:	02ac3c23          	sd	a0,56(s8)
    502012cc:	4505                	li	a0,1
    502012ce:	3db000ef          	jal	50201ea8 <allocKernelPage>
    502012d2:	892a                	mv	s2,a0
    502012d4:	4505                	li	a0,1
    502012d6:	3f9000ef          	jal	50201ece <allocUserPage>
    502012da:	038c3d83          	ld	s11,56(s8)
    502012de:	8caa                	mv	s9,a0
    502012e0:	12000613          	li	a2,288
    502012e4:	ee090513          	addi	a0,s2,-288
    502012e8:	4581                	li	a1,0
    502012ea:	72a010ef          	jal	50202a14 <memset>
    502012ee:	e7090713          	addi	a4,s2,-400
    502012f2:	ffb93423          	sd	s11,-24(s2)
    502012f6:	ff693023          	sd	s6,-32(s2)
    502012fa:	ef993823          	sd	s9,-272(s2)
    502012fe:	f1893023          	sd	s8,-256(s2)
    50201302:	00ec3023          	sd	a4,0(s8)
    50201306:	019c3423          	sd	s9,8(s8)
    5020130a:	e7593823          	sd	s5,-400(s2)
    5020130e:	e718                	sd	a4,8(a4)
    50201310:	8522                	mv	a0,s0
    50201312:	00002597          	auipc	a1,0x2
    50201316:	8be58593          	addi	a1,a1,-1858 # 50202bd0 <strcat+0xaa>
    5020131a:	037c2223          	sw	s7,36(s8)
    5020131e:	020c3823          	sd	zero,48(s8)
    50201322:	054c2023          	sw	s4,64(s8)
    50201326:	053c3423          	sd	s3,72(s8)
    5020132a:	730010ef          	jal	50202a5a <strcmp>
    5020132e:	4729                	li	a4,10
    50201330:	14051c63          	bnez	a0,50201488 <main+0x456>
    50201334:	010c0593          	addi	a1,s8,16
    50201338:	00002517          	auipc	a0,0x2
    5020133c:	75850513          	addi	a0,a0,1880 # 50203a90 <ready_queue>
    50201340:	04ec2223          	sw	a4,68(s8)
    50201344:	4fb000ef          	jal	5020203e <queue_pushback>
    50201348:	4715                	li	a4,5
    5020134a:	050c0c13          	addi	s8,s8,80
    5020134e:	0441                	addi	s0,s0,16
    50201350:	f4e49ee3          	bne	s1,a4,502012ac <main+0x27a>
    50201354:	00002517          	auipc	a0,0x2
    50201358:	8a450513          	addi	a0,a0,-1884 # 50202bf8 <strcat+0xd2>
    5020135c:	00002217          	auipc	tp,0x2
    50201360:	75420213          	addi	tp,tp,1876 # 50203ab0 <pid0_pcb>
    50201364:	612010ef          	jal	50202976 <printk>
    50201368:	520007b7          	lui	a5,0x52000
    5020136c:	f3878793          	addi	a5,a5,-200 # 51ffff38 <__BSS_END__+0x1df9608>
    50201370:	639c                	ld	a5,0(a5)
    50201372:	4581                	li	a1,0
    50201374:	4701                	li	a4,0
    50201376:	4681                	li	a3,0
    50201378:	4601                	li	a2,0
    5020137a:	4501                	li	a0,0
    5020137c:	9782                	jalr	a5
    5020137e:	00002797          	auipc	a5,0x2
    50201382:	7ca7b123          	sd	a0,1986(a5) # 50203b40 <time_base>
    50201386:	23d000ef          	jal	50201dc2 <init_locks>
    5020138a:	00002517          	auipc	a0,0x2
    5020138e:	89650513          	addi	a0,a0,-1898 # 50202c20 <strcat+0xfa>
    50201392:	5e4010ef          	jal	50202976 <printk>
    50201396:	0b3000ef          	jal	50201c48 <init_exception>
    5020139a:	00001417          	auipc	s0,0x1
    5020139e:	f1040413          	addi	s0,s0,-240 # 502022aa <do_scheduler>
    502013a2:	00002517          	auipc	a0,0x2
    502013a6:	8b650513          	addi	a0,a0,-1866 # 50202c58 <strcat+0x132>
    502013aa:	5cc010ef          	jal	50202976 <printk>
    502013ae:	00005597          	auipc	a1,0x5
    502013b2:	2a85bd23          	sd	s0,698(a1) # 50206668 <syscall+0x38>
    502013b6:	00000417          	auipc	s0,0x0
    502013ba:	5b040413          	addi	s0,s0,1456 # 50201966 <screen_write>
    502013be:	00005597          	auipc	a1,0x5
    502013c2:	3085b923          	sd	s0,786(a1) # 502066d0 <syscall+0xa0>
    502013c6:	00000417          	auipc	s0,0x0
    502013ca:	55c40413          	addi	s0,s0,1372 # 50201922 <screen_move_cursor>
    502013ce:	00005597          	auipc	a1,0x5
    502013d2:	3085b923          	sd	s0,786(a1) # 502066e0 <syscall+0xb0>
    502013d6:	00000417          	auipc	s0,0x0
    502013da:	5be40413          	addi	s0,s0,1470 # 50201994 <screen_reflush>
    502013de:	00005597          	auipc	a1,0x5
    502013e2:	3085b523          	sd	s0,778(a1) # 502066e8 <syscall+0xb8>
    502013e6:	00001417          	auipc	s0,0x1
    502013ea:	a1840413          	addi	s0,s0,-1512 # 50201dfe <do_mutex_lock_init>
    502013ee:	00005597          	auipc	a1,0x5
    502013f2:	3885b123          	sd	s0,898(a1) # 50206770 <syscall+0x140>
    502013f6:	00001417          	auipc	s0,0x1
    502013fa:	a6040413          	addi	s0,s0,-1440 # 50201e56 <do_mutex_lock_acquire>
    502013fe:	00001617          	auipc	a2,0x1
    50201402:	bd460613          	addi	a2,a2,-1068 # 50201fd2 <do_sleep>
    50201406:	00001697          	auipc	a3,0x1
    5020140a:	fe268693          	addi	a3,a3,-30 # 502023e8 <get_time_base>
    5020140e:	00001717          	auipc	a4,0x1
    50201412:	fb270713          	addi	a4,a4,-78 # 502023c0 <get_ticks>
    50201416:	00001797          	auipc	a5,0x1
    5020141a:	c4878793          	addi	a5,a5,-952 # 5020205e <set_sched_workload>
    5020141e:	00005597          	auipc	a1,0x5
    50201422:	3485bd23          	sd	s0,858(a1) # 50206778 <syscall+0x148>
    50201426:	00002517          	auipc	a0,0x2
    5020142a:	87250513          	addi	a0,a0,-1934 # 50202c98 <strcat+0x172>
    5020142e:	00001417          	auipc	s0,0x1
    50201432:	a4a40413          	addi	s0,s0,-1462 # 50201e78 <do_mutex_lock_release>
    50201436:	00005597          	auipc	a1,0x5
    5020143a:	20c5b523          	sd	a2,522(a1) # 50206640 <syscall+0x10>
    5020143e:	00005597          	auipc	a1,0x5
    50201442:	3485b123          	sd	s0,834(a1) # 50206780 <syscall+0x150>
    50201446:	00005617          	auipc	a2,0x5
    5020144a:	2cd63d23          	sd	a3,730(a2) # 50206720 <syscall+0xf0>
    5020144e:	00005697          	auipc	a3,0x5
    50201452:	2ce6bd23          	sd	a4,730(a3) # 50206728 <syscall+0xf8>
    50201456:	00005717          	auipc	a4,0x5
    5020145a:	32f73923          	sd	a5,818(a4) # 50206788 <syscall+0x158>
    5020145e:	518010ef          	jal	50202976 <printk>
    50201462:	63a000ef          	jal	50201a9c <init_screen>
    50201466:	00002517          	auipc	a0,0x2
    5020146a:	86250513          	addi	a0,a0,-1950 # 50202cc8 <strcat+0x1a2>
    5020146e:	508010ef          	jal	50202976 <printk>
    50201472:	74f000ef          	jal	502023c0 <get_ticks>
    50201476:	5dc50513          	addi	a0,a0,1500
    5020147a:	404000ef          	jal	5020187e <set_timer>
    5020147e:	06a000ef          	jal	502014e8 <enable_preempt>
    50201482:	10500073          	wfi
    50201486:	bfe5                	j	5020147e <main+0x44c>
    50201488:	00001597          	auipc	a1,0x1
    5020148c:	75058593          	addi	a1,a1,1872 # 50202bd8 <strcat+0xb2>
    50201490:	8522                	mv	a0,s0
    50201492:	5c8010ef          	jal	50202a5a <strcmp>
    50201496:	4751                	li	a4,20
    50201498:	e8050ee3          	beqz	a0,50201334 <main+0x302>
    5020149c:	00001597          	auipc	a1,0x1
    502014a0:	74458593          	addi	a1,a1,1860 # 50202be0 <strcat+0xba>
    502014a4:	8522                	mv	a0,s0
    502014a6:	5b4010ef          	jal	50202a5a <strcmp>
    502014aa:	4779                	li	a4,30
    502014ac:	e80504e3          	beqz	a0,50201334 <main+0x302>
    502014b0:	00001597          	auipc	a1,0x1
    502014b4:	73858593          	addi	a1,a1,1848 # 50202be8 <strcat+0xc2>
    502014b8:	8522                	mv	a0,s0
    502014ba:	5a0010ef          	jal	50202a5a <strcmp>
    502014be:	02800713          	li	a4,40
    502014c2:	e60509e3          	beqz	a0,50201334 <main+0x302>
    502014c6:	00001597          	auipc	a1,0x1
    502014ca:	72a58593          	addi	a1,a1,1834 # 50202bf0 <strcat+0xca>
    502014ce:	8522                	mv	a0,s0
    502014d0:	58a010ef          	jal	50202a5a <strcmp>
    502014d4:	03200713          	li	a4,50
    502014d8:	e4050ee3          	beqz	a0,50201334 <main+0x302>
    502014dc:	04600713          	li	a4,70
    502014e0:	bd91                	j	50201334 <main+0x302>
    502014e2:	07400713          	li	a4,116
    502014e6:	b951                	j	5020117a <main+0x148>

00000000502014e8 <enable_preempt>:
    502014e8:	fff04293          	not	t0,zero
    502014ec:	1042a073          	csrs	sie,t0
    502014f0:	8082                	ret
    502014f2:	0001                	nop

00000000502014f4 <disable_preempt>:
    502014f4:	10401073          	csrw	sie,zero
    502014f8:	8082                	ret
    502014fa:	0001                	nop

00000000502014fc <enable_interrupt>:
    502014fc:	4289                	li	t0,2
    502014fe:	1002a073          	csrs	sstatus,t0
    50201502:	8082                	ret

0000000050201504 <disable_interrupt>:
    50201504:	4289                	li	t0,2
    50201506:	1002b073          	csrc	sstatus,t0
    5020150a:	8082                	ret

000000005020150c <enable_time_preempt>:
    5020150c:	02000293          	li	t0,32
    50201510:	1042a073          	csrs	sie,t0
    50201514:	8082                	ret
    50201516:	0001                	nop

0000000050201518 <disable_time_preempt>:
    50201518:	02000293          	li	t0,32
    5020151c:	1042b073          	csrc	sie,t0
    50201520:	8082                	ret
    50201522:	0001                	nop

0000000050201524 <switch_to>:
    50201524:	7159                	addi	sp,sp,-112
    50201526:	00153023          	sd	ra,0(a0)
    5020152a:	00253423          	sd	sp,8(a0)
    5020152e:	e900                	sd	s0,16(a0)
    50201530:	ed04                	sd	s1,24(a0)
    50201532:	03253023          	sd	s2,32(a0)
    50201536:	03353423          	sd	s3,40(a0)
    5020153a:	03453823          	sd	s4,48(a0)
    5020153e:	03553c23          	sd	s5,56(a0)
    50201542:	05653023          	sd	s6,64(a0)
    50201546:	05753423          	sd	s7,72(a0)
    5020154a:	05853823          	sd	s8,80(a0)
    5020154e:	05953c23          	sd	s9,88(a0)
    50201552:	07a53023          	sd	s10,96(a0)
    50201556:	07b53423          	sd	s11,104(a0)
    5020155a:	0005b083          	ld	ra,0(a1)
    5020155e:	0085b103          	ld	sp,8(a1)
    50201562:	6980                	ld	s0,16(a1)
    50201564:	6d84                	ld	s1,24(a1)
    50201566:	0205b903          	ld	s2,32(a1)
    5020156a:	0285b983          	ld	s3,40(a1)
    5020156e:	0305ba03          	ld	s4,48(a1)
    50201572:	0385ba83          	ld	s5,56(a1)
    50201576:	0405bb03          	ld	s6,64(a1)
    5020157a:	0485bb83          	ld	s7,72(a1)
    5020157e:	0505bc03          	ld	s8,80(a1)
    50201582:	0585bc83          	ld	s9,88(a1)
    50201586:	0605bd03          	ld	s10,96(a1)
    5020158a:	0685bd83          	ld	s11,104(a1)
    5020158e:	6165                	addi	sp,sp,112
    50201590:	8082                	ret
    50201592:	0001                	nop

0000000050201594 <ret_from_exception>:
    50201594:	6292                	ld	t0,256(sp)
    50201596:	10029073          	csrw	sstatus,t0
    5020159a:	62b2                	ld	t0,264(sp)
    5020159c:	14129073          	csrw	sepc,t0
    502015a0:	62d2                	ld	t0,272(sp)
    502015a2:	14329073          	csrw	stval,t0
    502015a6:	62f2                	ld	t0,280(sp)
    502015a8:	14229073          	csrw	scause,t0
    502015ac:	72a2                	ld	t0,40(sp)
    502015ae:	7342                	ld	t1,48(sp)
    502015b0:	73e2                	ld	t2,56(sp)
    502015b2:	00013003          	ld	zero,0(sp)
    502015b6:	60a2                	ld	ra,8(sp)
    502015b8:	61e2                	ld	gp,24(sp)
    502015ba:	7202                	ld	tp,32(sp)
    502015bc:	6406                	ld	s0,64(sp)
    502015be:	64a6                	ld	s1,72(sp)
    502015c0:	6546                	ld	a0,80(sp)
    502015c2:	65e6                	ld	a1,88(sp)
    502015c4:	7606                	ld	a2,96(sp)
    502015c6:	76a6                	ld	a3,104(sp)
    502015c8:	7746                	ld	a4,112(sp)
    502015ca:	77e6                	ld	a5,120(sp)
    502015cc:	680a                	ld	a6,128(sp)
    502015ce:	68aa                	ld	a7,136(sp)
    502015d0:	694a                	ld	s2,144(sp)
    502015d2:	69ea                	ld	s3,152(sp)
    502015d4:	7a0a                	ld	s4,160(sp)
    502015d6:	7aaa                	ld	s5,168(sp)
    502015d8:	7b4a                	ld	s6,176(sp)
    502015da:	7bea                	ld	s7,184(sp)
    502015dc:	6c0e                	ld	s8,192(sp)
    502015de:	6cae                	ld	s9,200(sp)
    502015e0:	6d4e                	ld	s10,208(sp)
    502015e2:	6dee                	ld	s11,216(sp)
    502015e4:	7e0e                	ld	t3,224(sp)
    502015e6:	7eae                	ld	t4,232(sp)
    502015e8:	7f4e                	ld	t5,240(sp)
    502015ea:	7fee                	ld	t6,248(sp)
    502015ec:	6115                	addi	sp,sp,288
    502015ee:	00223023          	sd	sp,0(tp) # 0 <_start-0x50201000>
    502015f2:	00823103          	ld	sp,8(tp) # 8 <_start-0x50200ff8>
    502015f6:	10200073          	sret
    502015fa:	0001                	nop

00000000502015fc <exception_handler_entry>:
    502015fc:	00223423          	sd	sp,8(tp) # 8 <_start-0x50200ff8>
    50201600:	00023103          	ld	sp,0(tp) # 0 <_start-0x50201000>
    50201604:	712d                	addi	sp,sp,-288
    50201606:	f416                	sd	t0,40(sp)
    50201608:	f81a                	sd	t1,48(sp)
    5020160a:	fc1e                	sd	t2,56(sp)
    5020160c:	e002                	sd	zero,0(sp)
    5020160e:	e406                	sd	ra,8(sp)
    50201610:	ec0e                	sd	gp,24(sp)
    50201612:	f012                	sd	tp,32(sp)
    50201614:	e0a2                	sd	s0,64(sp)
    50201616:	e4a6                	sd	s1,72(sp)
    50201618:	e8aa                	sd	a0,80(sp)
    5020161a:	ecae                	sd	a1,88(sp)
    5020161c:	f0b2                	sd	a2,96(sp)
    5020161e:	f4b6                	sd	a3,104(sp)
    50201620:	f8ba                	sd	a4,112(sp)
    50201622:	fcbe                	sd	a5,120(sp)
    50201624:	e142                	sd	a6,128(sp)
    50201626:	e546                	sd	a7,136(sp)
    50201628:	e94a                	sd	s2,144(sp)
    5020162a:	ed4e                	sd	s3,152(sp)
    5020162c:	f152                	sd	s4,160(sp)
    5020162e:	f556                	sd	s5,168(sp)
    50201630:	f95a                	sd	s6,176(sp)
    50201632:	fd5e                	sd	s7,184(sp)
    50201634:	e1e2                	sd	s8,192(sp)
    50201636:	e5e6                	sd	s9,200(sp)
    50201638:	e9ea                	sd	s10,208(sp)
    5020163a:	edee                	sd	s11,216(sp)
    5020163c:	f1f2                	sd	t3,224(sp)
    5020163e:	f5f6                	sd	t4,232(sp)
    50201640:	f9fa                	sd	t5,240(sp)
    50201642:	fdfe                	sd	t6,248(sp)
    50201644:	000462b7          	lui	t0,0x46
    50201648:	10002373          	csrr	t1,sstatus
    5020164c:	e21a                	sd	t1,256(sp)
    5020164e:	14102373          	csrr	t1,sepc
    50201652:	e61a                	sd	t1,264(sp)
    50201654:	14302373          	csrr	t1,stval
    50201658:	ea1a                	sd	t1,272(sp)
    5020165a:	14202373          	csrr	t1,scause
    5020165e:	ee1a                	sd	t1,280(sp)
    50201660:	00000097          	auipc	ra,0x0
    50201664:	f3408093          	addi	ra,ra,-204 # 50201594 <ret_from_exception>
    50201668:	850a                	mv	a0,sp
    5020166a:	143025f3          	csrr	a1,stval
    5020166e:	14202673          	csrr	a2,scause
    50201672:	5bc000ef          	jal	50201c2e <interrupt_helper>
    50201676:	bf39                	j	50201594 <ret_from_exception>
    50201678:	0001                	nop
	...

000000005020167c <setup_exception>:
    5020167c:	00000297          	auipc	t0,0x0
    50201680:	f8028293          	addi	t0,t0,-128 # 502015fc <exception_handler_entry>
    50201684:	10529073          	csrw	stvec,t0
    50201688:	1161                	addi	sp,sp,-8
    5020168a:	e006                	sd	ra,0(sp)
    5020168c:	e71ff0ef          	jal	502014fc <enable_interrupt>
    50201690:	6082                	ld	ra,0(sp)
    50201692:	0121                	addi	sp,sp,8
    50201694:	8082                	ret

0000000050201696 <bios_putstr>:
    50201696:	520007b7          	lui	a5,0x52000
    5020169a:	f0078793          	addi	a5,a5,-256 # 51ffff00 <__BSS_END__+0x1df95d0>
    5020169e:	639c                	ld	a5,0(a5)
    502016a0:	4701                	li	a4,0
    502016a2:	4681                	li	a3,0
    502016a4:	4601                	li	a2,0
    502016a6:	4581                	li	a1,0
    502016a8:	8782                	jr	a5

00000000502016aa <list_files>:
    502016aa:	1101                	addi	sp,sp,-32
    502016ac:	e04a                	sd	s2,0(sp)
    502016ae:	52000937          	lui	s2,0x52000
    502016b2:	f0093783          	ld	a5,-256(s2) # 51ffff00 <__BSS_END__+0x1df95d0>
    502016b6:	ec06                	sd	ra,24(sp)
    502016b8:	e822                	sd	s0,16(sp)
    502016ba:	e426                	sd	s1,8(sp)
    502016bc:	4701                	li	a4,0
    502016be:	4681                	li	a3,0
    502016c0:	4601                	li	a2,0
    502016c2:	4581                	li	a1,0
    502016c4:	00001517          	auipc	a0,0x1
    502016c8:	49450513          	addi	a0,a0,1172 # 50202b58 <strcat+0x32>
    502016cc:	9782                	jalr	a5
    502016ce:	00002797          	auipc	a5,0x2
    502016d2:	4627a783          	lw	a5,1122(a5) # 50203b30 <tasknum>
    502016d6:	f0090913          	addi	s2,s2,-256
    502016da:	cfe9                	beqz	a5,502017b4 <list_files+0x10a>
    502016dc:	00002497          	auipc	s1,0x2
    502016e0:	48848493          	addi	s1,s1,1160 # 50203b64 <tasks+0x14>
    502016e4:	4401                	li	s0,0
    502016e6:	02f05e63          	blez	a5,50201722 <list_files+0x78>
    502016ea:	00093783          	ld	a5,0(s2)
    502016ee:	4701                	li	a4,0
    502016f0:	4681                	li	a3,0
    502016f2:	4601                	li	a2,0
    502016f4:	4581                	li	a1,0
    502016f6:	8526                	mv	a0,s1
    502016f8:	9782                	jalr	a5
    502016fa:	00093783          	ld	a5,0(s2)
    502016fe:	4701                	li	a4,0
    50201700:	4681                	li	a3,0
    50201702:	4601                	li	a2,0
    50201704:	4581                	li	a1,0
    50201706:	00001517          	auipc	a0,0x1
    5020170a:	46a50513          	addi	a0,a0,1130 # 50202b70 <strcat+0x4a>
    5020170e:	9782                	jalr	a5
    50201710:	00002797          	auipc	a5,0x2
    50201714:	4207a783          	lw	a5,1056(a5) # 50203b30 <tasknum>
    50201718:	2405                	addiw	s0,s0,1
    5020171a:	02848493          	addi	s1,s1,40
    5020171e:	fcf446e3          	blt	s0,a5,502016ea <list_files+0x40>
    50201722:	52000937          	lui	s2,0x52000
    50201726:	f0093783          	ld	a5,-256(s2) # 51ffff00 <__BSS_END__+0x1df95d0>
    5020172a:	4701                	li	a4,0
    5020172c:	4681                	li	a3,0
    5020172e:	4601                	li	a2,0
    50201730:	4581                	li	a1,0
    50201732:	00001517          	auipc	a0,0x1
    50201736:	45650513          	addi	a0,a0,1110 # 50202b88 <strcat+0x62>
    5020173a:	9782                	jalr	a5
    5020173c:	00002797          	auipc	a5,0x2
    50201740:	6947a783          	lw	a5,1684(a5) # 50203dd0 <batchfiles>
    50201744:	f0090913          	addi	s2,s2,-256
    50201748:	c3d1                	beqz	a5,502017cc <list_files+0x122>
    5020174a:	00002497          	auipc	s1,0x2
    5020174e:	68a48493          	addi	s1,s1,1674 # 50203dd4 <batchfiles+0x4>
    50201752:	4401                	li	s0,0
    50201754:	02f05d63          	blez	a5,5020178e <list_files+0xe4>
    50201758:	00093783          	ld	a5,0(s2)
    5020175c:	4701                	li	a4,0
    5020175e:	4681                	li	a3,0
    50201760:	4601                	li	a2,0
    50201762:	4581                	li	a1,0
    50201764:	8526                	mv	a0,s1
    50201766:	9782                	jalr	a5
    50201768:	00093783          	ld	a5,0(s2)
    5020176c:	4701                	li	a4,0
    5020176e:	4681                	li	a3,0
    50201770:	4601                	li	a2,0
    50201772:	4581                	li	a1,0
    50201774:	00001517          	auipc	a0,0x1
    50201778:	3fc50513          	addi	a0,a0,1020 # 50202b70 <strcat+0x4a>
    5020177c:	9782                	jalr	a5
    5020177e:	00002797          	auipc	a5,0x2
    50201782:	6527a783          	lw	a5,1618(a5) # 50203dd0 <batchfiles>
    50201786:	2405                	addiw	s0,s0,1
    50201788:	04c1                	addi	s1,s1,16
    5020178a:	fcf447e3          	blt	s0,a5,50201758 <list_files+0xae>
    5020178e:	520007b7          	lui	a5,0x52000
    50201792:	6442                	ld	s0,16(sp)
    50201794:	f0078793          	addi	a5,a5,-256 # 51ffff00 <__BSS_END__+0x1df95d0>
    50201798:	60e2                	ld	ra,24(sp)
    5020179a:	64a2                	ld	s1,8(sp)
    5020179c:	6902                	ld	s2,0(sp)
    5020179e:	639c                	ld	a5,0(a5)
    502017a0:	4701                	li	a4,0
    502017a2:	4681                	li	a3,0
    502017a4:	4601                	li	a2,0
    502017a6:	4581                	li	a1,0
    502017a8:	00001517          	auipc	a0,0x1
    502017ac:	3c850513          	addi	a0,a0,968 # 50202b70 <strcat+0x4a>
    502017b0:	6105                	addi	sp,sp,32
    502017b2:	8782                	jr	a5
    502017b4:	00093783          	ld	a5,0(s2)
    502017b8:	4701                	li	a4,0
    502017ba:	4681                	li	a3,0
    502017bc:	4601                	li	a2,0
    502017be:	4581                	li	a1,0
    502017c0:	00001517          	auipc	a0,0x1
    502017c4:	3b850513          	addi	a0,a0,952 # 50202b78 <strcat+0x52>
    502017c8:	9782                	jalr	a5
    502017ca:	bfa1                	j	50201722 <list_files+0x78>
    502017cc:	00093783          	ld	a5,0(s2)
    502017d0:	4701                	li	a4,0
    502017d2:	4681                	li	a3,0
    502017d4:	4601                	li	a2,0
    502017d6:	4581                	li	a1,0
    502017d8:	00001517          	auipc	a0,0x1
    502017dc:	3c850513          	addi	a0,a0,968 # 50202ba0 <strcat+0x7a>
    502017e0:	9782                	jalr	a5
    502017e2:	b775                	j	5020178e <list_files+0xe4>

00000000502017e4 <port_write_ch>:
    502017e4:	50150337          	lui	t1,0x50150
    502017e8:	4885                	li	a7,1
    502017ea:	4801                	li	a6,0
    502017ec:	4781                	li	a5,0
    502017ee:	4701                	li	a4,0
    502017f0:	4681                	li	a3,0
    502017f2:	4601                	li	a2,0
    502017f4:	4581                	li	a1,0
    502017f6:	8302                	jr	t1

00000000502017f8 <port_write>:
    502017f8:	50150337          	lui	t1,0x50150
    502017fc:	48a5                	li	a7,9
    502017fe:	4801                	li	a6,0
    50201800:	4781                	li	a5,0
    50201802:	4701                	li	a4,0
    50201804:	4681                	li	a3,0
    50201806:	4601                	li	a2,0
    50201808:	4581                	li	a1,0
    5020180a:	8302                	jr	t1

000000005020180c <port_read_ch>:
    5020180c:	1141                	addi	sp,sp,-16
    5020180e:	e406                	sd	ra,8(sp)
    50201810:	50150337          	lui	t1,0x50150
    50201814:	4889                	li	a7,2
    50201816:	4801                	li	a6,0
    50201818:	4781                	li	a5,0
    5020181a:	4701                	li	a4,0
    5020181c:	4681                	li	a3,0
    5020181e:	4601                	li	a2,0
    50201820:	4581                	li	a1,0
    50201822:	4501                	li	a0,0
    50201824:	9302                	jalr	t1
    50201826:	60a2                	ld	ra,8(sp)
    50201828:	2501                	sext.w	a0,a0
    5020182a:	0141                	addi	sp,sp,16
    5020182c:	8082                	ret

000000005020182e <sd_read>:
    5020182e:	1141                	addi	sp,sp,-16
    50201830:	1502                	slli	a0,a0,0x20
    50201832:	1582                	slli	a1,a1,0x20
    50201834:	1602                	slli	a2,a2,0x20
    50201836:	e406                	sd	ra,8(sp)
    50201838:	9101                	srli	a0,a0,0x20
    5020183a:	9181                	srli	a1,a1,0x20
    5020183c:	9201                	srli	a2,a2,0x20
    5020183e:	50150337          	lui	t1,0x50150
    50201842:	48ad                	li	a7,11
    50201844:	4801                	li	a6,0
    50201846:	4781                	li	a5,0
    50201848:	4701                	li	a4,0
    5020184a:	4681                	li	a3,0
    5020184c:	9302                	jalr	t1
    5020184e:	60a2                	ld	ra,8(sp)
    50201850:	2501                	sext.w	a0,a0
    50201852:	0141                	addi	sp,sp,16
    50201854:	8082                	ret

0000000050201856 <sd_write>:
    50201856:	1141                	addi	sp,sp,-16
    50201858:	1502                	slli	a0,a0,0x20
    5020185a:	1582                	slli	a1,a1,0x20
    5020185c:	1602                	slli	a2,a2,0x20
    5020185e:	e406                	sd	ra,8(sp)
    50201860:	9101                	srli	a0,a0,0x20
    50201862:	9181                	srli	a1,a1,0x20
    50201864:	9201                	srli	a2,a2,0x20
    50201866:	50150337          	lui	t1,0x50150
    5020186a:	48a9                	li	a7,10
    5020186c:	4801                	li	a6,0
    5020186e:	4781                	li	a5,0
    50201870:	4701                	li	a4,0
    50201872:	4681                	li	a3,0
    50201874:	9302                	jalr	t1
    50201876:	60a2                	ld	ra,8(sp)
    50201878:	2501                	sext.w	a0,a0
    5020187a:	0141                	addi	sp,sp,16
    5020187c:	8082                	ret

000000005020187e <set_timer>:
    5020187e:	50150337          	lui	t1,0x50150
    50201882:	4881                	li	a7,0
    50201884:	4801                	li	a6,0
    50201886:	4781                	li	a5,0
    50201888:	4701                	li	a4,0
    5020188a:	4681                	li	a3,0
    5020188c:	4601                	li	a2,0
    5020188e:	4581                	li	a1,0
    50201890:	8302                	jr	t1

0000000050201892 <read_fdt>:
    50201892:	1502                	slli	a0,a0,0x20
    50201894:	9101                	srli	a0,a0,0x20
    50201896:	50150337          	lui	t1,0x50150
    5020189a:	48b1                	li	a7,12
    5020189c:	4801                	li	a6,0
    5020189e:	4781                	li	a5,0
    502018a0:	4701                	li	a4,0
    502018a2:	4681                	li	a3,0
    502018a4:	4601                	li	a2,0
    502018a6:	4581                	li	a1,0
    502018a8:	8302                	jr	t1

00000000502018aa <qemu_logging>:
    502018aa:	50150337          	lui	t1,0x50150
    502018ae:	48b9                	li	a7,14
    502018b0:	4801                	li	a6,0
    502018b2:	4781                	li	a5,0
    502018b4:	4701                	li	a4,0
    502018b6:	4681                	li	a3,0
    502018b8:	4601                	li	a2,0
    502018ba:	4581                	li	a1,0
    502018bc:	8302                	jr	t1

00000000502018be <screen_write_ch>:
    502018be:	47a9                	li	a5,10
    502018c0:	04f50263          	beq	a0,a5,50201904 <screen_write_ch+0x46>
    502018c4:	ff850793          	addi	a5,a0,-8
    502018c8:	0005071b          	sext.w	a4,a0
    502018cc:	c7b9                	beqz	a5,5020191a <screen_write_ch+0x5c>
    502018ce:	f8170713          	addi	a4,a4,-127
    502018d2:	c721                	beqz	a4,5020191a <screen_write_ch+0x5c>
    502018d4:	02c22603          	lw	a2,44(tp) # 2c <_start-0x50200fd4>
    502018d8:	02822683          	lw	a3,40(tp) # 28 <_start-0x50200fd8>
    502018dc:	00003717          	auipc	a4,0x3
    502018e0:	5d470713          	addi	a4,a4,1492 # 50204eb0 <new_screen>
    502018e4:	0026179b          	slliw	a5,a2,0x2
    502018e8:	9fb1                	addw	a5,a5,a2
    502018ea:	0047979b          	slliw	a5,a5,0x4
    502018ee:	9fb5                	addw	a5,a5,a3
    502018f0:	97ba                	add	a5,a5,a4
    502018f2:	00a78023          	sb	a0,0(a5)
    502018f6:	02822783          	lw	a5,40(tp) # 28 <_start-0x50200fd8>
    502018fa:	04f00713          	li	a4,79
    502018fe:	2785                	addiw	a5,a5,1
    50201900:	00f75e63          	bge	a4,a5,5020191c <screen_write_ch+0x5e>
    50201904:	02c22783          	lw	a5,44(tp) # 2c <_start-0x50200fd4>
    50201908:	02022423          	sw	zero,40(tp) # 28 <_start-0x50200fd8>
    5020190c:	03100713          	li	a4,49
    50201910:	00f74563          	blt	a4,a5,5020191a <screen_write_ch+0x5c>
    50201914:	2785                	addiw	a5,a5,1
    50201916:	02f22623          	sw	a5,44(tp) # 2c <_start-0x50200fd4>
    5020191a:	8082                	ret
    5020191c:	02f22423          	sw	a5,40(tp) # 28 <_start-0x50200fd8>
    50201920:	8082                	ret

0000000050201922 <screen_move_cursor>:
    50201922:	0005069b          	sext.w	a3,a0
    50201926:	00055363          	bgez	a0,5020192c <screen_move_cursor+0xa>
    5020192a:	4681                	li	a3,0
    5020192c:	04f00793          	li	a5,79
    50201930:	00d7d363          	bge	a5,a3,50201936 <screen_move_cursor+0x14>
    50201934:	86be                	mv	a3,a5
    50201936:	862e                	mv	a2,a1
    50201938:	0005d363          	bgez	a1,5020193e <screen_move_cursor+0x1c>
    5020193c:	4601                	li	a2,0
    5020193e:	0006079b          	sext.w	a5,a2
    50201942:	03100713          	li	a4,49
    50201946:	00f75363          	bge	a4,a5,5020194c <screen_move_cursor+0x2a>
    5020194a:	863a                	mv	a2,a4
    5020194c:	02d22423          	sw	a3,40(tp) # 28 <_start-0x50200fd8>
    50201950:	02c22623          	sw	a2,44(tp) # 2c <_start-0x50200fd4>
    50201954:	2685                	addiw	a3,a3,1
    50201956:	2605                	addiw	a2,a2,1
    50201958:	45ed                	li	a1,27
    5020195a:	00001517          	auipc	a0,0x1
    5020195e:	3be50513          	addi	a0,a0,958 # 50202d18 <strcat+0x1f2>
    50201962:	0400106f          	j	502029a2 <printv>

0000000050201966 <screen_write>:
    50201966:	1101                	addi	sp,sp,-32
    50201968:	e822                	sd	s0,16(sp)
    5020196a:	ec06                	sd	ra,24(sp)
    5020196c:	842a                	mv	s0,a0
    5020196e:	0ce010ef          	jal	50202a3c <strlen>
    50201972:	00a05d63          	blez	a0,5020198c <screen_write+0x26>
    50201976:	e426                	sd	s1,8(sp)
    50201978:	00a404b3          	add	s1,s0,a0
    5020197c:	00044503          	lbu	a0,0(s0)
    50201980:	0405                	addi	s0,s0,1
    50201982:	f3dff0ef          	jal	502018be <screen_write_ch>
    50201986:	fe941be3          	bne	s0,s1,5020197c <screen_write+0x16>
    5020198a:	64a2                	ld	s1,8(sp)
    5020198c:	60e2                	ld	ra,24(sp)
    5020198e:	6442                	ld	s0,16(sp)
    50201990:	6105                	addi	sp,sp,32
    50201992:	8082                	ret

0000000050201994 <screen_reflush>:
    50201994:	715d                	addi	sp,sp,-80
    50201996:	ec56                	sd	s5,24(sp)
    50201998:	e85a                	sd	s6,16(sp)
    5020199a:	52000ab7          	lui	s5,0x52000
    5020199e:	00002b17          	auipc	s6,0x2
    502019a2:	572b0b13          	addi	s6,s6,1394 # 50203f10 <old_screen>
    502019a6:	f84a                	sd	s2,48(sp)
    502019a8:	f44e                	sd	s3,40(sp)
    502019aa:	e45e                	sd	s7,8(sp)
    502019ac:	e062                	sd	s8,0(sp)
    502019ae:	e486                	sd	ra,72(sp)
    502019b0:	e0a2                	sd	s0,64(sp)
    502019b2:	fc26                	sd	s1,56(sp)
    502019b4:	f052                	sd	s4,32(sp)
    502019b6:	41600b3b          	negw	s6,s6
    502019ba:	f08a8a93          	addi	s5,s5,-248 # 51ffff08 <__BSS_END__+0x1df95d8>
    502019be:	00002997          	auipc	s3,0x2
    502019c2:	5a298993          	addi	s3,s3,1442 # 50203f60 <old_screen+0x50>
    502019c6:	00003b97          	auipc	s7,0x3
    502019ca:	4eab8b93          	addi	s7,s7,1258 # 50204eb0 <new_screen>
    502019ce:	4901                	li	s2,0
    502019d0:	03200c13          	li	s8,50
    502019d4:	2905                	addiw	s2,s2,1
    502019d6:	fb098413          	addi	s0,s3,-80
    502019da:	84de                	mv	s1,s7
    502019dc:	001b0a1b          	addiw	s4,s6,1
    502019e0:	0004c703          	lbu	a4,0(s1)
    502019e4:	00044783          	lbu	a5,0(s0)
    502019e8:	008a06bb          	addw	a3,s4,s0
    502019ec:	864a                	mv	a2,s2
    502019ee:	45ed                	li	a1,27
    502019f0:	00001517          	auipc	a0,0x1
    502019f4:	32850513          	addi	a0,a0,808 # 50202d18 <strcat+0x1f2>
    502019f8:	02f70163          	beq	a4,a5,50201a1a <screen_reflush+0x86>
    502019fc:	7a7000ef          	jal	502029a2 <printv>
    50201a00:	000ab783          	ld	a5,0(s5)
    50201a04:	0004c503          	lbu	a0,0(s1)
    50201a08:	4701                	li	a4,0
    50201a0a:	4681                	li	a3,0
    50201a0c:	4601                	li	a2,0
    50201a0e:	4581                	li	a1,0
    50201a10:	9782                	jalr	a5
    50201a12:	0004c783          	lbu	a5,0(s1)
    50201a16:	00f40023          	sb	a5,0(s0)
    50201a1a:	0405                	addi	s0,s0,1
    50201a1c:	0485                	addi	s1,s1,1
    50201a1e:	fd3411e3          	bne	s0,s3,502019e0 <screen_reflush+0x4c>
    50201a22:	05040993          	addi	s3,s0,80
    50201a26:	050b8b93          	addi	s7,s7,80
    50201a2a:	fb0b0b1b          	addiw	s6,s6,-80
    50201a2e:	fb8913e3          	bne	s2,s8,502019d4 <screen_reflush+0x40>
    50201a32:	02c22603          	lw	a2,44(tp) # 2c <_start-0x50200fd4>
    50201a36:	6406                	ld	s0,64(sp)
    50201a38:	60a6                	ld	ra,72(sp)
    50201a3a:	74e2                	ld	s1,56(sp)
    50201a3c:	7942                	ld	s2,48(sp)
    50201a3e:	79a2                	ld	s3,40(sp)
    50201a40:	7a02                	ld	s4,32(sp)
    50201a42:	6ae2                	ld	s5,24(sp)
    50201a44:	6b42                	ld	s6,16(sp)
    50201a46:	6ba2                	ld	s7,8(sp)
    50201a48:	6c02                	ld	s8,0(sp)
    50201a4a:	02822683          	lw	a3,40(tp) # 28 <_start-0x50200fd8>
    50201a4e:	45ed                	li	a1,27
    50201a50:	367d                	addiw	a2,a2,-1
    50201a52:	00001517          	auipc	a0,0x1
    50201a56:	2c650513          	addi	a0,a0,710 # 50202d18 <strcat+0x1f2>
    50201a5a:	6161                	addi	sp,sp,80
    50201a5c:	7470006f          	j	502029a2 <printv>

0000000050201a60 <screen_clear>:
    50201a60:	00002697          	auipc	a3,0x2
    50201a64:	0a06b683          	ld	a3,160(a3) # 50203b00 <__SDATA_BEGIN__>
    50201a68:	00003617          	auipc	a2,0x3
    50201a6c:	44860613          	addi	a2,a2,1096 # 50204eb0 <new_screen>
    50201a70:	00003717          	auipc	a4,0x3
    50201a74:	49070713          	addi	a4,a4,1168 # 50204f00 <new_screen+0x50>
    50201a78:	00004597          	auipc	a1,0x4
    50201a7c:	42858593          	addi	a1,a1,1064 # 50205ea0 <irq_table+0x50>
    50201a80:	87b2                	mv	a5,a2
    50201a82:	e394                	sd	a3,0(a5)
    50201a84:	07a1                	addi	a5,a5,8
    50201a86:	fee79ee3          	bne	a5,a4,50201a82 <screen_clear+0x22>
    50201a8a:	05078713          	addi	a4,a5,80
    50201a8e:	05060613          	addi	a2,a2,80
    50201a92:	feb717e3          	bne	a4,a1,50201a80 <screen_clear+0x20>
    50201a96:	02023423          	sd	zero,40(tp) # 28 <_start-0x50200fd8>
    50201a9a:	bded                	j	50201994 <screen_reflush>

0000000050201a9c <init_screen>:
    50201a9c:	1141                	addi	sp,sp,-16
    50201a9e:	45ed                	li	a1,27
    50201aa0:	00001517          	auipc	a0,0x1
    50201aa4:	28850513          	addi	a0,a0,648 # 50202d28 <strcat+0x202>
    50201aa8:	e406                	sd	ra,8(sp)
    50201aaa:	6f9000ef          	jal	502029a2 <printv>
    50201aae:	45ed                	li	a1,27
    50201ab0:	00001517          	auipc	a0,0x1
    50201ab4:	28050513          	addi	a0,a0,640 # 50202d30 <strcat+0x20a>
    50201ab8:	6eb000ef          	jal	502029a2 <printv>
    50201abc:	00002617          	auipc	a2,0x2
    50201ac0:	04463603          	ld	a2,68(a2) # 50203b00 <__SDATA_BEGIN__>
    50201ac4:	00003717          	auipc	a4,0x3
    50201ac8:	3ec70713          	addi	a4,a4,1004 # 50204eb0 <new_screen>
    50201acc:	00003697          	auipc	a3,0x3
    50201ad0:	43468693          	addi	a3,a3,1076 # 50204f00 <new_screen+0x50>
    50201ad4:	00004597          	auipc	a1,0x4
    50201ad8:	37c58593          	addi	a1,a1,892 # 50205e50 <irq_table>
    50201adc:	87ba                	mv	a5,a4
    50201ade:	e390                	sd	a2,0(a5)
    50201ae0:	07a1                	addi	a5,a5,8
    50201ae2:	fed79ee3          	bne	a5,a3,50201ade <init_screen+0x42>
    50201ae6:	05070713          	addi	a4,a4,80
    50201aea:	05078693          	addi	a3,a5,80
    50201aee:	feb717e3          	bne	a4,a1,50201adc <init_screen+0x40>
    50201af2:	60a2                	ld	ra,8(sp)
    50201af4:	02023423          	sd	zero,40(tp) # 28 <_start-0x50200fd8>
    50201af8:	0141                	addi	sp,sp,16
    50201afa:	bd69                	j	50201994 <screen_reflush>

0000000050201afc <handle_irq_timer>:
    50201afc:	1141                	addi	sp,sp,-16
    50201afe:	e406                	sd	ra,8(sp)
    50201b00:	0c1000ef          	jal	502023c0 <get_ticks>
    50201b04:	5dc50513          	addi	a0,a0,1500
    50201b08:	d77ff0ef          	jal	5020187e <set_timer>
    50201b0c:	00020763          	beqz	tp,50201b1a <handle_irq_timer+0x1e>
    50201b10:	02422703          	lw	a4,36(tp) # 24 <_start-0x50200fdc>
    50201b14:	4785                	li	a5,1
    50201b16:	00f70563          	beq	a4,a5,50201b20 <handle_irq_timer+0x24>
    50201b1a:	60a2                	ld	ra,8(sp)
    50201b1c:	0141                	addi	sp,sp,16
    50201b1e:	a771                	j	502022aa <do_scheduler>
    50201b20:	04c22783          	lw	a5,76(tp) # 4c <_start-0x50200fb4>
    50201b24:	fef05be3          	blez	a5,50201b1a <handle_irq_timer+0x1e>
    50201b28:	60a2                	ld	ra,8(sp)
    50201b2a:	37fd                	addiw	a5,a5,-1
    50201b2c:	04f22623          	sw	a5,76(tp) # 4c <_start-0x50200fb4>
    50201b30:	0141                	addi	sp,sp,16
    50201b32:	afa5                	j	502022aa <do_scheduler>

0000000050201b34 <handle_other>:
    50201b34:	710d                	addi	sp,sp,-352
    50201b36:	ee5e                	sd	s7,280(sp)
    50201b38:	ea62                	sd	s8,272(sp)
    50201b3a:	e666                	sd	s9,264(sp)
    50201b3c:	ee86                	sd	ra,344(sp)
    50201b3e:	eaa2                	sd	s0,336(sp)
    50201b40:	e6a6                	sd	s1,328(sp)
    50201b42:	e2ca                	sd	s2,320(sp)
    50201b44:	fe4e                	sd	s3,312(sp)
    50201b46:	fa52                	sd	s4,304(sp)
    50201b48:	f656                	sd	s5,296(sp)
    50201b4a:	f25a                	sd	s6,288(sp)
    50201b4c:	8baa                	mv	s7,a0
    50201b4e:	8c2e                	mv	s8,a1
    50201b50:	8cb2                	mv	s9,a2
    50201b52:	00001797          	auipc	a5,0x1
    50201b56:	41678793          	addi	a5,a5,1046 # 50202f68 <strcat+0x442>
    50201b5a:	870a                	mv	a4,sp
    50201b5c:	00001697          	auipc	a3,0x1
    50201b60:	50c68693          	addi	a3,a3,1292 # 50203068 <__FUNCTION__.0>
    50201b64:	0007b803          	ld	a6,0(a5)
    50201b68:	6788                	ld	a0,8(a5)
    50201b6a:	6b8c                	ld	a1,16(a5)
    50201b6c:	6f90                	ld	a2,24(a5)
    50201b6e:	01073023          	sd	a6,0(a4)
    50201b72:	e708                	sd	a0,8(a4)
    50201b74:	eb0c                	sd	a1,16(a4)
    50201b76:	ef10                	sd	a2,24(a4)
    50201b78:	02078793          	addi	a5,a5,32
    50201b7c:	02070713          	addi	a4,a4,32
    50201b80:	fed792e3          	bne	a5,a3,50201b64 <handle_other+0x30>
    50201b84:	8a8a                	mv	s5,sp
    50201b86:	8a5e                	mv	s4,s7
    50201b88:	598d                	li	s3,-29
    50201b8a:	4b11                	li	s6,4
    50201b8c:	8952                	mv	s2,s4
    50201b8e:	84d6                	mv	s1,s5
    50201b90:	440d                	li	s0,3
    50201b92:	00001517          	auipc	a0,0x1
    50201b96:	1a650513          	addi	a0,a0,422 # 50202d38 <strcat+0x212>
    50201b9a:	09340363          	beq	s0,s3,50201c20 <handle_other+0xec>
    50201b9e:	00093603          	ld	a2,0(s2)
    50201ba2:	608c                	ld	a1,0(s1)
    50201ba4:	347d                	addiw	s0,s0,-1
    50201ba6:	04a1                	addi	s1,s1,8
    50201ba8:	5cf000ef          	jal	50202976 <printk>
    50201bac:	0921                	addi	s2,s2,8
    50201bae:	f075                	bnez	s0,50201b92 <handle_other+0x5e>
    50201bb0:	00001517          	auipc	a0,0x1
    50201bb4:	fc050513          	addi	a0,a0,-64 # 50202b70 <strcat+0x4a>
    50201bb8:	298d                	addiw	s3,s3,3
    50201bba:	5bd000ef          	jal	50202976 <printk>
    50201bbe:	0ae1                	addi	s5,s5,24
    50201bc0:	0a61                	addi	s4,s4,24
    50201bc2:	fd6995e3          	bne	s3,s6,50201b8c <handle_other+0x58>
    50201bc6:	118bb683          	ld	a3,280(s7)
    50201bca:	110bb603          	ld	a2,272(s7)
    50201bce:	100bb583          	ld	a1,256(s7)
    50201bd2:	00001517          	auipc	a0,0x1
    50201bd6:	17650513          	addi	a0,a0,374 # 50202d48 <strcat+0x222>
    50201bda:	59d000ef          	jal	50202976 <printk>
    50201bde:	108bb583          	ld	a1,264(s7)
    50201be2:	00001517          	auipc	a0,0x1
    50201be6:	19650513          	addi	a0,a0,406 # 50202d78 <strcat+0x252>
    50201bea:	58d000ef          	jal	50202976 <printk>
    50201bee:	8666                	mv	a2,s9
    50201bf0:	85e2                	mv	a1,s8
    50201bf2:	00001517          	auipc	a0,0x1
    50201bf6:	19650513          	addi	a0,a0,406 # 50202d88 <strcat+0x262>
    50201bfa:	57d000ef          	jal	50202976 <printk>
    50201bfe:	04d00693          	li	a3,77
    50201c02:	00001617          	auipc	a2,0x1
    50201c06:	1a660613          	addi	a2,a2,422 # 50202da8 <strcat+0x282>
    50201c0a:	00001597          	auipc	a1,0x1
    50201c0e:	45e58593          	addi	a1,a1,1118 # 50203068 <__FUNCTION__.0>
    50201c12:	00001517          	auipc	a0,0x1
    50201c16:	1ae50513          	addi	a0,a0,430 # 50202dc0 <strcat+0x29a>
    50201c1a:	55d000ef          	jal	50202976 <printk>
    50201c1e:	a001                	j	50201c1e <handle_other+0xea>
    50201c20:	00001517          	auipc	a0,0x1
    50201c24:	f5050513          	addi	a0,a0,-176 # 50202b70 <strcat+0x4a>
    50201c28:	54f000ef          	jal	50202976 <printk>
    50201c2c:	bf69                	j	50201bc6 <handle_other+0x92>

0000000050201c2e <interrupt_helper>:
    50201c2e:	00361793          	slli	a5,a2,0x3
    50201c32:	00004717          	auipc	a4,0x4
    50201c36:	21e70713          	addi	a4,a4,542 # 50205e50 <irq_table>
    50201c3a:	97ba                	add	a5,a5,a4
    50201c3c:	00064463          	bltz	a2,50201c44 <interrupt_helper+0x16>
    50201c40:	73bc                	ld	a5,96(a5)
    50201c42:	8782                	jr	a5
    50201c44:	639c                	ld	a5,0(a5)
    50201c46:	8782                	jr	a5

0000000050201c48 <init_exception>:
    50201c48:	00004617          	auipc	a2,0x4
    50201c4c:	26860613          	addi	a2,a2,616 # 50205eb0 <exc_table>
    50201c50:	87b2                	mv	a5,a2
    50201c52:	00004697          	auipc	a3,0x4
    50201c56:	2de68693          	addi	a3,a3,734 # 50205f30 <mlocks>
    50201c5a:	00000717          	auipc	a4,0x0
    50201c5e:	eda70713          	addi	a4,a4,-294 # 50201b34 <handle_other>
    50201c62:	e398                	sd	a4,0(a5)
    50201c64:	07a1                	addi	a5,a5,8
    50201c66:	fed79ee3          	bne	a5,a3,50201c62 <init_exception+0x1a>
    50201c6a:	00000797          	auipc	a5,0x0
    50201c6e:	7b478793          	addi	a5,a5,1972 # 5020241e <handle_syscall>
    50201c72:	00004697          	auipc	a3,0x4
    50201c76:	26f6bf23          	sd	a5,638(a3) # 50205ef0 <exc_table+0x40>
    50201c7a:	00004797          	auipc	a5,0x4
    50201c7e:	1d678793          	addi	a5,a5,470 # 50205e50 <irq_table>
    50201c82:	e398                	sd	a4,0(a5)
    50201c84:	07a1                	addi	a5,a5,8
    50201c86:	fec79ee3          	bne	a5,a2,50201c82 <init_exception+0x3a>
    50201c8a:	00000797          	auipc	a5,0x0
    50201c8e:	e7278793          	addi	a5,a5,-398 # 50201afc <handle_irq_timer>
    50201c92:	00004717          	auipc	a4,0x4
    50201c96:	1ef73323          	sd	a5,486(a4) # 50205e78 <irq_table+0x28>
    50201c9a:	b2cd                	j	5020167c <setup_exception>

0000000050201c9c <load_task_img>:
    50201c9c:	7179                	addi	sp,sp,-48
    50201c9e:	f406                	sd	ra,40(sp)
    50201ca0:	ec26                	sd	s1,24(sp)
    50201ca2:	0ac05f63          	blez	a2,50201d60 <load_task_img+0xc4>
    50201ca6:	f022                	sd	s0,32(sp)
    50201ca8:	e84a                	sd	s2,16(sp)
    50201caa:	e44e                	sd	s3,8(sp)
    50201cac:	e052                	sd	s4,0(sp)
    50201cae:	8932                	mv	s2,a2
    50201cb0:	89aa                	mv	s3,a0
    50201cb2:	8a2e                	mv	s4,a1
    50201cb4:	01458493          	addi	s1,a1,20
    50201cb8:	4401                	li	s0,0
    50201cba:	a031                	j	50201cc6 <load_task_img+0x2a>
    50201cbc:	2405                	addiw	s0,s0,1
    50201cbe:	02848493          	addi	s1,s1,40
    50201cc2:	08890b63          	beq	s2,s0,50201d58 <load_task_img+0xbc>
    50201cc6:	85ce                	mv	a1,s3
    50201cc8:	8526                	mv	a0,s1
    50201cca:	591000ef          	jal	50202a5a <strcmp>
    50201cce:	f57d                	bnez	a0,50201cbc <load_task_img+0x20>
    50201cd0:	00241793          	slli	a5,s0,0x2
    50201cd4:	97a2                	add	a5,a5,s0
    50201cd6:	078e                	slli	a5,a5,0x3
    50201cd8:	9a3e                	add	s4,s4,a5
    50201cda:	00ca2683          	lw	a3,12(s4)
    50201cde:	010a2783          	lw	a5,16(s4)
    50201ce2:	52000737          	lui	a4,0x52000
    50201ce6:	41f6d61b          	sraiw	a2,a3,0x1f
    50201cea:	9fb5                	addw	a5,a5,a3
    50201cec:	41f7d59b          	sraiw	a1,a5,0x1f
    50201cf0:	0175d59b          	srliw	a1,a1,0x17
    50201cf4:	0176561b          	srliw	a2,a2,0x17
    50201cf8:	9dbd                	addw	a1,a1,a5
    50201cfa:	9e35                	addw	a2,a2,a3
    50201cfc:	4096561b          	sraiw	a2,a2,0x9
    50201d00:	4095d59b          	sraiw	a1,a1,0x9
    50201d04:	9d91                	subw	a1,a1,a2
    50201d06:	f1873783          	ld	a5,-232(a4) # 51ffff18 <__BSS_END__+0x1df95e8>
    50201d0a:	2585                	addiw	a1,a1,1
    50201d0c:	1582                	slli	a1,a1,0x20
    50201d0e:	1602                	slli	a2,a2,0x20
    50201d10:	9181                	srli	a1,a1,0x20
    50201d12:	9201                	srli	a2,a2,0x20
    50201d14:	4701                	li	a4,0
    50201d16:	4681                	li	a3,0
    50201d18:	59000537          	lui	a0,0x59000
    50201d1c:	000a3483          	ld	s1,0(s4)
    50201d20:	9782                	jalr	a5
    50201d22:	00ca2783          	lw	a5,12(s4)
    50201d26:	010a2603          	lw	a2,16(s4)
    50201d2a:	590005b7          	lui	a1,0x59000
    50201d2e:	41f7d71b          	sraiw	a4,a5,0x1f
    50201d32:	0177571b          	srliw	a4,a4,0x17
    50201d36:	9fb9                	addw	a5,a5,a4
    50201d38:	1ff7f793          	andi	a5,a5,511
    50201d3c:	9f99                	subw	a5,a5,a4
    50201d3e:	8526                	mv	a0,s1
    50201d40:	9dbd                	addw	a1,a1,a5
    50201d42:	4b9000ef          	jal	502029fa <memcpy>
    50201d46:	70a2                	ld	ra,40(sp)
    50201d48:	7402                	ld	s0,32(sp)
    50201d4a:	6942                	ld	s2,16(sp)
    50201d4c:	69a2                	ld	s3,8(sp)
    50201d4e:	6a02                	ld	s4,0(sp)
    50201d50:	8526                	mv	a0,s1
    50201d52:	64e2                	ld	s1,24(sp)
    50201d54:	6145                	addi	sp,sp,48
    50201d56:	8082                	ret
    50201d58:	7402                	ld	s0,32(sp)
    50201d5a:	6942                	ld	s2,16(sp)
    50201d5c:	69a2                	ld	s3,8(sp)
    50201d5e:	6a02                	ld	s4,0(sp)
    50201d60:	520007b7          	lui	a5,0x52000
    50201d64:	f0078793          	addi	a5,a5,-256 # 51ffff00 <__BSS_END__+0x1df95d0>
    50201d68:	639c                	ld	a5,0(a5)
    50201d6a:	4701                	li	a4,0
    50201d6c:	4681                	li	a3,0
    50201d6e:	4601                	li	a2,0
    50201d70:	4581                	li	a1,0
    50201d72:	00001517          	auipc	a0,0x1
    50201d76:	17650513          	addi	a0,a0,374 # 50202ee8 <strcat+0x3c2>
    50201d7a:	9782                	jalr	a5
    50201d7c:	70a2                	ld	ra,40(sp)
    50201d7e:	4481                	li	s1,0
    50201d80:	8526                	mv	a0,s1
    50201d82:	64e2                	ld	s1,24(sp)
    50201d84:	6145                	addi	sp,sp,48
    50201d86:	8082                	ret

0000000050201d88 <excute_by_name>:
    50201d88:	7179                	addi	sp,sp,-48
    50201d8a:	e436                	sd	a3,8(sp)
    50201d8c:	f406                	sd	ra,40(sp)
    50201d8e:	f0fff0ef          	jal	50201c9c <load_task_img>
    50201d92:	66a2                	ld	a3,8(sp)
    50201d94:	00001797          	auipc	a5,0x1
    50201d98:	17c78793          	addi	a5,a5,380 # 50202f10 <strcat+0x3ea>
    50201d9c:	e83e                	sd	a5,16(sp)
    50201d9e:	00001717          	auipc	a4,0x1
    50201da2:	16270713          	addi	a4,a4,354 # 50202f00 <strcat+0x3da>
    50201da6:	87aa                	mv	a5,a0
    50201da8:	e689                	bnez	a3,50201db2 <excute_by_name+0x2a>
    50201daa:	00001717          	auipc	a4,0x1
    50201dae:	15e70713          	addi	a4,a4,350 # 50202f08 <strcat+0x3e2>
    50201db2:	ec3a                	sd	a4,24(sp)
    50201db4:	c781                	beqz	a5,50201dbc <excute_by_name+0x34>
    50201db6:	080c                	addi	a1,sp,16
    50201db8:	4509                	li	a0,2
    50201dba:	9782                	jalr	a5
    50201dbc:	70a2                	ld	ra,40(sp)
    50201dbe:	6145                	addi	sp,sp,48
    50201dc0:	8082                	ret

0000000050201dc2 <init_locks>:
    50201dc2:	00004797          	auipc	a5,0x4
    50201dc6:	17678793          	addi	a5,a5,374 # 50205f38 <mlocks+0x8>
    50201dca:	4701                	li	a4,0
    50201dcc:	00004597          	auipc	a1,0x4
    50201dd0:	16458593          	addi	a1,a1,356 # 50205f30 <mlocks>
    50201dd4:	4641                	li	a2,16
    50201dd6:	00571693          	slli	a3,a4,0x5
    50201dda:	96ae                	add	a3,a3,a1
    50201ddc:	0006a023          	sw	zero,0(a3)
    50201de0:	e39c                	sd	a5,0(a5)
    50201de2:	e79c                	sd	a5,8(a5)
    50201de4:	0007a823          	sw	zero,16(a5)
    50201de8:	2705                	addiw	a4,a4,1
    50201dea:	02078793          	addi	a5,a5,32
    50201dee:	fec714e3          	bne	a4,a2,50201dd6 <init_locks+0x14>
    50201df2:	8082                	ret

0000000050201df4 <spin_lock_init>:
    50201df4:	8082                	ret

0000000050201df6 <spin_lock_try_acquire>:
    50201df6:	4501                	li	a0,0
    50201df8:	8082                	ret

0000000050201dfa <spin_lock_acquire>:
    50201dfa:	8082                	ret

0000000050201dfc <spin_lock_release>:
    50201dfc:	8082                	ret

0000000050201dfe <do_mutex_lock_init>:
    50201dfe:	00004617          	auipc	a2,0x4
    50201e02:	14a60613          	addi	a2,a2,330 # 50205f48 <mlocks+0x18>
    50201e06:	8732                	mv	a4,a2
    50201e08:	4781                	li	a5,0
    50201e0a:	45c1                	li	a1,16
    50201e0c:	4314                	lw	a3,0(a4)
    50201e0e:	02070713          	addi	a4,a4,32
    50201e12:	00a68f63          	beq	a3,a0,50201e30 <do_mutex_lock_init+0x32>
    50201e16:	2785                	addiw	a5,a5,1
    50201e18:	feb79ae3          	bne	a5,a1,50201e0c <do_mutex_lock_init+0xe>
    50201e1c:	4781                	li	a5,0
    50201e1e:	46c1                	li	a3,16
    50201e20:	4218                	lw	a4,0(a2)
    50201e22:	02060613          	addi	a2,a2,32
    50201e26:	c719                	beqz	a4,50201e34 <do_mutex_lock_init+0x36>
    50201e28:	2785                	addiw	a5,a5,1
    50201e2a:	fed79be3          	bne	a5,a3,50201e20 <do_mutex_lock_init+0x22>
    50201e2e:	57fd                	li	a5,-1
    50201e30:	853e                	mv	a0,a5
    50201e32:	8082                	ret
    50201e34:	00579613          	slli	a2,a5,0x5
    50201e38:	00860693          	addi	a3,a2,8
    50201e3c:	00004717          	auipc	a4,0x4
    50201e40:	0f470713          	addi	a4,a4,244 # 50205f30 <mlocks>
    50201e44:	96ba                	add	a3,a3,a4
    50201e46:	9732                	add	a4,a4,a2
    50201e48:	cf08                	sw	a0,24(a4)
    50201e4a:	e714                	sd	a3,8(a4)
    50201e4c:	eb14                	sd	a3,16(a4)
    50201e4e:	00072023          	sw	zero,0(a4)
    50201e52:	853e                	mv	a0,a5
    50201e54:	8082                	ret

0000000050201e56 <do_mutex_lock_acquire>:
    50201e56:	0516                	slli	a0,a0,0x5
    50201e58:	00004597          	auipc	a1,0x4
    50201e5c:	0d858593          	addi	a1,a1,216 # 50205f30 <mlocks>
    50201e60:	00a587b3          	add	a5,a1,a0
    50201e64:	4398                	lw	a4,0(a5)
    50201e66:	e701                	bnez	a4,50201e6e <do_mutex_lock_acquire+0x18>
    50201e68:	4705                	li	a4,1
    50201e6a:	c398                	sw	a4,0(a5)
    50201e6c:	8082                	ret
    50201e6e:	0521                	addi	a0,a0,8
    50201e70:	95aa                	add	a1,a1,a0
    50201e72:	01020513          	addi	a0,tp,16 # 10 <_start-0x50200ff0>
    50201e76:	aa49                	j	50202008 <do_block>

0000000050201e78 <do_mutex_lock_release>:
    50201e78:	1101                	addi	sp,sp,-32
    50201e7a:	e822                	sd	s0,16(sp)
    50201e7c:	00551413          	slli	s0,a0,0x5
    50201e80:	e426                	sd	s1,8(sp)
    50201e82:	00840513          	addi	a0,s0,8
    50201e86:	00004497          	auipc	s1,0x4
    50201e8a:	0aa48493          	addi	s1,s1,170 # 50205f30 <mlocks>
    50201e8e:	9526                	add	a0,a0,s1
    50201e90:	ec06                	sd	ra,24(sp)
    50201e92:	180000ef          	jal	50202012 <do_unblock>
    50201e96:	e501                	bnez	a0,50201e9e <do_mutex_lock_release+0x26>
    50201e98:	94a2                	add	s1,s1,s0
    50201e9a:	0004a023          	sw	zero,0(s1)
    50201e9e:	60e2                	ld	ra,24(sp)
    50201ea0:	6442                	ld	s0,16(sp)
    50201ea2:	64a2                	ld	s1,8(sp)
    50201ea4:	6105                	addi	sp,sp,32
    50201ea6:	8082                	ret

0000000050201ea8 <allocKernelPage>:
    50201ea8:	00002797          	auipc	a5,0x2
    50201eac:	c787b783          	ld	a5,-904(a5) # 50203b20 <kernMemCurr>
    50201eb0:	6705                	lui	a4,0x1
    50201eb2:	177d                	addi	a4,a4,-1 # fff <_start-0x50200001>
    50201eb4:	97ba                	add	a5,a5,a4
    50201eb6:	76fd                	lui	a3,0xfffff
    50201eb8:	00c5171b          	slliw	a4,a0,0xc
    50201ebc:	00d7f533          	and	a0,a5,a3
    50201ec0:	00a707b3          	add	a5,a4,a0
    50201ec4:	00002717          	auipc	a4,0x2
    50201ec8:	c4f73e23          	sd	a5,-932(a4) # 50203b20 <kernMemCurr>
    50201ecc:	8082                	ret

0000000050201ece <allocUserPage>:
    50201ece:	00002797          	auipc	a5,0x2
    50201ed2:	c4a7b783          	ld	a5,-950(a5) # 50203b18 <userMemCurr>
    50201ed6:	6705                	lui	a4,0x1
    50201ed8:	177d                	addi	a4,a4,-1 # fff <_start-0x50200001>
    50201eda:	97ba                	add	a5,a5,a4
    50201edc:	76fd                	lui	a3,0xfffff
    50201ede:	00c5171b          	slliw	a4,a0,0xc
    50201ee2:	00d7f533          	and	a0,a5,a3
    50201ee6:	00a707b3          	add	a5,a4,a0
    50201eea:	00002717          	auipc	a4,0x2
    50201eee:	c2f73723          	sd	a5,-978(a4) # 50203b18 <userMemCurr>
    50201ef2:	8082                	ret

0000000050201ef4 <do_block.part.0>:
    50201ef4:	00002717          	auipc	a4,0x2
    50201ef8:	b9c70713          	addi	a4,a4,-1124 # 50203a90 <ready_queue>
    50201efc:	631c                	ld	a5,0(a4)
    50201efe:	862a                	mv	a2,a0
    50201f00:	04e78463          	beq	a5,a4,50201f48 <do_block.part.0+0x54>
    50201f04:	670c                	ld	a1,8(a4)
    50201f06:	00023503          	ld	a0,0(tp) # 0 <_start-0x50201000>
    50201f0a:	01020813          	addi	a6,tp,16 # 10 <_start-0x50200ff0>
    50201f0e:	e78c                	sd	a1,8(a5)
    50201f10:	e19c                	sd	a5,0(a1)
    50201f12:	0007b883          	ld	a7,0(a5)
    50201f16:	ff07b583          	ld	a1,-16(a5)
    50201f1a:	8692                	mv	a3,tp
    50201f1c:	01173023          	sd	a7,0(a4)
    50201f20:	0087b303          	ld	t1,8(a5)
    50201f24:	02022223          	sw	zero,36(tp) # 24 <_start-0x50200fdc>
    50201f28:	4885                	li	a7,1
    50201f2a:	00673423          	sd	t1,8(a4)
    50201f2e:	6618                	ld	a4,8(a2)
    50201f30:	ff078213          	addi	tp,a5,-16
    50201f34:	01073023          	sd	a6,0(a4)
    50201f38:	ea90                	sd	a2,16(a3)
    50201f3a:	01063423          	sd	a6,8(a2)
    50201f3e:	ee98                	sd	a4,24(a3)
    50201f40:	0117aa23          	sw	a7,20(a5)
    50201f44:	de0ff06f          	j	50201524 <switch_to>
    50201f48:	00003703          	ld	a4,0(zero) # 0 <_start-0x50201000>
    50201f4c:	e398                	sd	a4,0(a5)
    50201f4e:	00803703          	ld	a4,8(zero) # 8 <_start-0x50200ff8>
    50201f52:	e798                	sd	a4,8(a5)
    50201f54:	9002                	ebreak

0000000050201f56 <check_sleeping>:
    50201f56:	00002797          	auipc	a5,0x2
    50201f5a:	b4a7b783          	ld	a5,-1206(a5) # 50203aa0 <sleep_queue>
    50201f5e:	00002897          	auipc	a7,0x2
    50201f62:	b4288893          	addi	a7,a7,-1214 # 50203aa0 <sleep_queue>
    50201f66:	07178563          	beq	a5,a7,50201fd0 <check_sleeping+0x7a>
    50201f6a:	1101                	addi	sp,sp,-32
    50201f6c:	ec06                	sd	ra,24(sp)
    50201f6e:	4601                	li	a2,0
    50201f70:	639c                	ld	a5,0(a5)
    50201f72:	2605                	addiw	a2,a2,1
    50201f74:	ff179ee3          	bne	a5,a7,50201f70 <check_sleeping+0x1a>
    50201f78:	e432                	sd	a2,8(sp)
    50201f7a:	454000ef          	jal	502023ce <get_timer>
    50201f7e:	00002597          	auipc	a1,0x2
    50201f82:	b1258593          	addi	a1,a1,-1262 # 50203a90 <ready_queue>
    50201f86:	699c                	ld	a5,16(a1)
    50201f88:	6622                	ld	a2,8(sp)
    50201f8a:	4701                	li	a4,0
    50201f8c:	0207b303          	ld	t1,32(a5)
    50201f90:	00002897          	auipc	a7,0x2
    50201f94:	b1088893          	addi	a7,a7,-1264 # 50203aa0 <sleep_queue>
    50201f98:	6394                	ld	a3,0(a5)
    50201f9a:	00d78863          	beq	a5,a3,50201faa <check_sleeping+0x54>
    50201f9e:	0087b803          	ld	a6,8(a5)
    50201fa2:	0106b423          	sd	a6,8(a3) # fffffffffffff008 <__BSS_END__+0xffffffffafdf86d8>
    50201fa6:	00d83023          	sd	a3,0(a6)
    50201faa:	00656d63          	bltu	a0,t1,50201fc4 <check_sleeping+0x6e>
    50201fae:	6594                	ld	a3,8(a1)
    50201fb0:	e29c                	sd	a5,0(a3)
    50201fb2:	e38c                	sd	a1,0(a5)
    50201fb4:	e59c                	sd	a5,8(a1)
    50201fb6:	e794                	sd	a3,8(a5)
    50201fb8:	2705                	addiw	a4,a4,1
    50201fba:	fcc71fe3          	bne	a4,a2,50201f98 <check_sleeping+0x42>
    50201fbe:	60e2                	ld	ra,24(sp)
    50201fc0:	6105                	addi	sp,sp,32
    50201fc2:	8082                	ret
    50201fc4:	6d94                	ld	a3,24(a1)
    50201fc6:	e29c                	sd	a5,0(a3)
    50201fc8:	0117b023          	sd	a7,0(a5)
    50201fcc:	ed9c                	sd	a5,24(a1)
    50201fce:	b7e5                	j	50201fb6 <check_sleeping+0x60>
    50201fd0:	aefd                	j	502023ce <get_timer>

0000000050201fd2 <do_sleep>:
    50201fd2:	1141                	addi	sp,sp,-16
    50201fd4:	e022                	sd	s0,0(sp)
    50201fd6:	e406                	sd	ra,8(sp)
    50201fd8:	842a                	mv	s0,a0
    50201fda:	3f4000ef          	jal	502023ce <get_timer>
    50201fde:	02041793          	slli	a5,s0,0x20
    50201fe2:	9381                	srli	a5,a5,0x20
    50201fe4:	02422703          	lw	a4,36(tp) # 24 <_start-0x50200fdc>
    50201fe8:	97aa                	add	a5,a5,a0
    50201fea:	02f23823          	sd	a5,48(tp) # 30 <_start-0x50200fd0>
    50201fee:	cb09                	beqz	a4,50202000 <do_sleep+0x2e>
    50201ff0:	6402                	ld	s0,0(sp)
    50201ff2:	60a2                	ld	ra,8(sp)
    50201ff4:	00002517          	auipc	a0,0x2
    50201ff8:	aac50513          	addi	a0,a0,-1364 # 50203aa0 <sleep_queue>
    50201ffc:	0141                	addi	sp,sp,16
    50201ffe:	bddd                	j	50201ef4 <do_block.part.0>
    50202000:	60a2                	ld	ra,8(sp)
    50202002:	6402                	ld	s0,0(sp)
    50202004:	0141                	addi	sp,sp,16
    50202006:	8082                	ret

0000000050202008 <do_block>:
    50202008:	495c                	lw	a5,20(a0)
    5020200a:	c399                	beqz	a5,50202010 <do_block+0x8>
    5020200c:	852e                	mv	a0,a1
    5020200e:	b5dd                	j	50201ef4 <do_block.part.0>
    50202010:	8082                	ret

0000000050202012 <do_unblock>:
    50202012:	611c                	ld	a5,0(a0)
    50202014:	6398                	ld	a4,0(a5)
    50202016:	02e78263          	beq	a5,a4,5020203a <do_unblock+0x28>
    5020201a:	678c                	ld	a1,8(a5)
    5020201c:	00002697          	auipc	a3,0x2
    50202020:	a7468693          	addi	a3,a3,-1420 # 50203a90 <ready_queue>
    50202024:	4509                	li	a0,2
    50202026:	e70c                	sd	a1,8(a4)
    50202028:	6690                	ld	a2,8(a3)
    5020202a:	e198                	sd	a4,0(a1)
    5020202c:	cbc8                	sw	a0,20(a5)
    5020202e:	e21c                	sd	a5,0(a2)
    50202030:	e394                	sd	a3,0(a5)
    50202032:	e69c                	sd	a5,8(a3)
    50202034:	e790                	sd	a2,8(a5)
    50202036:	4505                	li	a0,1
    50202038:	8082                	ret
    5020203a:	4501                	li	a0,0
    5020203c:	8082                	ret

000000005020203e <queue_pushback>:
    5020203e:	651c                	ld	a5,8(a0)
    50202040:	e38c                	sd	a1,0(a5)
    50202042:	e188                	sd	a0,0(a1)
    50202044:	e50c                	sd	a1,8(a0)
    50202046:	e59c                	sd	a5,8(a1)
    50202048:	8082                	ret

000000005020204a <queue_popfront>:
    5020204a:	611c                	ld	a5,0(a0)
    5020204c:	00a78763          	beq	a5,a0,5020205a <queue_popfront+0x10>
    50202050:	6518                	ld	a4,8(a0)
    50202052:	e798                	sd	a4,8(a5)
    50202054:	e31c                	sd	a5,0(a4)
    50202056:	853e                	mv	a0,a5
    50202058:	8082                	ret
    5020205a:	4781                	li	a5,0
    5020205c:	bfed                	j	50202056 <queue_popfront+0xc>

000000005020205e <set_sched_workload>:
    5020205e:	00020763          	beqz	tp,5020206c <set_sched_workload+0xe>
    50202062:	02022783          	lw	a5,32(tp) # 20 <_start-0x50200fe0>
    50202066:	c399                	beqz	a5,5020206c <set_sched_workload+0xe>
    50202068:	04a22023          	sw	a0,64(tp) # 40 <_start-0x50200fc0>
    5020206c:	8082                	ret

000000005020206e <update_scheduler_slices>:
    5020206e:	00002517          	auipc	a0,0x2
    50202072:	a2253503          	ld	a0,-1502(a0) # 50203a90 <ready_queue>
    50202076:	7111                	addi	sp,sp,-256
    50202078:	6114                	ld	a3,0(a0)
    5020207a:	20d50263          	beq	a0,a3,5020227e <update_scheduler_slices+0x210>
    5020207e:	872a                	mv	a4,a0
    50202080:	4581                	li	a1,0
    50202082:	08010313          	addi	t1,sp,128
    50202086:	03b00893          	li	a7,59
    5020208a:	03c00e13          	li	t3,60
    5020208e:	3e800e93          	li	t4,1000
    50202092:	1f400f93          	li	t6,500
    50202096:	1f400f13          	li	t5,500
    5020209a:	4b1c                	lw	a5,16(a4)
    5020209c:	c3a9                	beqz	a5,502020de <update_scheduler_slices+0x70>
    5020209e:	00359613          	slli	a2,a1,0x3
    502020a2:	5b1c                	lw	a5,48(a4)
    502020a4:	961a                	add	a2,a2,t1
    502020a6:	ff070293          	addi	t0,a4,-16
    502020aa:	00563023          	sd	t0,0(a2)
    502020ae:	4601                	li	a2,0
    502020b0:	02f8c263          	blt	a7,a5,502020d4 <update_scheduler_slices+0x66>
    502020b4:	02f05b63          	blez	a5,502020ea <update_scheduler_slices+0x7c>
    502020b8:	5b58                	lw	a4,52(a4)
    502020ba:	40fe07bb          	subw	a5,t3,a5
    502020be:	02e7d963          	bge	a5,a4,502020f0 <update_scheduler_slices+0x82>
    502020c2:	03e787b3          	mul	a5,a5,t5
    502020c6:	02e7c7b3          	div	a5,a5,a4
    502020ca:	2781                	sext.w	a5,a5
    502020cc:	0007861b          	sext.w	a2,a5
    502020d0:	00fecd63          	blt	t4,a5,502020ea <update_scheduler_slices+0x7c>
    502020d4:	00259793          	slli	a5,a1,0x2
    502020d8:	978a                	add	a5,a5,sp
    502020da:	c390                	sw	a2,0(a5)
    502020dc:	2585                	addiw	a1,a1,1
    502020de:	629c                	ld	a5,0(a3)
    502020e0:	8736                	mv	a4,a3
    502020e2:	02a78163          	beq	a5,a0,50202104 <update_scheduler_slices+0x96>
    502020e6:	86be                	mv	a3,a5
    502020e8:	bf4d                	j	5020209a <update_scheduler_slices+0x2c>
    502020ea:	3e800613          	li	a2,1000
    502020ee:	b7dd                	j	502020d4 <update_scheduler_slices+0x66>
    502020f0:	9f99                	subw	a5,a5,a4
    502020f2:	02ff87bb          	mulw	a5,t6,a5
    502020f6:	40ee073b          	subw	a4,t3,a4
    502020fa:	02e7c7bb          	divw	a5,a5,a4
    502020fe:	1f47879b          	addiw	a5,a5,500
    50202102:	b7e9                	j	502020cc <update_scheduler_slices+0x5e>
    50202104:	06020063          	beqz	tp,50202164 <update_scheduler_slices+0xf6>
    50202108:	02022783          	lw	a5,32(tp) # 20 <_start-0x50200fe0>
    5020210c:	cfa1                	beqz	a5,50202164 <update_scheduler_slices+0xf6>
    5020210e:	87ae                	mv	a5,a1
    50202110:	2585                	addiw	a1,a1,1
    50202112:	0108                	addi	a0,sp,128
    50202114:	00379693          	slli	a3,a5,0x3
    50202118:	04022703          	lw	a4,64(tp) # 40 <_start-0x50200fc0>
    5020211c:	96aa                	add	a3,a3,a0
    5020211e:	0046b023          	sd	tp,0(a3)
    50202122:	03b00613          	li	a2,59
    50202126:	4681                	li	a3,0
    50202128:	02e64963          	blt	a2,a4,5020215a <update_scheduler_slices+0xec>
    5020212c:	14e05263          	blez	a4,50202270 <update_scheduler_slices+0x202>
    50202130:	04422803          	lw	a6,68(tp) # 44 <_start-0x50200fbc>
    50202134:	03c00613          	li	a2,60
    50202138:	40e6073b          	subw	a4,a2,a4
    5020213c:	15075963          	bge	a4,a6,5020228e <update_scheduler_slices+0x220>
    50202140:	1f400693          	li	a3,500
    50202144:	02d70733          	mul	a4,a4,a3
    50202148:	03074733          	div	a4,a4,a6
    5020214c:	2701                	sext.w	a4,a4
    5020214e:	3e800613          	li	a2,1000
    50202152:	0007069b          	sext.w	a3,a4
    50202156:	10e64d63          	blt	a2,a4,50202270 <update_scheduler_slices+0x202>
    5020215a:	078a                	slli	a5,a5,0x2
    5020215c:	978a                	add	a5,a5,sp
    5020215e:	860a                	mv	a2,sp
    50202160:	c394                	sw	a3,0(a5)
    50202162:	a021                	j	5020216a <update_scheduler_slices+0xfc>
    50202164:	c5e5                	beqz	a1,5020224c <update_scheduler_slices+0x1de>
    50202166:	0108                	addi	a0,sp,128
    50202168:	860a                	mv	a2,sp
    5020216a:	00259813          	slli	a6,a1,0x2
    5020216e:	9832                	add	a6,a6,a2
    50202170:	88b2                	mv	a7,a2
    50202172:	87b2                	mv	a5,a2
    50202174:	4f81                	li	t6,0
    50202176:	4e01                	li	t3,0
    50202178:	4681                	li	a3,0
    5020217a:	4e81                	li	t4,0
    5020217c:	3dd00f13          	li	t5,989
    50202180:	a801                	j	50202190 <update_scheduler_slices+0x122>
    50202182:	0791                	addi	a5,a5,4
    50202184:	2e85                	addiw	t4,t4,1
    50202186:	006e6e33          	or	t3,t3,t1
    5020218a:	96ba                	add	a3,a3,a4
    5020218c:	00f80c63          	beq	a6,a5,502021a4 <update_scheduler_slices+0x136>
    50202190:	4398                	lw	a4,0(a5)
    50202192:	00173313          	seqz	t1,a4
    50202196:	feef56e3          	bge	t5,a4,50202182 <update_scheduler_slices+0x114>
    5020219a:	0791                	addi	a5,a5,4
    5020219c:	4f85                	li	t6,1
    5020219e:	96ba                	add	a3,a3,a4
    502021a0:	fef818e3          	bne	a6,a5,50202190 <update_scheduler_slices+0x122>
    502021a4:	0a0e8863          	beqz	t4,50202254 <update_scheduler_slices+0x1e6>
    502021a8:	001e7e13          	andi	t3,t3,1
    502021ac:	0a0e0263          	beqz	t3,50202250 <update_scheduler_slices+0x1e2>
    502021b0:	04010e13          	addi	t3,sp,64
    502021b4:	02b6c6b3          	div	a3,a3,a1
    502021b8:	8732                	mv	a4,a2
    502021ba:	85f2                	mv	a1,t3
    502021bc:	4301                	li	t1,0
    502021be:	431c                	lw	a5,0(a4)
    502021c0:	0711                	addi	a4,a4,4
    502021c2:	0591                	addi	a1,a1,4
    502021c4:	40f687b3          	sub	a5,a3,a5
    502021c8:	fff7c613          	not	a2,a5
    502021cc:	967d                	srai	a2,a2,0x3f
    502021ce:	8ff1                	and	a5,a5,a2
    502021d0:	2781                	sext.w	a5,a5
    502021d2:	fef5ae23          	sw	a5,-4(a1)
    502021d6:	933e                	add	t1,t1,a5
    502021d8:	fee813e3          	bne	a6,a4,502021be <update_scheduler_slices+0x150>
    502021dc:	87aa                	mv	a5,a0
    502021de:	3dd00593          	li	a1,989
    502021e2:	40135f13          	srai	t5,t1,0x1
    502021e6:	02800e93          	li	t4,40
    502021ea:	a0a9                	j	50202234 <update_scheduler_slices+0x1c6>
    502021ec:	e319                	bnez	a4,502021f2 <update_scheduler_slices+0x184>
    502021ee:	040f9863          	bnez	t6,5020223e <update_scheduler_slices+0x1d0>
    502021f2:	4685                	li	a3,1
    502021f4:	02605663          	blez	t1,50202220 <update_scheduler_slices+0x1b2>
    502021f8:	000e2503          	lw	a0,0(t3)
    502021fc:	00251713          	slli	a4,a0,0x2
    50202200:	972a                	add	a4,a4,a0
    50202202:	070e                	slli	a4,a4,0x3
    50202204:	977a                	add	a4,a4,t5
    50202206:	02674733          	div	a4,a4,t1
    5020220a:	0007051b          	sext.w	a0,a4
    5020220e:	00a04363          	bgtz	a0,50202214 <update_scheduler_slices+0x1a6>
    50202212:	8736                	mv	a4,a3
    50202214:	0007069b          	sext.w	a3,a4
    50202218:	00ded463          	bge	t4,a3,50202220 <update_scheduler_slices+0x1b2>
    5020221c:	02800693          	li	a3,40
    50202220:	4678                	lw	a4,76(a2)
    50202222:	c634                	sw	a3,72(a2)
    50202224:	00e6d363          	bge	a3,a4,5020222a <update_scheduler_slices+0x1bc>
    50202228:	c674                	sw	a3,76(a2)
    5020222a:	0891                	addi	a7,a7,4
    5020222c:	07a1                	addi	a5,a5,8
    5020222e:	0e11                	addi	t3,t3,4
    50202230:	01180e63          	beq	a6,a7,5020224c <update_scheduler_slices+0x1de>
    50202234:	0008a703          	lw	a4,0(a7)
    50202238:	6390                	ld	a2,0(a5)
    5020223a:	fae5d9e3          	bge	a1,a4,502021ec <update_scheduler_slices+0x17e>
    5020223e:	04063423          	sd	zero,72(a2)
    50202242:	0891                	addi	a7,a7,4
    50202244:	07a1                	addi	a5,a5,8
    50202246:	0e11                	addi	t3,t3,4
    50202248:	ff1816e3          	bne	a6,a7,50202234 <update_scheduler_slices+0x1c6>
    5020224c:	6111                	addi	sp,sp,256
    5020224e:	8082                	ret
    50202250:	040e9b63          	bnez	t4,502022a6 <update_scheduler_slices+0x238>
    50202254:	4705                	li	a4,1
    50202256:	058e                	slli	a1,a1,0x3
    50202258:	02071693          	slli	a3,a4,0x20
    5020225c:	87aa                	mv	a5,a0
    5020225e:	95aa                	add	a1,a1,a0
    50202260:	96ba                	add	a3,a3,a4
    50202262:	6398                	ld	a4,0(a5)
    50202264:	07a1                	addi	a5,a5,8
    50202266:	e734                	sd	a3,72(a4)
    50202268:	fef59de3          	bne	a1,a5,50202262 <update_scheduler_slices+0x1f4>
    5020226c:	6111                	addi	sp,sp,256
    5020226e:	8082                	ret
    50202270:	078a                	slli	a5,a5,0x2
    50202272:	3e800693          	li	a3,1000
    50202276:	978a                	add	a5,a5,sp
    50202278:	860a                	mv	a2,sp
    5020227a:	c394                	sw	a3,0(a5)
    5020227c:	b5fd                	j	5020216a <update_scheduler_slices+0xfc>
    5020227e:	fc0207e3          	beqz	tp,5020224c <update_scheduler_slices+0x1de>
    50202282:	02022783          	lw	a5,32(tp) # 20 <_start-0x50200fe0>
    50202286:	d3f9                	beqz	a5,5020224c <update_scheduler_slices+0x1de>
    50202288:	4585                	li	a1,1
    5020228a:	4781                	li	a5,0
    5020228c:	b559                	j	50202112 <update_scheduler_slices+0xa4>
    5020228e:	1f400693          	li	a3,500
    50202292:	4107073b          	subw	a4,a4,a6
    50202296:	02e6873b          	mulw	a4,a3,a4
    5020229a:	4106063b          	subw	a2,a2,a6
    5020229e:	02c7473b          	divw	a4,a4,a2
    502022a2:	9f35                	addw	a4,a4,a3
    502022a4:	b56d                	j	5020214e <update_scheduler_slices+0xe0>
    502022a6:	4f81                	li	t6,0
    502022a8:	b721                	j	502021b0 <update_scheduler_slices+0x142>

00000000502022aa <do_scheduler>:
    502022aa:	1101                	addi	sp,sp,-32
    502022ac:	ec06                	sd	ra,24(sp)
    502022ae:	ca9ff0ef          	jal	50201f56 <check_sleeping>
    502022b2:	02022703          	lw	a4,32(tp) # 20 <_start-0x50200fe0>
    502022b6:	8792                	mv	a5,tp
    502022b8:	eb19                	bnez	a4,502022ce <do_scheduler+0x24>
    502022ba:	53d8                	lw	a4,36(a5)
    502022bc:	4689                	li	a3,2
    502022be:	02d70063          	beq	a4,a3,502022de <do_scheduler+0x34>
    502022c2:	4605                	li	a2,1
    502022c4:	02c70263          	beq	a4,a2,502022e8 <do_scheduler+0x3e>
    502022c8:	60e2                	ld	ra,24(sp)
    502022ca:	6105                	addi	sp,sp,32
    502022cc:	8082                	ret
    502022ce:	e412                	sd	tp,8(sp)
    502022d0:	d9fff0ef          	jal	5020206e <update_scheduler_slices>
    502022d4:	67a2                	ld	a5,8(sp)
    502022d6:	4689                	li	a3,2
    502022d8:	53d8                	lw	a4,36(a5)
    502022da:	fed714e3          	bne	a4,a3,502022c2 <do_scheduler+0x18>
    502022de:	60e2                	ld	ra,24(sp)
    502022e0:	4705                	li	a4,1
    502022e2:	d3d8                	sw	a4,36(a5)
    502022e4:	6105                	addi	sp,sp,32
    502022e6:	8082                	ret
    502022e8:	5398                	lw	a4,32(a5)
    502022ea:	c715                	beqz	a4,50202316 <do_scheduler+0x6c>
    502022ec:	47f8                	lw	a4,76(a5)
    502022ee:	fce04de3          	bgtz	a4,502022c8 <do_scheduler+0x1e>
    502022f2:	d3d4                	sw	a3,36(a5)
    502022f4:	00001697          	auipc	a3,0x1
    502022f8:	79c68693          	addi	a3,a3,1948 # 50203a90 <ready_queue>
    502022fc:	6298                	ld	a4,0(a3)
    502022fe:	06d70163          	beq	a4,a3,50202360 <do_scheduler+0xb6>
    50202302:	47a8                	lw	a0,72(a5)
    50202304:	668c                	ld	a1,8(a3)
    50202306:	01078613          	addi	a2,a5,16
    5020230a:	c7e8                	sw	a0,76(a5)
    5020230c:	e190                	sd	a2,0(a1)
    5020230e:	eb98                	sd	a4,16(a5)
    50202310:	e710                	sd	a2,8(a4)
    50202312:	ef8c                	sd	a1,24(a5)
    50202314:	a831                	j	50202330 <do_scheduler+0x86>
    50202316:	d3d4                	sw	a3,36(a5)
    50202318:	00001697          	auipc	a3,0x1
    5020231c:	77868693          	addi	a3,a3,1912 # 50203a90 <ready_queue>
    50202320:	6298                	ld	a4,0(a3)
    50202322:	02d70663          	beq	a4,a3,5020234e <do_scheduler+0xa4>
    50202326:	6690                	ld	a2,8(a3)
    50202328:	47ac                	lw	a1,72(a5)
    5020232a:	e710                	sd	a2,8(a4)
    5020232c:	e218                	sd	a4,0(a2)
    5020232e:	c7ec                	sw	a1,76(a5)
    50202330:	6310                	ld	a2,0(a4)
    50202332:	6388                	ld	a0,0(a5)
    50202334:	ff073583          	ld	a1,-16(a4)
    50202338:	e290                	sd	a2,0(a3)
    5020233a:	6710                	ld	a2,8(a4)
    5020233c:	60e2                	ld	ra,24(sp)
    5020233e:	4785                	li	a5,1
    50202340:	e690                	sd	a2,8(a3)
    50202342:	cb5c                	sw	a5,20(a4)
    50202344:	ff070213          	addi	tp,a4,-16
    50202348:	6105                	addi	sp,sp,32
    5020234a:	9daff06f          	j	50201524 <switch_to>
    5020234e:	00003683          	ld	a3,0(zero) # 0 <_start-0x50201000>
    50202352:	47b0                	lw	a2,72(a5)
    50202354:	e314                	sd	a3,0(a4)
    50202356:	00803683          	ld	a3,8(zero) # 8 <_start-0x50200ff8>
    5020235a:	c7f0                	sw	a2,76(a5)
    5020235c:	e714                	sd	a3,8(a4)
    5020235e:	9002                	ebreak
    50202360:	47b8                	lw	a4,72(a5)
    50202362:	00803683          	ld	a3,8(zero) # 8 <_start-0x50200ff8>
    50202366:	c7f8                	sw	a4,76(a5)
    50202368:	9002                	ebreak

000000005020236a <get_virtual_progress>:
    5020236a:	413c                	lw	a5,64(a0)
    5020236c:	03b00713          	li	a4,59
    50202370:	04f74663          	blt	a4,a5,502023bc <get_virtual_progress+0x52>
    50202374:	02f05963          	blez	a5,502023a6 <get_virtual_progress+0x3c>
    50202378:	4170                	lw	a2,68(a0)
    5020237a:	03c00693          	li	a3,60
    5020237e:	40f687bb          	subw	a5,a3,a5
    50202382:	02c7c563          	blt	a5,a2,502023ac <get_virtual_progress+0x42>
    50202386:	1f400713          	li	a4,500
    5020238a:	9f91                	subw	a5,a5,a2
    5020238c:	02f707bb          	mulw	a5,a4,a5
    50202390:	9e91                	subw	a3,a3,a2
    50202392:	02d7c7bb          	divw	a5,a5,a3
    50202396:	9fb9                	addw	a5,a5,a4
    50202398:	3e800713          	li	a4,1000
    5020239c:	0007851b          	sext.w	a0,a5
    502023a0:	00f74363          	blt	a4,a5,502023a6 <get_virtual_progress+0x3c>
    502023a4:	8082                	ret
    502023a6:	3e800513          	li	a0,1000
    502023aa:	8082                	ret
    502023ac:	1f400713          	li	a4,500
    502023b0:	02e787b3          	mul	a5,a5,a4
    502023b4:	02c7c7b3          	div	a5,a5,a2
    502023b8:	2781                	sext.w	a5,a5
    502023ba:	bff9                	j	50202398 <get_virtual_progress+0x2e>
    502023bc:	4501                	li	a0,0
    502023be:	8082                	ret

00000000502023c0 <get_ticks>:
    502023c0:	c0102573          	rdtime	a0
    502023c4:	00001797          	auipc	a5,0x1
    502023c8:	78a7b223          	sd	a0,1924(a5) # 50203b48 <time_elapsed>
    502023cc:	8082                	ret

00000000502023ce <get_timer>:
    502023ce:	c01027f3          	rdtime	a5
    502023d2:	00001517          	auipc	a0,0x1
    502023d6:	76e53503          	ld	a0,1902(a0) # 50203b40 <time_base>
    502023da:	00001717          	auipc	a4,0x1
    502023de:	76f73723          	sd	a5,1902(a4) # 50203b48 <time_elapsed>
    502023e2:	02a7d533          	divu	a0,a5,a0
    502023e6:	8082                	ret

00000000502023e8 <get_time_base>:
    502023e8:	00001517          	auipc	a0,0x1
    502023ec:	75853503          	ld	a0,1880(a0) # 50203b40 <time_base>
    502023f0:	8082                	ret

00000000502023f2 <latency>:
    502023f2:	c01026f3          	rdtime	a3
    502023f6:	00001617          	auipc	a2,0x1
    502023fa:	74a60613          	addi	a2,a2,1866 # 50203b40 <time_base>
    502023fe:	621c                	ld	a5,0(a2)
    50202400:	02f6d6b3          	divu	a3,a3,a5
    50202404:	c01027f3          	rdtime	a5
    50202408:	6218                	ld	a4,0(a2)
    5020240a:	00001597          	auipc	a1,0x1
    5020240e:	72f5bf23          	sd	a5,1854(a1) # 50203b48 <time_elapsed>
    50202412:	02e7d7b3          	divu	a5,a5,a4
    50202416:	8f95                	sub	a5,a5,a3
    50202418:	fea7e6e3          	bltu	a5,a0,50202404 <latency+0x12>
    5020241c:	8082                	ret

000000005020241e <handle_syscall>:
    5020241e:	6558                	ld	a4,136(a0)
    50202420:	00004797          	auipc	a5,0x4
    50202424:	21078793          	addi	a5,a5,528 # 50206630 <syscall>
    50202428:	1141                	addi	sp,sp,-16
    5020242a:	070e                	slli	a4,a4,0x3
    5020242c:	97ba                	add	a5,a5,a4
    5020242e:	e022                	sd	s0,0(sp)
    50202430:	7130                	ld	a2,96(a0)
    50202432:	842a                	mv	s0,a0
    50202434:	639c                	ld	a5,0(a5)
    50202436:	6d2c                	ld	a1,88(a0)
    50202438:	6928                	ld	a0,80(a0)
    5020243a:	e406                	sd	ra,8(sp)
    5020243c:	9782                	jalr	a5
    5020243e:	10843783          	ld	a5,264(s0)
    50202442:	60a2                	ld	ra,8(sp)
    50202444:	e828                	sd	a0,80(s0)
    50202446:	0791                	addi	a5,a5,4
    50202448:	10f43423          	sd	a5,264(s0)
    5020244c:	6402                	ld	s0,0(sp)
    5020244e:	0141                	addi	sp,sp,16
    50202450:	8082                	ret

0000000050202452 <bios_putstr>:
    50202452:	520007b7          	lui	a5,0x52000
    50202456:	f0078793          	addi	a5,a5,-256 # 51ffff00 <__BSS_END__+0x1df95d0>
    5020245a:	639c                	ld	a5,0(a5)
    5020245c:	4701                	li	a4,0
    5020245e:	4681                	li	a3,0
    50202460:	4601                	li	a2,0
    50202462:	4581                	li	a1,0
    50202464:	8782                	jr	a5

0000000050202466 <bios_logging>:
    50202466:	520007b7          	lui	a5,0x52000
    5020246a:	f2878793          	addi	a5,a5,-216 # 51ffff28 <__BSS_END__+0x1df95f8>
    5020246e:	639c                	ld	a5,0(a5)
    50202470:	4701                	li	a4,0
    50202472:	4681                	li	a3,0
    50202474:	4601                	li	a2,0
    50202476:	4581                	li	a1,0
    50202478:	8782                	jr	a5

000000005020247a <_output_wrapper>:
    5020247a:	1141                	addi	sp,sp,-16
    5020247c:	e406                	sd	ra,8(sp)
    5020247e:	ce8ff0ef          	jal	50201966 <screen_write>
    50202482:	60a2                	ld	ra,8(sp)
    50202484:	0141                	addi	sp,sp,16
    50202486:	d0eff06f          	j	50201994 <screen_reflush>

000000005020248a <mini_itoa.part.0>:
    5020248a:	12055c63          	bgez	a0,502025c2 <mini_itoa.part.0+0x138>
    5020248e:	03f69313          	slli	t1,a3,0x3f
    50202492:	03f35893          	srli	a7,t1,0x3f
    50202496:	12089663          	bnez	a7,502025c2 <mini_itoa.part.0+0x138>
    5020249a:	40a00533          	neg	a0,a0
    5020249e:	4f05                	li	t5,1
    502024a0:	0016f893          	andi	a7,a3,1
    502024a4:	06100e93          	li	t4,97
    502024a8:	00088463          	beqz	a7,502024b0 <mini_itoa.part.0+0x26>
    502024ac:	04100e93          	li	t4,65
    502024b0:	1582                	slli	a1,a1,0x20
    502024b2:	3ed9                	addiw	t4,t4,-10
    502024b4:	00170893          	addi	a7,a4,1
    502024b8:	9181                	srli	a1,a1,0x20
    502024ba:	4fa5                	li	t6,9
    502024bc:	4e25                	li	t3,9
    502024be:	ce81                	beqz	a3,502024d6 <mini_itoa.part.0+0x4c>
    502024c0:	a85d                	j	50202576 <mini_itoa.part.0+0xec>
    502024c2:	01d68fbb          	addw	t6,a3,t4
    502024c6:	ea65                	bnez	a2,502025b6 <mini_itoa.part.0+0x12c>
    502024c8:	4341                	li	t1,16
    502024ca:	02654533          	div	a0,a0,t1
    502024ce:	fff88fa3          	sb	t6,-1(a7)
    502024d2:	cd11                	beqz	a0,502024ee <mini_itoa.part.0+0x64>
    502024d4:	0885                	addi	a7,a7,1
    502024d6:	02b566b3          	rem	a3,a0,a1
    502024da:	832e                	mv	t1,a1
    502024dc:	fede43e3          	blt	t3,a3,502024c2 <mini_itoa.part.0+0x38>
    502024e0:	0306869b          	addiw	a3,a3,48
    502024e4:	fed88fa3          	sb	a3,-1(a7)
    502024e8:	02654533          	div	a0,a0,t1
    502024ec:	f565                	bnez	a0,502024d4 <mini_itoa.part.0+0x4a>
    502024ee:	40e886bb          	subw	a3,a7,a4
    502024f2:	02f6f263          	bgeu	a3,a5,50202516 <mini_itoa.part.0+0x8c>
    502024f6:	fff7861b          	addiw	a2,a5,-1
    502024fa:	9e15                	subw	a2,a2,a3
    502024fc:	1602                	slli	a2,a2,0x20
    502024fe:	9201                	srli	a2,a2,0x20
    50202500:	00160693          	addi	a3,a2,1
    50202504:	87c6                	mv	a5,a7
    50202506:	96c6                	add	a3,a3,a7
    50202508:	0785                	addi	a5,a5,1
    5020250a:	ff078fa3          	sb	a6,-1(a5)
    5020250e:	fed79de3          	bne	a5,a3,50202508 <mini_itoa.part.0+0x7e>
    50202512:	0885                	addi	a7,a7,1
    50202514:	98b2                	add	a7,a7,a2
    50202516:	000f0763          	beqz	t5,50202524 <mini_itoa.part.0+0x9a>
    5020251a:	02d00793          	li	a5,45
    5020251e:	00f88023          	sb	a5,0(a7)
    50202522:	0885                	addi	a7,a7,1
    50202524:	40e8853b          	subw	a0,a7,a4
    50202528:	00088023          	sb	zero,0(a7)
    5020252c:	0015589b          	srliw	a7,a0,0x1
    50202530:	08088863          	beqz	a7,502025c0 <mini_itoa.part.0+0x136>
    50202534:	fff7081b          	addiw	a6,a4,-1
    50202538:	98ba                	add	a7,a7,a4
    5020253a:	00a8083b          	addw	a6,a6,a0
    5020253e:	86ba                	mv	a3,a4
    50202540:	40d807bb          	subw	a5,a6,a3
    50202544:	1782                	slli	a5,a5,0x20
    50202546:	9381                	srli	a5,a5,0x20
    50202548:	97ba                	add	a5,a5,a4
    5020254a:	0007c583          	lbu	a1,0(a5)
    5020254e:	0006c603          	lbu	a2,0(a3)
    50202552:	0685                	addi	a3,a3,1
    50202554:	feb68fa3          	sb	a1,-1(a3)
    50202558:	00c78023          	sb	a2,0(a5)
    5020255c:	fed892e3          	bne	a7,a3,50202540 <mini_itoa.part.0+0xb6>
    50202560:	8082                	ret
    50202562:	4e41                	li	t3,16
    50202564:	0306869b          	addiw	a3,a3,48
    50202568:	fed88fa3          	sb	a3,-1(a7)
    5020256c:	f9c361e3          	bltu	t1,t3,502024ee <mini_itoa.part.0+0x64>
    50202570:	03c35533          	divu	a0,t1,t3
    50202574:	0885                	addi	a7,a7,1
    50202576:	832a                	mv	t1,a0
    50202578:	8e2e                	mv	t3,a1
    5020257a:	02b576b3          	remu	a3,a0,a1
    5020257e:	fedff3e3          	bgeu	t6,a3,50202564 <mini_itoa.part.0+0xda>
    50202582:	c605                	beqz	a2,502025aa <mini_itoa.part.0+0x120>
    50202584:	01d686bb          	addw	a3,a3,t4
    50202588:	fed88fa3          	sb	a3,-1(a7)
    5020258c:	00455313          	srli	t1,a0,0x4
    50202590:	00f37693          	andi	a3,t1,15
    50202594:	f4030de3          	beqz	t1,502024ee <mini_itoa.part.0+0x64>
    50202598:	0885                	addi	a7,a7,1
    5020259a:	fcdff4e3          	bgeu	t6,a3,50202562 <mini_itoa.part.0+0xd8>
    5020259e:	01d686bb          	addw	a3,a3,t4
    502025a2:	fed88fa3          	sb	a3,-1(a7)
    502025a6:	851a                	mv	a0,t1
    502025a8:	b7d5                	j	5020258c <mini_itoa.part.0+0x102>
    502025aa:	0576869b          	addiw	a3,a3,87
    502025ae:	fed88fa3          	sb	a3,-1(a7)
    502025b2:	4e41                	li	t3,16
    502025b4:	bf65                	j	5020256c <mini_itoa.part.0+0xe2>
    502025b6:	0376869b          	addiw	a3,a3,55
    502025ba:	fed88fa3          	sb	a3,-1(a7)
    502025be:	b72d                	j	502024e8 <mini_itoa.part.0+0x5e>
    502025c0:	8082                	ret
    502025c2:	4f01                	li	t5,0
    502025c4:	bdf1                	j	502024a0 <mini_itoa.part.0+0x16>

00000000502025c6 <_vprint>:
    502025c6:	7125                	addi	sp,sp,-416
    502025c8:	fece                	sd	s3,376(sp)
    502025ca:	ef06                	sd	ra,408(sp)
    502025cc:	fad2                	sd	s4,368(sp)
    502025ce:	f6d6                	sd	s5,360(sp)
    502025d0:	00054783          	lbu	a5,0(a0)
    502025d4:	89b2                	mv	s3,a2
    502025d6:	38078363          	beqz	a5,5020295c <_vprint+0x396>
    502025da:	03010a13          	addi	s4,sp,48
    502025de:	eb22                	sd	s0,400(sp)
    502025e0:	e726                	sd	s1,392(sp)
    502025e2:	f2da                	sd	s6,352(sp)
    502025e4:	eede                	sd	s7,344(sp)
    502025e6:	eae2                	sd	s8,336(sp)
    502025e8:	e6e6                	sd	s9,328(sp)
    502025ea:	e2ea                	sd	s10,320(sp)
    502025ec:	fe6e                	sd	s11,312(sp)
    502025ee:	e34a                	sd	s2,384(sp)
    502025f0:	842a                	mv	s0,a0
    502025f2:	84d2                	mv	s1,s4
    502025f4:	00150613          	addi	a2,a0,1
    502025f8:	0ff00b13          	li	s6,255
    502025fc:	02500b93          	li	s7,37
    50202600:	4ca5                	li	s9,9
    50202602:	02000d13          	li	s10,32
    50202606:	00001c17          	auipc	s8,0x1
    5020260a:	a72c0c13          	addi	s8,s8,-1422 # 50203078 <__FUNCTION__.0+0x10>
    5020260e:	06c00d93          	li	s11,108
    50202612:	a005                	j	50202632 <_vprint+0x6c>
    50202614:	00148713          	addi	a4,s1,1
    50202618:	00f48023          	sb	a5,0(s1)
    5020261c:	000480a3          	sb	zero,1(s1)
    50202620:	8432                	mv	s0,a2
    50202622:	41470933          	sub	s2,a4,s4
    50202626:	84ba                	mv	s1,a4
    50202628:	00044783          	lbu	a5,0(s0)
    5020262c:	00140613          	addi	a2,s0,1
    50202630:	c3cd                	beqz	a5,502026d2 <_vprint+0x10c>
    50202632:	41448933          	sub	s2,s1,s4
    50202636:	0019071b          	addiw	a4,s2,1
    5020263a:	00090a9b          	sext.w	s5,s2
    5020263e:	08eb6c63          	bltu	s6,a4,502026d6 <_vprint+0x110>
    50202642:	fd7799e3          	bne	a5,s7,50202614 <_vprint+0x4e>
    50202646:	00144683          	lbu	a3,1(s0)
    5020264a:	fd06879b          	addiw	a5,a3,-48
    5020264e:	0ff7f793          	zext.b	a5,a5
    50202652:	02fcf563          	bgeu	s9,a5,5020267c <_vprint+0xb6>
    50202656:	0409                	addi	s0,s0,2
    50202658:	02000813          	li	a6,32
    5020265c:	4781                	li	a5,0
    5020265e:	4601                	li	a2,0
    50202660:	07b68463          	beq	a3,s11,502026c8 <_vprint+0x102>
    50202664:	caad                	beqz	a3,502026d6 <_vprint+0x110>
    50202666:	fa86871b          	addiw	a4,a3,-88
    5020266a:	0ff77713          	zext.b	a4,a4
    5020266e:	08ed6a63          	bltu	s10,a4,50202702 <_vprint+0x13c>
    50202672:	070a                	slli	a4,a4,0x2
    50202674:	9762                	add	a4,a4,s8
    50202676:	4318                	lw	a4,0(a4)
    50202678:	9762                	add	a4,a4,s8
    5020267a:	8702                	jr	a4
    5020267c:	03000793          	li	a5,48
    50202680:	02000813          	li	a6,32
    50202684:	00f69363          	bne	a3,a5,5020268a <_vprint+0xc4>
    50202688:	8836                	mv	a6,a3
    5020268a:	00064683          	lbu	a3,0(a2)
    5020268e:	c6a1                	beqz	a3,502026d6 <_vprint+0x110>
    50202690:	00160413          	addi	s0,a2,1
    50202694:	4781                	li	a5,0
    50202696:	4625                	li	a2,9
    50202698:	a829                	j	502026b2 <_vprint+0xec>
    5020269a:	0027971b          	slliw	a4,a5,0x2
    5020269e:	9f3d                	addw	a4,a4,a5
    502026a0:	0405                	addi	s0,s0,1
    502026a2:	0017171b          	slliw	a4,a4,0x1
    502026a6:	9f35                	addw	a4,a4,a3
    502026a8:	fff44683          	lbu	a3,-1(s0)
    502026ac:	fd07079b          	addiw	a5,a4,-48
    502026b0:	c29d                	beqz	a3,502026d6 <_vprint+0x110>
    502026b2:	fd06871b          	addiw	a4,a3,-48
    502026b6:	0ff77713          	zext.b	a4,a4
    502026ba:	fee670e3          	bgeu	a2,a4,5020269a <_vprint+0xd4>
    502026be:	06c00713          	li	a4,108
    502026c2:	4601                	li	a2,0
    502026c4:	fae691e3          	bne	a3,a4,50202666 <_vprint+0xa0>
    502026c8:	4605                	li	a2,1
    502026ca:	00044683          	lbu	a3,0(s0)
    502026ce:	9432                	add	s0,s0,a2
    502026d0:	bf51                	j	50202664 <_vprint+0x9e>
    502026d2:	00090a9b          	sext.w	s5,s2
    502026d6:	645a                	ld	s0,400(sp)
    502026d8:	64ba                	ld	s1,392(sp)
    502026da:	691a                	ld	s2,384(sp)
    502026dc:	7b16                	ld	s6,352(sp)
    502026de:	6bf6                	ld	s7,344(sp)
    502026e0:	6c56                	ld	s8,336(sp)
    502026e2:	6cb6                	ld	s9,328(sp)
    502026e4:	6d16                	ld	s10,320(sp)
    502026e6:	7df2                	ld	s11,312(sp)
    502026e8:	002a87b3          	add	a5,s5,sp
    502026ec:	8552                	mv	a0,s4
    502026ee:	02078823          	sb	zero,48(a5)
    502026f2:	9982                	jalr	s3
    502026f4:	60fa                	ld	ra,408(sp)
    502026f6:	79f6                	ld	s3,376(sp)
    502026f8:	7a56                	ld	s4,368(sp)
    502026fa:	8556                	mv	a0,s5
    502026fc:	7ab6                	ld	s5,360(sp)
    502026fe:	611d                	addi	sp,sp,416
    50202700:	8082                	ret
    50202702:	00148793          	addi	a5,s1,1
    50202706:	00d48023          	sb	a3,0(s1)
    5020270a:	000480a3          	sb	zero,1(s1)
    5020270e:	41478933          	sub	s2,a5,s4
    50202712:	84be                	mv	s1,a5
    50202714:	bf11                	j	50202628 <_vprint+0x62>
    50202716:	00858893          	addi	a7,a1,8
    5020271a:	1e061963          	bnez	a2,5020290c <_vprint+0x346>
    5020271e:	0005e503          	lwu	a0,0(a1)
    50202722:	fa868693          	addi	a3,a3,-88
    50202726:	0838                	addi	a4,sp,24
    50202728:	0016b613          	seqz	a2,a3
    5020272c:	45c1                	li	a1,16
    5020272e:	4685                	li	a3,1
    50202730:	e446                	sd	a7,8(sp)
    50202732:	e03a                	sd	a4,0(sp)
    50202734:	d57ff0ef          	jal	5020248a <mini_itoa.part.0>
    50202738:	02051613          	slli	a2,a0,0x20
    5020273c:	10000793          	li	a5,256
    50202740:	9201                	srli	a2,a2,0x20
    50202742:	412787b3          	sub	a5,a5,s2
    50202746:	6702                	ld	a4,0(sp)
    50202748:	68a2                	ld	a7,8(sp)
    5020274a:	1af64e63          	blt	a2,a5,50202906 <_vprint+0x340>
    5020274e:	0ff00513          	li	a0,255
    50202752:	4155053b          	subw	a0,a0,s5
    50202756:	02051613          	slli	a2,a0,0x20
    5020275a:	9201                	srli	a2,a2,0x20
    5020275c:	963a                	add	a2,a2,a4
    5020275e:	87a6                	mv	a5,s1
    50202760:	00074683          	lbu	a3,0(a4)
    50202764:	0705                	addi	a4,a4,1
    50202766:	0785                	addi	a5,a5,1
    50202768:	fed78fa3          	sb	a3,-1(a5)
    5020276c:	fee61ae3          	bne	a2,a4,50202760 <_vprint+0x19a>
    50202770:	357d                	addiw	a0,a0,-1
    50202772:	1502                	slli	a0,a0,0x20
    50202774:	9101                	srli	a0,a0,0x20
    50202776:	0485                	addi	s1,s1,1
    50202778:	94aa                	add	s1,s1,a0
    5020277a:	41448933          	sub	s2,s1,s4
    5020277e:	00048023          	sb	zero,0(s1)
    50202782:	85c6                	mv	a1,a7
    50202784:	b555                	j	50202628 <_vprint+0x62>
    50202786:	00858893          	addi	a7,a1,8
    5020278a:	18061663          	bnez	a2,50202916 <_vprint+0x350>
    5020278e:	0005e503          	lwu	a0,0(a1)
    50202792:	0838                	addi	a4,sp,24
    50202794:	4601                	li	a2,0
    50202796:	4685                	li	a3,1
    50202798:	45a9                	li	a1,10
    5020279a:	e446                	sd	a7,8(sp)
    5020279c:	e03a                	sd	a4,0(sp)
    5020279e:	cedff0ef          	jal	5020248a <mini_itoa.part.0>
    502027a2:	02051613          	slli	a2,a0,0x20
    502027a6:	10000793          	li	a5,256
    502027aa:	9201                	srli	a2,a2,0x20
    502027ac:	412787b3          	sub	a5,a5,s2
    502027b0:	6702                	ld	a4,0(sp)
    502027b2:	68a2                	ld	a7,8(sp)
    502027b4:	14f64e63          	blt	a2,a5,50202910 <_vprint+0x34a>
    502027b8:	0ff00513          	li	a0,255
    502027bc:	4155053b          	subw	a0,a0,s5
    502027c0:	02051613          	slli	a2,a0,0x20
    502027c4:	9201                	srli	a2,a2,0x20
    502027c6:	963a                	add	a2,a2,a4
    502027c8:	87a6                	mv	a5,s1
    502027ca:	00074683          	lbu	a3,0(a4)
    502027ce:	0705                	addi	a4,a4,1
    502027d0:	0785                	addi	a5,a5,1
    502027d2:	fed78fa3          	sb	a3,-1(a5)
    502027d6:	fec71ae3          	bne	a4,a2,502027ca <_vprint+0x204>
    502027da:	bf59                	j	50202770 <_vprint+0x1aa>
    502027dc:	6198                	ld	a4,0(a1)
    502027de:	00858813          	addi	a6,a1,8
    502027e2:	00074683          	lbu	a3,0(a4)
    502027e6:	14068a63          	beqz	a3,5020293a <_vprint+0x374>
    502027ea:	4681                	li	a3,0
    502027ec:	2685                	addiw	a3,a3,1
    502027ee:	02069613          	slli	a2,a3,0x20
    502027f2:	9201                	srli	a2,a2,0x20
    502027f4:	00c705b3          	add	a1,a4,a2
    502027f8:	0005c583          	lbu	a1,0(a1)
    502027fc:	f9e5                	bnez	a1,502027ec <_vprint+0x226>
    502027fe:	10000593          	li	a1,256
    50202802:	412585b3          	sub	a1,a1,s2
    50202806:	10b64e63          	blt	a2,a1,50202922 <_vprint+0x35c>
    5020280a:	0ff00893          	li	a7,255
    5020280e:	415888bb          	subw	a7,a7,s5
    50202812:	02089513          	slli	a0,a7,0x20
    50202816:	9101                	srli	a0,a0,0x20
    50202818:	8626                	mv	a2,s1
    5020281a:	9526                	add	a0,a0,s1
    5020281c:	00074583          	lbu	a1,0(a4)
    50202820:	0605                	addi	a2,a2,1
    50202822:	0705                	addi	a4,a4,1
    50202824:	feb60fa3          	sb	a1,-1(a2)
    50202828:	fea61ae3          	bne	a2,a0,5020281c <_vprint+0x256>
    5020282c:	38fd                	addiw	a7,a7,-1
    5020282e:	1882                	slli	a7,a7,0x20
    50202830:	0208d893          	srli	a7,a7,0x20
    50202834:	0485                	addi	s1,s1,1
    50202836:	94c6                	add	s1,s1,a7
    50202838:	00048023          	sb	zero,0(s1)
    5020283c:	85c2                	mv	a1,a6
    5020283e:	41448933          	sub	s2,s1,s4
    50202842:	def6f3e3          	bgeu	a3,a5,50202628 <_vprint+0x62>
    50202846:	9f95                	subw	a5,a5,a3
    50202848:	02079693          	slli	a3,a5,0x20
    5020284c:	10000713          	li	a4,256
    50202850:	9281                	srli	a3,a3,0x20
    50202852:	41270733          	sub	a4,a4,s2
    50202856:	00e6cf63          	blt	a3,a4,50202874 <_vprint+0x2ae>
    5020285a:	00090a9b          	sext.w	s5,s2
    5020285e:	0ff00793          	li	a5,255
    50202862:	02fa8963          	beq	s5,a5,50202894 <_vprint+0x2ce>
    50202866:	0ff00793          	li	a5,255
    5020286a:	415787bb          	subw	a5,a5,s5
    5020286e:	02079693          	slli	a3,a5,0x20
    50202872:	9281                	srli	a3,a3,0x20
    50202874:	96a6                	add	a3,a3,s1
    50202876:	8726                	mv	a4,s1
    50202878:	02000613          	li	a2,32
    5020287c:	00c70023          	sb	a2,0(a4)
    50202880:	0705                	addi	a4,a4,1
    50202882:	fee69de3          	bne	a3,a4,5020287c <_vprint+0x2b6>
    50202886:	37fd                	addiw	a5,a5,-1
    50202888:	1782                	slli	a5,a5,0x20
    5020288a:	9381                	srli	a5,a5,0x20
    5020288c:	0485                	addi	s1,s1,1
    5020288e:	94be                	add	s1,s1,a5
    50202890:	41448933          	sub	s2,s1,s4
    50202894:	00048023          	sb	zero,0(s1)
    50202898:	85c2                	mv	a1,a6
    5020289a:	b379                	j	50202628 <_vprint+0x62>
    5020289c:	00858893          	addi	a7,a1,8
    502028a0:	ee3d                	bnez	a2,5020291e <_vprint+0x358>
    502028a2:	4188                	lw	a0,0(a1)
    502028a4:	0838                	addi	a4,sp,24
    502028a6:	4601                	li	a2,0
    502028a8:	4681                	li	a3,0
    502028aa:	45a9                	li	a1,10
    502028ac:	e446                	sd	a7,8(sp)
    502028ae:	e03a                	sd	a4,0(sp)
    502028b0:	bdbff0ef          	jal	5020248a <mini_itoa.part.0>
    502028b4:	02051613          	slli	a2,a0,0x20
    502028b8:	10000793          	li	a5,256
    502028bc:	9201                	srli	a2,a2,0x20
    502028be:	412787b3          	sub	a5,a5,s2
    502028c2:	6702                	ld	a4,0(sp)
    502028c4:	68a2                	ld	a7,8(sp)
    502028c6:	04f64a63          	blt	a2,a5,5020291a <_vprint+0x354>
    502028ca:	0ff00513          	li	a0,255
    502028ce:	4155053b          	subw	a0,a0,s5
    502028d2:	02051613          	slli	a2,a0,0x20
    502028d6:	9201                	srli	a2,a2,0x20
    502028d8:	963a                	add	a2,a2,a4
    502028da:	87a6                	mv	a5,s1
    502028dc:	00074683          	lbu	a3,0(a4)
    502028e0:	0705                	addi	a4,a4,1
    502028e2:	0785                	addi	a5,a5,1
    502028e4:	fed78fa3          	sb	a3,-1(a5)
    502028e8:	fec71ae3          	bne	a4,a2,502028dc <_vprint+0x316>
    502028ec:	b551                	j	50202770 <_vprint+0x1aa>
    502028ee:	4198                	lw	a4,0(a1)
    502028f0:	00148793          	addi	a5,s1,1
    502028f4:	000480a3          	sb	zero,1(s1)
    502028f8:	00e48023          	sb	a4,0(s1)
    502028fc:	05a1                	addi	a1,a1,8
    502028fe:	41478933          	sub	s2,a5,s4
    50202902:	84be                	mv	s1,a5
    50202904:	b315                	j	50202628 <_vprint+0x62>
    50202906:	e4051be3          	bnez	a0,5020275c <_vprint+0x196>
    5020290a:	bd95                	j	5020277e <_vprint+0x1b8>
    5020290c:	6188                	ld	a0,0(a1)
    5020290e:	bd11                	j	50202722 <_vprint+0x15c>
    50202910:	ea051be3          	bnez	a0,502027c6 <_vprint+0x200>
    50202914:	b5ad                	j	5020277e <_vprint+0x1b8>
    50202916:	6188                	ld	a0,0(a1)
    50202918:	bdad                	j	50202792 <_vprint+0x1cc>
    5020291a:	fd5d                	bnez	a0,502028d8 <_vprint+0x312>
    5020291c:	b58d                	j	5020277e <_vprint+0x1b8>
    5020291e:	6188                	ld	a0,0(a1)
    50202920:	b751                	j	502028a4 <_vprint+0x2de>
    50202922:	88b6                	mv	a7,a3
    50202924:	ee0697e3          	bnez	a3,50202812 <_vprint+0x24c>
    50202928:	00048023          	sb	zero,0(s1)
    5020292c:	d7b5                	beqz	a5,50202898 <_vprint+0x2d2>
    5020292e:	02079693          	slli	a3,a5,0x20
    50202932:	9281                	srli	a3,a3,0x20
    50202934:	f4b6c0e3          	blt	a3,a1,50202874 <_vprint+0x2ae>
    50202938:	b73d                	j	50202866 <_vprint+0x2a0>
    5020293a:	0ff00893          	li	a7,255
    5020293e:	0328c363          	blt	a7,s2,50202964 <_vprint+0x39e>
    50202942:	00048023          	sb	zero,0(s1)
    50202946:	dba9                	beqz	a5,50202898 <_vprint+0x2d2>
    50202948:	10000713          	li	a4,256
    5020294c:	02079693          	slli	a3,a5,0x20
    50202950:	41270733          	sub	a4,a4,s2
    50202954:	9281                	srli	a3,a3,0x20
    50202956:	f0e6cfe3          	blt	a3,a4,50202874 <_vprint+0x2ae>
    5020295a:	b731                	j	50202866 <_vprint+0x2a0>
    5020295c:	4a81                	li	s5,0
    5020295e:	03010a13          	addi	s4,sp,48
    50202962:	b359                	j	502026e8 <_vprint+0x122>
    50202964:	415888bb          	subw	a7,a7,s5
    50202968:	4681                	li	a3,0
    5020296a:	b565                	j	50202812 <_vprint+0x24c>

000000005020296c <vprintk>:
    5020296c:	00000617          	auipc	a2,0x0
    50202970:	b0e60613          	addi	a2,a2,-1266 # 5020247a <_output_wrapper>
    50202974:	b989                	j	502025c6 <_vprint>

0000000050202976 <printk>:
    50202976:	711d                	addi	sp,sp,-96
    50202978:	02810313          	addi	t1,sp,40
    5020297c:	f42e                	sd	a1,40(sp)
    5020297e:	f832                	sd	a2,48(sp)
    50202980:	859a                	mv	a1,t1
    50202982:	00000617          	auipc	a2,0x0
    50202986:	af860613          	addi	a2,a2,-1288 # 5020247a <_output_wrapper>
    5020298a:	ec06                	sd	ra,24(sp)
    5020298c:	fc36                	sd	a3,56(sp)
    5020298e:	e0ba                	sd	a4,64(sp)
    50202990:	e4be                	sd	a5,72(sp)
    50202992:	e8c2                	sd	a6,80(sp)
    50202994:	ecc6                	sd	a7,88(sp)
    50202996:	e41a                	sd	t1,8(sp)
    50202998:	c2fff0ef          	jal	502025c6 <_vprint>
    5020299c:	60e2                	ld	ra,24(sp)
    5020299e:	6125                	addi	sp,sp,96
    502029a0:	8082                	ret

00000000502029a2 <printv>:
    502029a2:	711d                	addi	sp,sp,-96
    502029a4:	02810313          	addi	t1,sp,40
    502029a8:	f42e                	sd	a1,40(sp)
    502029aa:	f832                	sd	a2,48(sp)
    502029ac:	859a                	mv	a1,t1
    502029ae:	00000617          	auipc	a2,0x0
    502029b2:	aa460613          	addi	a2,a2,-1372 # 50202452 <bios_putstr>
    502029b6:	ec06                	sd	ra,24(sp)
    502029b8:	fc36                	sd	a3,56(sp)
    502029ba:	e0ba                	sd	a4,64(sp)
    502029bc:	e4be                	sd	a5,72(sp)
    502029be:	e8c2                	sd	a6,80(sp)
    502029c0:	ecc6                	sd	a7,88(sp)
    502029c2:	e41a                	sd	t1,8(sp)
    502029c4:	c03ff0ef          	jal	502025c6 <_vprint>
    502029c8:	60e2                	ld	ra,24(sp)
    502029ca:	6125                	addi	sp,sp,96
    502029cc:	8082                	ret

00000000502029ce <printl>:
    502029ce:	711d                	addi	sp,sp,-96
    502029d0:	02810313          	addi	t1,sp,40
    502029d4:	f42e                	sd	a1,40(sp)
    502029d6:	f832                	sd	a2,48(sp)
    502029d8:	859a                	mv	a1,t1
    502029da:	00000617          	auipc	a2,0x0
    502029de:	a8c60613          	addi	a2,a2,-1396 # 50202466 <bios_logging>
    502029e2:	ec06                	sd	ra,24(sp)
    502029e4:	fc36                	sd	a3,56(sp)
    502029e6:	e0ba                	sd	a4,64(sp)
    502029e8:	e4be                	sd	a5,72(sp)
    502029ea:	e8c2                	sd	a6,80(sp)
    502029ec:	ecc6                	sd	a7,88(sp)
    502029ee:	e41a                	sd	t1,8(sp)
    502029f0:	bd7ff0ef          	jal	502025c6 <_vprint>
    502029f4:	60e2                	ld	ra,24(sp)
    502029f6:	6125                	addi	sp,sp,96
    502029f8:	8082                	ret

00000000502029fa <memcpy>:
    502029fa:	ce01                	beqz	a2,50202a12 <memcpy+0x18>
    502029fc:	1602                	slli	a2,a2,0x20
    502029fe:	9201                	srli	a2,a2,0x20
    50202a00:	962a                	add	a2,a2,a0
    50202a02:	0005c783          	lbu	a5,0(a1)
    50202a06:	0505                	addi	a0,a0,1
    50202a08:	0585                	addi	a1,a1,1
    50202a0a:	fef50fa3          	sb	a5,-1(a0)
    50202a0e:	fec51ae3          	bne	a0,a2,50202a02 <memcpy+0x8>
    50202a12:	8082                	ret

0000000050202a14 <memset>:
    50202a14:	ca09                	beqz	a2,50202a26 <memset+0x12>
    50202a16:	1602                	slli	a2,a2,0x20
    50202a18:	9201                	srli	a2,a2,0x20
    50202a1a:	962a                	add	a2,a2,a0
    50202a1c:	0505                	addi	a0,a0,1
    50202a1e:	feb50fa3          	sb	a1,-1(a0)
    50202a22:	fec51de3          	bne	a0,a2,50202a1c <memset+0x8>
    50202a26:	8082                	ret

0000000050202a28 <bzero>:
    50202a28:	c989                	beqz	a1,50202a3a <bzero+0x12>
    50202a2a:	1582                	slli	a1,a1,0x20
    50202a2c:	9181                	srli	a1,a1,0x20
    50202a2e:	95aa                	add	a1,a1,a0
    50202a30:	0505                	addi	a0,a0,1
    50202a32:	fe050fa3          	sb	zero,-1(a0)
    50202a36:	feb51de3          	bne	a0,a1,50202a30 <bzero+0x8>
    50202a3a:	8082                	ret

0000000050202a3c <strlen>:
    50202a3c:	00054783          	lbu	a5,0(a0)
    50202a40:	cb99                	beqz	a5,50202a56 <strlen+0x1a>
    50202a42:	00150793          	addi	a5,a0,1
    50202a46:	86be                	mv	a3,a5
    50202a48:	0007c703          	lbu	a4,0(a5)
    50202a4c:	0785                	addi	a5,a5,1
    50202a4e:	ff65                	bnez	a4,50202a46 <strlen+0xa>
    50202a50:	40a6853b          	subw	a0,a3,a0
    50202a54:	8082                	ret
    50202a56:	4501                	li	a0,0
    50202a58:	8082                	ret

0000000050202a5a <strcmp>:
    50202a5a:	00054703          	lbu	a4,0(a0)
    50202a5e:	eb01                	bnez	a4,50202a6e <strcmp+0x14>
    50202a60:	a025                	j	50202a88 <strcmp+0x2e>
    50202a62:	00e79b63          	bne	a5,a4,50202a78 <strcmp+0x1e>
    50202a66:	00054703          	lbu	a4,0(a0)
    50202a6a:	cb11                	beqz	a4,50202a7e <strcmp+0x24>
    50202a6c:	0585                	addi	a1,a1,1
    50202a6e:	0005c783          	lbu	a5,0(a1)
    50202a72:	0505                	addi	a0,a0,1
    50202a74:	f7fd                	bnez	a5,50202a62 <strcmp+0x8>
    50202a76:	2701                	sext.w	a4,a4
    50202a78:	40f7053b          	subw	a0,a4,a5
    50202a7c:	8082                	ret
    50202a7e:	0015c783          	lbu	a5,1(a1)
    50202a82:	40f7053b          	subw	a0,a4,a5
    50202a86:	8082                	ret
    50202a88:	0005c783          	lbu	a5,0(a1)
    50202a8c:	b7f5                	j	50202a78 <strcmp+0x1e>

0000000050202a8e <strncmp>:
    50202a8e:	c21d                	beqz	a2,50202ab4 <strncmp+0x26>
    50202a90:	1602                	slli	a2,a2,0x20
    50202a92:	9201                	srli	a2,a2,0x20
    50202a94:	962a                	add	a2,a2,a0
    50202a96:	a031                	j	50202aa2 <strncmp+0x14>
    50202a98:	0585                	addi	a1,a1,1
    50202a9a:	00e79f63          	bne	a5,a4,50202ab8 <strncmp+0x2a>
    50202a9e:	00c50b63          	beq	a0,a2,50202ab4 <strncmp+0x26>
    50202aa2:	00054783          	lbu	a5,0(a0)
    50202aa6:	0005c703          	lbu	a4,0(a1)
    50202aaa:	0505                	addi	a0,a0,1
    50202aac:	f7f5                	bnez	a5,50202a98 <strncmp+0xa>
    50202aae:	4501                	li	a0,0
    50202ab0:	9d19                	subw	a0,a0,a4
    50202ab2:	8082                	ret
    50202ab4:	4501                	li	a0,0
    50202ab6:	8082                	ret
    50202ab8:	0007851b          	sext.w	a0,a5
    50202abc:	9d19                	subw	a0,a0,a4
    50202abe:	8082                	ret

0000000050202ac0 <strcpy>:
    50202ac0:	0005c783          	lbu	a5,0(a1)
    50202ac4:	872a                	mv	a4,a0
    50202ac6:	cb81                	beqz	a5,50202ad6 <strcpy+0x16>
    50202ac8:	0585                	addi	a1,a1,1
    50202aca:	00f70023          	sb	a5,0(a4)
    50202ace:	0005c783          	lbu	a5,0(a1)
    50202ad2:	0705                	addi	a4,a4,1
    50202ad4:	fbf5                	bnez	a5,50202ac8 <strcpy+0x8>
    50202ad6:	00070023          	sb	zero,0(a4)
    50202ada:	8082                	ret

0000000050202adc <strncpy>:
    50202adc:	0005c683          	lbu	a3,0(a1)
    50202ae0:	88b2                	mv	a7,a2
    50202ae2:	87aa                	mv	a5,a0
    50202ae4:	c685                	beqz	a3,50202b0c <strncpy+0x30>
    50202ae6:	fff6081b          	addiw	a6,a2,-1
    50202aea:	0105083b          	addw	a6,a0,a6
    50202aee:	9e29                	addw	a2,a2,a0
    50202af0:	a039                	j	50202afe <strncpy+0x22>
    50202af2:	00d78023          	sb	a3,0(a5)
    50202af6:	0005c683          	lbu	a3,0(a1)
    50202afa:	0785                	addi	a5,a5,1
    50202afc:	ca81                	beqz	a3,50202b0c <strncpy+0x30>
    50202afe:	40f6073b          	subw	a4,a2,a5
    50202b02:	0585                	addi	a1,a1,1
    50202b04:	40f808bb          	subw	a7,a6,a5
    50202b08:	fee045e3          	bgtz	a4,50202af2 <strncpy+0x16>
    50202b0c:	02089713          	slli	a4,a7,0x20
    50202b10:	9301                	srli	a4,a4,0x20
    50202b12:	973e                	add	a4,a4,a5
    50202b14:	01105863          	blez	a7,50202b24 <strncpy+0x48>
    50202b18:	0785                	addi	a5,a5,1
    50202b1a:	fe078fa3          	sb	zero,-1(a5)
    50202b1e:	fef71de3          	bne	a4,a5,50202b18 <strncpy+0x3c>
    50202b22:	8082                	ret
    50202b24:	8082                	ret

0000000050202b26 <strcat>:
    50202b26:	00054783          	lbu	a5,0(a0)
    50202b2a:	c39d                	beqz	a5,50202b50 <strcat+0x2a>
    50202b2c:	87aa                	mv	a5,a0
    50202b2e:	0017c703          	lbu	a4,1(a5)
    50202b32:	0785                	addi	a5,a5,1
    50202b34:	ff6d                	bnez	a4,50202b2e <strcat+0x8>
    50202b36:	0005c703          	lbu	a4,0(a1)
    50202b3a:	cb01                	beqz	a4,50202b4a <strcat+0x24>
    50202b3c:	0785                	addi	a5,a5,1
    50202b3e:	0585                	addi	a1,a1,1
    50202b40:	fee78fa3          	sb	a4,-1(a5)
    50202b44:	0005c703          	lbu	a4,0(a1)
    50202b48:	fb75                	bnez	a4,50202b3c <strcat+0x16>
    50202b4a:	00078023          	sb	zero,0(a5)
    50202b4e:	8082                	ret
    50202b50:	87aa                	mv	a5,a0
    50202b52:	bfcd                	j	50202b44 <strcat+0x1e>
